
zephyr.elf:     file format elf32-littlearm


Disassembly of section rom_start:

00000000 <_vector_table>:
#include <syscalls/z_errno_mrsh.c>

#else
int *z_impl_z_errno(void)
{
	return &_current->errno_var;
   0:	a0 13 00 20 75 16 00 00 21 48 00 00 49 16 00 00     ... u...!H..I...
  10:	49 16 00 00 49 16 00 00 49 16 00 00 00 00 00 00     I...I...I.......
	...
  2c:	51 13 00 00 49 16 00 00 00 00 00 00 fd 12 00 00     Q...I...........
  3c:	49 16 00 00                                         I...

00000040 <_irq_vector_table>:
  40:	01 14 00 00 01 14 00 00 01 14 00 00 01 14 00 00     ................
  50:	01 14 00 00 01 14 00 00 01 14 00 00 01 14 00 00     ................
  60:	01 14 00 00 01 14 00 00 01 14 00 00 01 14 00 00     ................
  70:	01 14 00 00 01 14 00 00 01 14 00 00 01 14 00 00     ................
  80:	01 14 00 00 01 14 00 00 01 14 00 00 01 14 00 00     ................
  90:	01 14 00 00 01 14 00 00 01 14 00 00 01 14 00 00     ................
  a0:	01 14 00 00 01 14 00 00 01 14 00 00 01 14 00 00     ................
  b0:	01 14 00 00 01 14 00 00 01 14 00 00 01 14 00 00     ................
  c0:	01 14 00 00 01 14 00 00 01 14 00 00 01 14 00 00     ................
  d0:	01 14 00 00 01 14 00 00 01 14 00 00 01 14 00 00     ................
  e0:	01 14 00 00 01 14 00 00 01 14 00 00 01 14 00 00     ................
  f0:	01 14 00 00 01 14 00 00 01 14 00 00 01 14 00 00     ................

Disassembly of section text:

00000100 <__aeabi_uldivmod>:
     100:	b953      	cbnz	r3, 118 <__aeabi_uldivmod+0x18>
     102:	b94a      	cbnz	r2, 118 <__aeabi_uldivmod+0x18>
     104:	2900      	cmp	r1, #0
     106:	bf08      	it	eq
     108:	2800      	cmpeq	r0, #0
     10a:	bf1c      	itt	ne
     10c:	f04f 31ff 	movne.w	r1, #4294967295	; 0xffffffff
     110:	f04f 30ff 	movne.w	r0, #4294967295	; 0xffffffff
     114:	f000 b80c 	b.w	130 <__aeabi_idiv0>
     118:	f1ad 0c08 	sub.w	ip, sp, #8
     11c:	e96d ce04 	strd	ip, lr, [sp, #-16]!
     120:	f000 f808 	bl	134 <__udivmoddi4>
     124:	f8dd e004 	ldr.w	lr, [sp, #4]
     128:	e9dd 2302 	ldrd	r2, r3, [sp, #8]
     12c:	b004      	add	sp, #16
     12e:	4770      	bx	lr

00000130 <__aeabi_idiv0>:
     130:	4770      	bx	lr
     132:	bf00      	nop

00000134 <__udivmoddi4>:
     134:	e92d 4ff0 	stmdb	sp!, {r4, r5, r6, r7, r8, r9, sl, fp, lr}
     138:	4607      	mov	r7, r0
     13a:	468c      	mov	ip, r1
     13c:	4608      	mov	r0, r1
     13e:	9e09      	ldr	r6, [sp, #36]	; 0x24
     140:	4615      	mov	r5, r2
     142:	463c      	mov	r4, r7
     144:	4619      	mov	r1, r3
     146:	2b00      	cmp	r3, #0
     148:	f040 80c6 	bne.w	2d8 <CONFIG_SYS_CLOCK_MAX_TIMEOUT_DAYS+0x16b>
     14c:	4282      	cmp	r2, r0
     14e:	fab2 f782 	clz	r7, r2
     152:	d946      	bls.n	1e2 <CONFIG_SYS_CLOCK_MAX_TIMEOUT_DAYS+0x75>
     154:	b14f      	cbz	r7, 16a <CONFIG_IDLE_STACK_SIZE+0x2a>
     156:	f1c7 0e20 	rsb	lr, r7, #32
     15a:	fa24 fe0e 	lsr.w	lr, r4, lr
     15e:	fa00 f307 	lsl.w	r3, r0, r7
     162:	40bd      	lsls	r5, r7
     164:	ea4e 0c03 	orr.w	ip, lr, r3
     168:	40bc      	lsls	r4, r7
     16a:	ea4f 4815 	mov.w	r8, r5, lsr #16
     16e:	fa1f fe85 	uxth.w	lr, r5
     172:	fbbc f9f8 	udiv	r9, ip, r8
     176:	0c22      	lsrs	r2, r4, #16
     178:	fb08 c319 	mls	r3, r8, r9, ip
     17c:	fb09 fa0e 	mul.w	sl, r9, lr
     180:	ea42 4303 	orr.w	r3, r2, r3, lsl #16
     184:	459a      	cmp	sl, r3
     186:	d928      	bls.n	1da <CONFIG_SYS_CLOCK_MAX_TIMEOUT_DAYS+0x6d>
     188:	18eb      	adds	r3, r5, r3
     18a:	f109 30ff 	add.w	r0, r9, #4294967295	; 0xffffffff
     18e:	d204      	bcs.n	19a <CONFIG_SYS_CLOCK_MAX_TIMEOUT_DAYS+0x2d>
     190:	459a      	cmp	sl, r3
     192:	d902      	bls.n	19a <CONFIG_SYS_CLOCK_MAX_TIMEOUT_DAYS+0x2d>
     194:	f1a9 0002 	sub.w	r0, r9, #2
     198:	442b      	add	r3, r5
     19a:	eba3 030a 	sub.w	r3, r3, sl
     19e:	b2a4      	uxth	r4, r4
     1a0:	fbb3 f2f8 	udiv	r2, r3, r8
     1a4:	fb08 3312 	mls	r3, r8, r2, r3
     1a8:	fb02 fe0e 	mul.w	lr, r2, lr
     1ac:	ea44 4403 	orr.w	r4, r4, r3, lsl #16
     1b0:	45a6      	cmp	lr, r4
     1b2:	d914      	bls.n	1de <CONFIG_SYS_CLOCK_MAX_TIMEOUT_DAYS+0x71>
     1b4:	192c      	adds	r4, r5, r4
     1b6:	f102 33ff 	add.w	r3, r2, #4294967295	; 0xffffffff
     1ba:	d203      	bcs.n	1c4 <CONFIG_SYS_CLOCK_MAX_TIMEOUT_DAYS+0x57>
     1bc:	45a6      	cmp	lr, r4
     1be:	d901      	bls.n	1c4 <CONFIG_SYS_CLOCK_MAX_TIMEOUT_DAYS+0x57>
     1c0:	1e93      	subs	r3, r2, #2
     1c2:	442c      	add	r4, r5
     1c4:	eba4 040e 	sub.w	r4, r4, lr
     1c8:	ea43 4000 	orr.w	r0, r3, r0, lsl #16
     1cc:	b11e      	cbz	r6, 1d6 <CONFIG_SYS_CLOCK_MAX_TIMEOUT_DAYS+0x69>
     1ce:	40fc      	lsrs	r4, r7
     1d0:	2300      	movs	r3, #0
     1d2:	6034      	str	r4, [r6, #0]
     1d4:	6073      	str	r3, [r6, #4]
     1d6:	e8bd 8ff0 	ldmia.w	sp!, {r4, r5, r6, r7, r8, r9, sl, fp, pc}
     1da:	4648      	mov	r0, r9
     1dc:	e7dd      	b.n	19a <CONFIG_SYS_CLOCK_MAX_TIMEOUT_DAYS+0x2d>
     1de:	4613      	mov	r3, r2
     1e0:	e7f0      	b.n	1c4 <CONFIG_SYS_CLOCK_MAX_TIMEOUT_DAYS+0x57>
     1e2:	b902      	cbnz	r2, 1e6 <CONFIG_SYS_CLOCK_MAX_TIMEOUT_DAYS+0x79>
     1e4:	deff      	udf	#255	; 0xff
     1e6:	bb87      	cbnz	r7, 24a <CONFIG_SYS_CLOCK_MAX_TIMEOUT_DAYS+0xdd>
     1e8:	1a83      	subs	r3, r0, r2
     1ea:	2101      	movs	r1, #1
     1ec:	ea4f 4e15 	mov.w	lr, r5, lsr #16
     1f0:	b2aa      	uxth	r2, r5
     1f2:	fbb3 fcfe 	udiv	ip, r3, lr
     1f6:	0c20      	lsrs	r0, r4, #16
     1f8:	fb0e 331c 	mls	r3, lr, ip, r3
     1fc:	fb0c f802 	mul.w	r8, ip, r2
     200:	ea40 4303 	orr.w	r3, r0, r3, lsl #16
     204:	4598      	cmp	r8, r3
     206:	d963      	bls.n	2d0 <CONFIG_SYS_CLOCK_MAX_TIMEOUT_DAYS+0x163>
     208:	18eb      	adds	r3, r5, r3
     20a:	f10c 30ff 	add.w	r0, ip, #4294967295	; 0xffffffff
     20e:	d204      	bcs.n	21a <CONFIG_SYS_CLOCK_MAX_TIMEOUT_DAYS+0xad>
     210:	4598      	cmp	r8, r3
     212:	d902      	bls.n	21a <CONFIG_SYS_CLOCK_MAX_TIMEOUT_DAYS+0xad>
     214:	f1ac 0002 	sub.w	r0, ip, #2
     218:	442b      	add	r3, r5
     21a:	eba3 0308 	sub.w	r3, r3, r8
     21e:	b2a4      	uxth	r4, r4
     220:	fbb3 fcfe 	udiv	ip, r3, lr
     224:	fb0e 331c 	mls	r3, lr, ip, r3
     228:	fb0c f202 	mul.w	r2, ip, r2
     22c:	ea44 4403 	orr.w	r4, r4, r3, lsl #16
     230:	42a2      	cmp	r2, r4
     232:	d94f      	bls.n	2d4 <CONFIG_SYS_CLOCK_MAX_TIMEOUT_DAYS+0x167>
     234:	192c      	adds	r4, r5, r4
     236:	f10c 33ff 	add.w	r3, ip, #4294967295	; 0xffffffff
     23a:	d204      	bcs.n	246 <CONFIG_SYS_CLOCK_MAX_TIMEOUT_DAYS+0xd9>
     23c:	42a2      	cmp	r2, r4
     23e:	d902      	bls.n	246 <CONFIG_SYS_CLOCK_MAX_TIMEOUT_DAYS+0xd9>
     240:	f1ac 0302 	sub.w	r3, ip, #2
     244:	442c      	add	r4, r5
     246:	1aa4      	subs	r4, r4, r2
     248:	e7be      	b.n	1c8 <CONFIG_SYS_CLOCK_MAX_TIMEOUT_DAYS+0x5b>
     24a:	f1c7 0c20 	rsb	ip, r7, #32
     24e:	fa20 f80c 	lsr.w	r8, r0, ip
     252:	fa00 f307 	lsl.w	r3, r0, r7
     256:	fa24 fc0c 	lsr.w	ip, r4, ip
     25a:	40bd      	lsls	r5, r7
     25c:	ea4c 0203 	orr.w	r2, ip, r3
     260:	ea4f 4e15 	mov.w	lr, r5, lsr #16
     264:	b2ab      	uxth	r3, r5
     266:	fbb8 fcfe 	udiv	ip, r8, lr
     26a:	0c11      	lsrs	r1, r2, #16
     26c:	fb0e 801c 	mls	r0, lr, ip, r8
     270:	fb0c f903 	mul.w	r9, ip, r3
     274:	ea41 4000 	orr.w	r0, r1, r0, lsl #16
     278:	4581      	cmp	r9, r0
     27a:	fa04 f407 	lsl.w	r4, r4, r7
     27e:	d923      	bls.n	2c8 <CONFIG_SYS_CLOCK_MAX_TIMEOUT_DAYS+0x15b>
     280:	1828      	adds	r0, r5, r0
     282:	f10c 31ff 	add.w	r1, ip, #4294967295	; 0xffffffff
     286:	d204      	bcs.n	292 <CONFIG_SYS_CLOCK_MAX_TIMEOUT_DAYS+0x125>
     288:	4581      	cmp	r9, r0
     28a:	d902      	bls.n	292 <CONFIG_SYS_CLOCK_MAX_TIMEOUT_DAYS+0x125>
     28c:	f1ac 0102 	sub.w	r1, ip, #2
     290:	4428      	add	r0, r5
     292:	eba0 0009 	sub.w	r0, r0, r9
     296:	b292      	uxth	r2, r2
     298:	fbb0 fcfe 	udiv	ip, r0, lr
     29c:	fb0e 001c 	mls	r0, lr, ip, r0
     2a0:	fb0c f803 	mul.w	r8, ip, r3
     2a4:	ea42 4300 	orr.w	r3, r2, r0, lsl #16
     2a8:	4598      	cmp	r8, r3
     2aa:	d90f      	bls.n	2cc <CONFIG_SYS_CLOCK_MAX_TIMEOUT_DAYS+0x15f>
     2ac:	18eb      	adds	r3, r5, r3
     2ae:	f10c 32ff 	add.w	r2, ip, #4294967295	; 0xffffffff
     2b2:	d204      	bcs.n	2be <CONFIG_SYS_CLOCK_MAX_TIMEOUT_DAYS+0x151>
     2b4:	4598      	cmp	r8, r3
     2b6:	d902      	bls.n	2be <CONFIG_SYS_CLOCK_MAX_TIMEOUT_DAYS+0x151>
     2b8:	f1ac 0202 	sub.w	r2, ip, #2
     2bc:	442b      	add	r3, r5
     2be:	eba3 0308 	sub.w	r3, r3, r8
     2c2:	ea42 4101 	orr.w	r1, r2, r1, lsl #16
     2c6:	e791      	b.n	1ec <CONFIG_SYS_CLOCK_MAX_TIMEOUT_DAYS+0x7f>
     2c8:	4661      	mov	r1, ip
     2ca:	e7e2      	b.n	292 <CONFIG_SYS_CLOCK_MAX_TIMEOUT_DAYS+0x125>
     2cc:	4662      	mov	r2, ip
     2ce:	e7f6      	b.n	2be <CONFIG_SYS_CLOCK_MAX_TIMEOUT_DAYS+0x151>
     2d0:	4660      	mov	r0, ip
     2d2:	e7a2      	b.n	21a <CONFIG_SYS_CLOCK_MAX_TIMEOUT_DAYS+0xad>
     2d4:	4663      	mov	r3, ip
     2d6:	e7b6      	b.n	246 <CONFIG_SYS_CLOCK_MAX_TIMEOUT_DAYS+0xd9>
     2d8:	4283      	cmp	r3, r0
     2da:	d905      	bls.n	2e8 <CONFIG_SYS_CLOCK_MAX_TIMEOUT_DAYS+0x17b>
     2dc:	b10e      	cbz	r6, 2e2 <CONFIG_SYS_CLOCK_MAX_TIMEOUT_DAYS+0x175>
     2de:	e9c6 7000 	strd	r7, r0, [r6]
     2e2:	2100      	movs	r1, #0
     2e4:	4608      	mov	r0, r1
     2e6:	e776      	b.n	1d6 <CONFIG_SYS_CLOCK_MAX_TIMEOUT_DAYS+0x69>
     2e8:	fab3 f183 	clz	r1, r3
     2ec:	b981      	cbnz	r1, 310 <CONFIG_SYS_CLOCK_MAX_TIMEOUT_DAYS+0x1a3>
     2ee:	4283      	cmp	r3, r0
     2f0:	d301      	bcc.n	2f6 <CONFIG_SYS_CLOCK_MAX_TIMEOUT_DAYS+0x189>
     2f2:	42ba      	cmp	r2, r7
     2f4:	d80a      	bhi.n	30c <CONFIG_SYS_CLOCK_MAX_TIMEOUT_DAYS+0x19f>
     2f6:	1abc      	subs	r4, r7, r2
     2f8:	eb60 0303 	sbc.w	r3, r0, r3
     2fc:	2001      	movs	r0, #1
     2fe:	469c      	mov	ip, r3
     300:	2e00      	cmp	r6, #0
     302:	d068      	beq.n	3d6 <CONFIG_SYS_CLOCK_MAX_TIMEOUT_DAYS+0x269>
     304:	e9c6 4c00 	strd	r4, ip, [r6]
     308:	2100      	movs	r1, #0
     30a:	e764      	b.n	1d6 <CONFIG_SYS_CLOCK_MAX_TIMEOUT_DAYS+0x69>
     30c:	4608      	mov	r0, r1
     30e:	e7f7      	b.n	300 <CONFIG_SYS_CLOCK_MAX_TIMEOUT_DAYS+0x193>
     310:	f1c1 0c20 	rsb	ip, r1, #32
     314:	408b      	lsls	r3, r1
     316:	fa22 f40c 	lsr.w	r4, r2, ip
     31a:	431c      	orrs	r4, r3
     31c:	fa02 f501 	lsl.w	r5, r2, r1
     320:	fa00 f301 	lsl.w	r3, r0, r1
     324:	fa27 f20c 	lsr.w	r2, r7, ip
     328:	fa20 fb0c 	lsr.w	fp, r0, ip
     32c:	ea4f 4914 	mov.w	r9, r4, lsr #16
     330:	4313      	orrs	r3, r2
     332:	fbbb f8f9 	udiv	r8, fp, r9
     336:	fa1f fe84 	uxth.w	lr, r4
     33a:	fb09 bb18 	mls	fp, r9, r8, fp
     33e:	0c1a      	lsrs	r2, r3, #16
     340:	fb08 fa0e 	mul.w	sl, r8, lr
     344:	ea42 420b 	orr.w	r2, r2, fp, lsl #16
     348:	4592      	cmp	sl, r2
     34a:	fa07 f701 	lsl.w	r7, r7, r1
     34e:	d93e      	bls.n	3ce <CONFIG_SYS_CLOCK_MAX_TIMEOUT_DAYS+0x261>
     350:	18a2      	adds	r2, r4, r2
     352:	f108 30ff 	add.w	r0, r8, #4294967295	; 0xffffffff
     356:	d204      	bcs.n	362 <CONFIG_SYS_CLOCK_MAX_TIMEOUT_DAYS+0x1f5>
     358:	4592      	cmp	sl, r2
     35a:	d902      	bls.n	362 <CONFIG_SYS_CLOCK_MAX_TIMEOUT_DAYS+0x1f5>
     35c:	f1a8 0002 	sub.w	r0, r8, #2
     360:	4422      	add	r2, r4
     362:	eba2 020a 	sub.w	r2, r2, sl
     366:	b29b      	uxth	r3, r3
     368:	fbb2 f8f9 	udiv	r8, r2, r9
     36c:	fb09 2218 	mls	r2, r9, r8, r2
     370:	fb08 fe0e 	mul.w	lr, r8, lr
     374:	ea43 4202 	orr.w	r2, r3, r2, lsl #16
     378:	4596      	cmp	lr, r2
     37a:	d92a      	bls.n	3d2 <CONFIG_SYS_CLOCK_MAX_TIMEOUT_DAYS+0x265>
     37c:	18a2      	adds	r2, r4, r2
     37e:	f108 33ff 	add.w	r3, r8, #4294967295	; 0xffffffff
     382:	d204      	bcs.n	38e <CONFIG_SYS_CLOCK_MAX_TIMEOUT_DAYS+0x221>
     384:	4596      	cmp	lr, r2
     386:	d902      	bls.n	38e <CONFIG_SYS_CLOCK_MAX_TIMEOUT_DAYS+0x221>
     388:	f1a8 0302 	sub.w	r3, r8, #2
     38c:	4422      	add	r2, r4
     38e:	ea43 4000 	orr.w	r0, r3, r0, lsl #16
     392:	fba0 9305 	umull	r9, r3, r0, r5
     396:	eba2 020e 	sub.w	r2, r2, lr
     39a:	429a      	cmp	r2, r3
     39c:	46ce      	mov	lr, r9
     39e:	4698      	mov	r8, r3
     3a0:	d302      	bcc.n	3a8 <CONFIG_SYS_CLOCK_MAX_TIMEOUT_DAYS+0x23b>
     3a2:	d106      	bne.n	3b2 <CONFIG_SYS_CLOCK_MAX_TIMEOUT_DAYS+0x245>
     3a4:	454f      	cmp	r7, r9
     3a6:	d204      	bcs.n	3b2 <CONFIG_SYS_CLOCK_MAX_TIMEOUT_DAYS+0x245>
     3a8:	ebb9 0e05 	subs.w	lr, r9, r5
     3ac:	eb63 0804 	sbc.w	r8, r3, r4
     3b0:	3801      	subs	r0, #1
     3b2:	b186      	cbz	r6, 3d6 <CONFIG_SYS_CLOCK_MAX_TIMEOUT_DAYS+0x269>
     3b4:	ebb7 030e 	subs.w	r3, r7, lr
     3b8:	eb62 0708 	sbc.w	r7, r2, r8
     3bc:	fa07 fc0c 	lsl.w	ip, r7, ip
     3c0:	40cb      	lsrs	r3, r1
     3c2:	ea4c 0303 	orr.w	r3, ip, r3
     3c6:	40cf      	lsrs	r7, r1
     3c8:	e9c6 3700 	strd	r3, r7, [r6]
     3cc:	e79c      	b.n	308 <CONFIG_SYS_CLOCK_MAX_TIMEOUT_DAYS+0x19b>
     3ce:	4640      	mov	r0, r8
     3d0:	e7c7      	b.n	362 <CONFIG_SYS_CLOCK_MAX_TIMEOUT_DAYS+0x1f5>
     3d2:	4643      	mov	r3, r8
     3d4:	e7db      	b.n	38e <CONFIG_SYS_CLOCK_MAX_TIMEOUT_DAYS+0x221>
     3d6:	4631      	mov	r1, r6
     3d8:	e6fd      	b.n	1d6 <CONFIG_SYS_CLOCK_MAX_TIMEOUT_DAYS+0x69>
	...

000003dc <main>:

#include <zephyr.h>

void main(void)
{
	printk("Hello World! %s\n", CONFIG_BOARD);
     3dc:	4901      	ldr	r1, [pc, #4]	; (3e4 <main+0x8>)
     3de:	4802      	ldr	r0, [pc, #8]	; (3e8 <main+0xc>)
     3e0:	f004 b8f1 	b.w	45c6 <printk>
     3e4:	000055ec 	.word	0x000055ec
     3e8:	00005600 	.word	0x00005600

000003ec <char_out>:

static int char_out(int c, void *ctx_p)
{
	struct out_context *ctx = ctx_p;

	ctx->count++;
     3ec:	680b      	ldr	r3, [r1, #0]
     3ee:	3301      	adds	r3, #1
     3f0:	600b      	str	r3, [r1, #0]
	return _char_out(c);
     3f2:	4b01      	ldr	r3, [pc, #4]	; (3f8 <char_out+0xc>)
     3f4:	681b      	ldr	r3, [r3, #0]
     3f6:	4718      	bx	r3
     3f8:	20000000 	.word	0x20000000

000003fc <__printk_hook_install>:
	_char_out = fn;
     3fc:	4b01      	ldr	r3, [pc, #4]	; (404 <CONFIG_FLASH_SIZE+0x4>)
     3fe:	6018      	str	r0, [r3, #0]
}
     400:	4770      	bx	lr
     402:	bf00      	nop
     404:	20000000 	.word	0x20000000

00000408 <vprintk>:
}

void vprintk(const char *fmt, va_list ap)
{
     408:	b507      	push	{r0, r1, r2, lr}
     40a:	460b      	mov	r3, r1

		if (ctx.buf_count) {
			buf_flush(&ctx);
		}
	} else {
		struct out_context ctx = { 0 };
     40c:	2100      	movs	r1, #0
{
     40e:	4602      	mov	r2, r0
		struct out_context ctx = { 0 };
     410:	9101      	str	r1, [sp, #4]
#ifdef CONFIG_PRINTK_SYNC
		k_spinlock_key_t key = k_spin_lock(&lock);
#endif

		cbvprintf(char_out, &ctx, fmt, ap);
     412:	4803      	ldr	r0, [pc, #12]	; (420 <vprintk+0x18>)
     414:	a901      	add	r1, sp, #4
     416:	f000 f8e5 	bl	5e4 <cbvprintf>

#ifdef CONFIG_PRINTK_SYNC
		k_spin_unlock(&lock, key);
#endif
	}
}
     41a:	b003      	add	sp, #12
     41c:	f85d fb04 	ldr.w	pc, [sp], #4
     420:	000003ed 	.word	0x000003ed

00000424 <process_event>:
 * regions.
 */
static void process_event(struct onoff_manager *mgr,
			  int evt,
			  k_spinlock_key_t key)
{
     424:	e92d 4ff8 	stmdb	sp!, {r3, r4, r5, r6, r7, r8, r9, sl, fp, lr}
	sys_slist_t clients;
	uint32_t state = mgr->flags & ONOFF_STATE_MASK;
     428:	f8b0 9018 	ldrh.w	r9, [r0, #24]
	__ASSERT_NO_MSG(evt != EVT_NOP);

	/* If this is a nested call record the event for processing in
	 * the top invocation.
	 */
	if (processing) {
     42c:	f019 0808 	ands.w	r8, r9, #8
{
     430:	4604      	mov	r4, r0
     432:	4693      	mov	fp, r2
	if (processing) {
     434:	d00d      	beq.n	452 <process_event+0x2e>
		if (evt == EVT_COMPLETE) {
     436:	2901      	cmp	r1, #1
			mgr->flags |= ONOFF_FLAG_COMPLETE;
     438:	bf0c      	ite	eq
     43a:	f049 0910 	orreq.w	r9, r9, #16
		} else {
			__ASSERT_NO_MSG(evt == EVT_RECHECK);

			mgr->flags |= ONOFF_FLAG_RECHECK;
     43e:	f049 0920 	orrne.w	r9, r9, #32
     442:	f8a0 9018 	strh.w	r9, [r0, #24]
	__asm__ volatile(
		"cpsie i;"
		"isb"
		: : : "memory");
#elif defined(CONFIG_ARMV7_M_ARMV8_M_MAINLINE)
	__asm__ volatile(
     446:	f38b 8811 	msr	BASEPRI, fp
     44a:	f3bf 8f6f 	isb	sy
		state = mgr->flags & ONOFF_STATE_MASK;
	} while (evt != EVT_NOP);

out:
	k_spin_unlock(&mgr->lock, key);
}
     44e:	e8bd 8ff8 	ldmia.w	sp!, {r3, r4, r5, r6, r7, r8, r9, sl, fp, pc}
	uint32_t state = mgr->flags & ONOFF_STATE_MASK;
     452:	f009 0907 	and.w	r9, r9, #7
		if (evt == EVT_RECHECK) {
     456:	2902      	cmp	r1, #2
     458:	d107      	bne.n	46a <process_event+0x46>
			evt = process_recheck(mgr);
     45a:	4620      	mov	r0, r4
     45c:	f004 f8c0 	bl	45e0 <process_recheck>
		if (evt == EVT_NOP) {
     460:	2800      	cmp	r0, #0
     462:	d0f0      	beq.n	446 <process_event+0x22>
		if (evt == EVT_COMPLETE) {
     464:	2801      	cmp	r0, #1
		     | (mgr->flags & ~ONOFF_STATE_MASK);
     466:	8b23      	ldrh	r3, [r4, #24]
		if (evt == EVT_COMPLETE) {
     468:	d14e      	bne.n	508 <CONFIG_NRF_MODEM_SHMEM_CTRL_SIZE+0x20>
			res = mgr->last_res;
     46a:	6967      	ldr	r7, [r4, #20]
	uint32_t state = mgr->flags & ONOFF_STATE_MASK;
     46c:	8b21      	ldrh	r1, [r4, #24]
	if (res < 0) {
     46e:	2f00      	cmp	r7, #0
     470:	da15      	bge.n	49e <process_event+0x7a>
		*clients = mgr->clients;
     472:	6825      	ldr	r5, [r4, #0]
		     | (mgr->flags & ~ONOFF_STATE_MASK);
     474:	f021 0107 	bic.w	r1, r1, #7
 * @param list A pointer on the list to initialize
 */
static inline void sys_slist_init(sys_slist_t *list)
{
	list->head = NULL;
	list->tail = NULL;
     478:	e9c4 8800 	strd	r8, r8, [r4]
     47c:	f041 0101 	orr.w	r1, r1, #1
	mgr->flags = (state & ONOFF_STATE_MASK)
     480:	8321      	strh	r1, [r4, #24]
		onoff_transition_fn transit = NULL;
     482:	2600      	movs	r6, #0
		bool do_monitors = (state != (mgr->flags & ONOFF_STATE_MASK))
     484:	8b21      	ldrh	r1, [r4, #24]
     486:	f001 0a07 	and.w	sl, r1, #7
				   && !sys_slist_is_empty(&mgr->monitors);
     48a:	45ca      	cmp	sl, r9
     48c:	d002      	beq.n	494 <process_event+0x70>
		if (do_monitors
     48e:	68a3      	ldr	r3, [r4, #8]
     490:	2b00      	cmp	r3, #0
     492:	d15a      	bne.n	54a <CONFIG_NRF_MODEM_SHMEM_CTRL_SIZE+0x62>
		    || !sys_slist_is_empty(&clients)
     494:	b90d      	cbnz	r5, 49a <process_event+0x76>
		    || (transit != NULL)) {
     496:	2e00      	cmp	r6, #0
     498:	d071      	beq.n	57e <CONFIG_NRF_MODEM_SHMEM_CTRL_SIZE+0x96>
     49a:	2300      	movs	r3, #0
     49c:	e056      	b.n	54c <CONFIG_NRF_MODEM_SHMEM_CTRL_SIZE+0x64>
	uint32_t state = mgr->flags & ONOFF_STATE_MASK;
     49e:	f001 0307 	and.w	r3, r1, #7
		   || (state == ONOFF_STATE_RESETTING)) {
     4a2:	1f5a      	subs	r2, r3, #5
	} else if ((state == ONOFF_STATE_TO_ON)
     4a4:	2a01      	cmp	r2, #1
     4a6:	d81e      	bhi.n	4e6 <process_event+0xc2>
		     | (mgr->flags & ~ONOFF_STATE_MASK);
     4a8:	f021 0107 	bic.w	r1, r1, #7
		if (state == ONOFF_STATE_TO_ON) {
     4ac:	2b06      	cmp	r3, #6
		*clients = mgr->clients;
     4ae:	6825      	ldr	r5, [r4, #0]
		     | (mgr->flags & ~ONOFF_STATE_MASK);
     4b0:	b289      	uxth	r1, r1
     4b2:	e9c4 8800 	strd	r8, r8, [r4]
		if (state == ONOFF_STATE_TO_ON) {
     4b6:	d10a      	bne.n	4ce <process_event+0xaa>
			SYS_SLIST_FOR_EACH_CONTAINER(clients, cp, node) {
     4b8:	b13d      	cbz	r5, 4ca <process_event+0xa6>
     4ba:	8b63      	ldrh	r3, [r4, #26]
     4bc:	462a      	mov	r2, r5

#define SYS_SLIST_STATIC_INIT(ptr_to_list) {NULL, NULL}

static inline sys_snode_t *z_snode_next_peek(sys_snode_t *node)
{
	return node->next;
     4be:	6812      	ldr	r2, [r2, #0]
				mgr->refs += 1U;
     4c0:	3301      	adds	r3, #1
     4c2:	b29b      	uxth	r3, r3
			SYS_SLIST_FOR_EACH_CONTAINER(clients, cp, node) {
     4c4:	2a00      	cmp	r2, #0
     4c6:	d1fa      	bne.n	4be <process_event+0x9a>
     4c8:	8363      	strh	r3, [r4, #26]
		     | (mgr->flags & ~ONOFF_STATE_MASK);
     4ca:	f041 0102 	orr.w	r1, r1, #2
	mgr->flags = (state & ONOFF_STATE_MASK)
     4ce:	8321      	strh	r1, [r4, #24]
		if (process_recheck(mgr) != EVT_NOP) {
     4d0:	4620      	mov	r0, r4
     4d2:	f004 f885 	bl	45e0 <process_recheck>
     4d6:	4606      	mov	r6, r0
     4d8:	2800      	cmp	r0, #0
     4da:	d0d3      	beq.n	484 <process_event+0x60>
			mgr->flags |= ONOFF_FLAG_RECHECK;
     4dc:	8b23      	ldrh	r3, [r4, #24]
     4de:	f043 0320 	orr.w	r3, r3, #32
     4e2:	8323      	strh	r3, [r4, #24]
     4e4:	e7cd      	b.n	482 <process_event+0x5e>
	} else if (state == ONOFF_STATE_TO_OFF) {
     4e6:	2b04      	cmp	r3, #4
     4e8:	d10c      	bne.n	504 <CONFIG_NRF_MODEM_SHMEM_CTRL_SIZE+0x1c>
		     | (mgr->flags & ~ONOFF_STATE_MASK);
     4ea:	f021 0107 	bic.w	r1, r1, #7
     4ee:	b289      	uxth	r1, r1
	mgr->flags = (state & ONOFF_STATE_MASK)
     4f0:	8321      	strh	r1, [r4, #24]
		if (process_recheck(mgr) != EVT_NOP) {
     4f2:	4620      	mov	r0, r4
     4f4:	f004 f874 	bl	45e0 <process_recheck>
     4f8:	4605      	mov	r5, r0
     4fa:	2800      	cmp	r0, #0
     4fc:	d0c1      	beq.n	482 <process_event+0x5e>
			mgr->flags |= ONOFF_FLAG_RECHECK;
     4fe:	f041 0120 	orr.w	r1, r1, #32
     502:	8321      	strh	r1, [r4, #24]
     504:	2500      	movs	r5, #0
     506:	e7bc      	b.n	482 <process_event+0x5e>
		} else if (evt == EVT_START) {
     508:	2803      	cmp	r0, #3
     50a:	d109      	bne.n	520 <CONFIG_NRF_MODEM_SHMEM_CTRL_SIZE+0x38>
			transit = mgr->transitions->start;
     50c:	6922      	ldr	r2, [r4, #16]
		     | (mgr->flags & ~ONOFF_STATE_MASK);
     50e:	f023 0307 	bic.w	r3, r3, #7
			transit = mgr->transitions->start;
     512:	6816      	ldr	r6, [r2, #0]
		     | (mgr->flags & ~ONOFF_STATE_MASK);
     514:	f043 0306 	orr.w	r3, r3, #6
	mgr->flags = (state & ONOFF_STATE_MASK)
     518:	8323      	strh	r3, [r4, #24]
}
     51a:	2500      	movs	r5, #0
		res = 0;
     51c:	462f      	mov	r7, r5
     51e:	e7b1      	b.n	484 <process_event+0x60>
		} else if (evt == EVT_STOP) {
     520:	2804      	cmp	r0, #4
     522:	d106      	bne.n	532 <CONFIG_NRF_MODEM_SHMEM_CTRL_SIZE+0x4a>
			transit = mgr->transitions->stop;
     524:	6922      	ldr	r2, [r4, #16]
		     | (mgr->flags & ~ONOFF_STATE_MASK);
     526:	f023 0307 	bic.w	r3, r3, #7
			transit = mgr->transitions->stop;
     52a:	6856      	ldr	r6, [r2, #4]
		     | (mgr->flags & ~ONOFF_STATE_MASK);
     52c:	f043 0304 	orr.w	r3, r3, #4
     530:	e7f2      	b.n	518 <CONFIG_NRF_MODEM_SHMEM_CTRL_SIZE+0x30>
		} else if (evt == EVT_RESET) {
     532:	2805      	cmp	r0, #5
     534:	d106      	bne.n	544 <CONFIG_NRF_MODEM_SHMEM_CTRL_SIZE+0x5c>
			transit = mgr->transitions->reset;
     536:	6922      	ldr	r2, [r4, #16]
		     | (mgr->flags & ~ONOFF_STATE_MASK);
     538:	f023 0307 	bic.w	r3, r3, #7
			transit = mgr->transitions->reset;
     53c:	6896      	ldr	r6, [r2, #8]
		     | (mgr->flags & ~ONOFF_STATE_MASK);
     53e:	f043 0305 	orr.w	r3, r3, #5
     542:	e7e9      	b.n	518 <CONFIG_NRF_MODEM_SHMEM_CTRL_SIZE+0x30>
     544:	2500      	movs	r5, #0
		onoff_transition_fn transit = NULL;
     546:	462e      	mov	r6, r5
     548:	e7e8      	b.n	51c <CONFIG_NRF_MODEM_SHMEM_CTRL_SIZE+0x34>
				   && !sys_slist_is_empty(&mgr->monitors);
     54a:	2301      	movs	r3, #1
			uint32_t flags = mgr->flags | ONOFF_FLAG_PROCESSING;
     54c:	f041 0108 	orr.w	r1, r1, #8
			mgr->flags = flags;
     550:	8321      	strh	r1, [r4, #24]
     552:	f38b 8811 	msr	BASEPRI, fp
     556:	f3bf 8f6f 	isb	sy
			if (do_monitors) {
     55a:	b9fb      	cbnz	r3, 59c <CONFIG_NRF_MODEM_SHMEM_CTRL_SIZE+0xb4>
	while (!sys_slist_is_empty(list)) {
     55c:	bb85      	cbnz	r5, 5c0 <CONFIG_NRF_MODEM_SHMEM_CTRL_SIZE+0xd8>
			if (transit != NULL) {
     55e:	b116      	cbz	r6, 566 <CONFIG_NRF_MODEM_SHMEM_CTRL_SIZE+0x7e>
				transit(mgr, transition_complete);
     560:	491f      	ldr	r1, [pc, #124]	; (5e0 <CONFIG_NRF_MODEM_SHMEM_CTRL_SIZE+0xf8>)
     562:	4620      	mov	r0, r4
     564:	47b0      	blx	r6
	__asm__ volatile(
     566:	f04f 0320 	mov.w	r3, #32
     56a:	f3ef 8b11 	mrs	fp, BASEPRI
     56e:	f383 8812 	msr	BASEPRI_MAX, r3
     572:	f3bf 8f6f 	isb	sy
			mgr->flags &= ~ONOFF_FLAG_PROCESSING;
     576:	8b23      	ldrh	r3, [r4, #24]
     578:	f023 0308 	bic.w	r3, r3, #8
     57c:	8323      	strh	r3, [r4, #24]
		if ((mgr->flags & ONOFF_FLAG_COMPLETE) != 0) {
     57e:	8b23      	ldrh	r3, [r4, #24]
     580:	06da      	lsls	r2, r3, #27
     582:	d525      	bpl.n	5d0 <CONFIG_NRF_MODEM_SHMEM_CTRL_SIZE+0xe8>
			mgr->flags &= ~ONOFF_FLAG_COMPLETE;
     584:	f023 0310 	bic.w	r3, r3, #16
     588:	8323      	strh	r3, [r4, #24]
			evt = EVT_COMPLETE;
     58a:	2101      	movs	r1, #1
		state = mgr->flags & ONOFF_STATE_MASK;
     58c:	f8b4 9018 	ldrh.w	r9, [r4, #24]
     590:	f009 0907 	and.w	r9, r9, #7
	} while (evt != EVT_NOP);
     594:	2900      	cmp	r1, #0
     596:	f47f af5e 	bne.w	456 <process_event+0x32>
out:
     59a:	e754      	b.n	446 <process_event+0x22>
 *
 * @return A pointer on the first node of the list (or NULL if none)
 */
static inline sys_snode_t *sys_slist_peek_head(sys_slist_t *list)
{
	return list->head;
     59c:	68a1      	ldr	r1, [r4, #8]
	SYS_SLIST_FOR_EACH_CONTAINER_SAFE(mlist, mon, tmp, node) {
     59e:	2900      	cmp	r1, #0
     5a0:	d0dc      	beq.n	55c <CONFIG_NRF_MODEM_SHMEM_CTRL_SIZE+0x74>
	return node->next;
     5a2:	f8d1 9000 	ldr.w	r9, [r1]
		mon->callback(mgr, mon, state, res);
     5a6:	f8d1 b004 	ldr.w	fp, [r1, #4]
     5aa:	463b      	mov	r3, r7
     5ac:	4652      	mov	r2, sl
     5ae:	4620      	mov	r0, r4
     5b0:	47d8      	blx	fp
	SYS_SLIST_FOR_EACH_CONTAINER_SAFE(mlist, mon, tmp, node) {
     5b2:	f1b9 0f00 	cmp.w	r9, #0
     5b6:	d0d1      	beq.n	55c <CONFIG_NRF_MODEM_SHMEM_CTRL_SIZE+0x74>
     5b8:	4649      	mov	r1, r9
     5ba:	f8d9 9000 	ldr.w	r9, [r9]
     5be:	e7f2      	b.n	5a6 <CONFIG_NRF_MODEM_SHMEM_CTRL_SIZE+0xbe>
     5c0:	4629      	mov	r1, r5
		notify_one(mgr, cli, state, res);
     5c2:	463b      	mov	r3, r7
     5c4:	4652      	mov	r2, sl
     5c6:	4620      	mov	r0, r4
     5c8:	682d      	ldr	r5, [r5, #0]
     5ca:	f004 f825 	bl	4618 <notify_one>
     5ce:	e7c5      	b.n	55c <CONFIG_NRF_MODEM_SHMEM_CTRL_SIZE+0x74>
		} else if ((mgr->flags & ONOFF_FLAG_RECHECK) != 0) {
     5d0:	f013 0120 	ands.w	r1, r3, #32
			mgr->flags &= ~ONOFF_FLAG_RECHECK;
     5d4:	bf1e      	ittt	ne
     5d6:	f023 0320 	bicne.w	r3, r3, #32
     5da:	8323      	strhne	r3, [r4, #24]
			evt = EVT_RECHECK;
     5dc:	2102      	movne	r1, #2
     5de:	e7d5      	b.n	58c <CONFIG_NRF_MODEM_SHMEM_CTRL_SIZE+0xa4>
     5e0:	00004645 	.word	0x00004645

000005e4 <cbvprintf>:

	return (int)count;
}

int cbvprintf(cbprintf_cb out, void *ctx, const char *fp, va_list ap)
{
     5e4:	e92d 4ff0 	stmdb	sp!, {r4, r5, r6, r7, r8, r9, sl, fp, lr}
     5e8:	b091      	sub	sp, #68	; 0x44
     5ea:	468b      	mov	fp, r1
     5ec:	9002      	str	r0, [sp, #8]
     5ee:	4692      	mov	sl, r2
     5f0:	461c      	mov	r4, r3
	char buf[CONVERTED_BUFLEN];
	size_t count = 0;
     5f2:	2500      	movs	r5, #0
		return rc; \
	} \
	count += rc; \
} while (false)

	while (*fp != 0) {
     5f4:	f89a 0000 	ldrb.w	r0, [sl]
     5f8:	b908      	cbnz	r0, 5fe <cbvprintf+0x1a>
			OUTC(' ');
			--width;
		}
	}

	return count;
     5fa:	4628      	mov	r0, r5
     5fc:	e35f      	b.n	cbe <CONFIG_ISR_STACK_SIZE+0x4be>
		if (*fp != '%') {
     5fe:	2825      	cmp	r0, #37	; 0x25
			OUTC(*fp++);
     600:	f10a 0701 	add.w	r7, sl, #1
		if (*fp != '%') {
     604:	d007      	beq.n	616 <cbvprintf+0x32>
			OUTC('%');
     606:	9b02      	ldr	r3, [sp, #8]
     608:	4659      	mov	r1, fp
     60a:	4798      	blx	r3
     60c:	2800      	cmp	r0, #0
     60e:	f2c0 8356 	blt.w	cbe <CONFIG_ISR_STACK_SIZE+0x4be>
     612:	3501      	adds	r5, #1
			break;
     614:	e212      	b.n	a3c <CONFIG_ISR_STACK_SIZE+0x23c>
		} state = {
     616:	2218      	movs	r2, #24
     618:	2100      	movs	r1, #0
     61a:	a80a      	add	r0, sp, #40	; 0x28
     61c:	f004 f92c 	bl	4878 <memset>
	if (*sp == '%') {
     620:	f89a 3001 	ldrb.w	r3, [sl, #1]
     624:	2b25      	cmp	r3, #37	; 0x25
     626:	d078      	beq.n	71a <cbvprintf+0x136>
     628:	2200      	movs	r2, #0
     62a:	4610      	mov	r0, r2
     62c:	4696      	mov	lr, r2
     62e:	4694      	mov	ip, r2
     630:	4616      	mov	r6, r2
     632:	4639      	mov	r1, r7
		switch (*sp) {
     634:	f817 3b01 	ldrb.w	r3, [r7], #1
     638:	2b2b      	cmp	r3, #43	; 0x2b
     63a:	f000 809d 	beq.w	778 <cbvprintf+0x194>
     63e:	f200 8094 	bhi.w	76a <cbvprintf+0x186>
     642:	2b20      	cmp	r3, #32
     644:	f000 809b 	beq.w	77e <cbvprintf+0x19a>
     648:	2b23      	cmp	r3, #35	; 0x23
     64a:	f000 809b 	beq.w	784 <cbvprintf+0x1a0>
     64e:	b12e      	cbz	r6, 65c <cbvprintf+0x78>
     650:	f89d 6030 	ldrb.w	r6, [sp, #48]	; 0x30
     654:	f046 0604 	orr.w	r6, r6, #4
     658:	f88d 6030 	strb.w	r6, [sp, #48]	; 0x30
     65c:	f1bc 0f00 	cmp.w	ip, #0
     660:	d005      	beq.n	66e <cbvprintf+0x8a>
     662:	f89d 6030 	ldrb.w	r6, [sp, #48]	; 0x30
     666:	f046 0608 	orr.w	r6, r6, #8
     66a:	f88d 6030 	strb.w	r6, [sp, #48]	; 0x30
     66e:	f1be 0f00 	cmp.w	lr, #0
     672:	d005      	beq.n	680 <cbvprintf+0x9c>
     674:	f89d 6030 	ldrb.w	r6, [sp, #48]	; 0x30
     678:	f046 0610 	orr.w	r6, r6, #16
     67c:	f88d 6030 	strb.w	r6, [sp, #48]	; 0x30
     680:	b128      	cbz	r0, 68e <cbvprintf+0xaa>
     682:	f89d 0030 	ldrb.w	r0, [sp, #48]	; 0x30
     686:	f040 0020 	orr.w	r0, r0, #32
     68a:	f88d 0030 	strb.w	r0, [sp, #48]	; 0x30
     68e:	b12a      	cbz	r2, 69c <cbvprintf+0xb8>
     690:	f89d 2030 	ldrb.w	r2, [sp, #48]	; 0x30
     694:	f042 0240 	orr.w	r2, r2, #64	; 0x40
     698:	f88d 2030 	strb.w	r2, [sp, #48]	; 0x30
	if (conv->flag_zero && conv->flag_dash) {
     69c:	f89d 2030 	ldrb.w	r2, [sp, #48]	; 0x30
     6a0:	f002 0044 	and.w	r0, r2, #68	; 0x44
     6a4:	2844      	cmp	r0, #68	; 0x44
     6a6:	d103      	bne.n	6b0 <cbvprintf+0xcc>
		conv->flag_zero = false;
     6a8:	f36f 1286 	bfc	r2, #6, #1
     6ac:	f88d 2030 	strb.w	r2, [sp, #48]	; 0x30
	conv->width_present = true;
     6b0:	f89d 2030 	ldrb.w	r2, [sp, #48]	; 0x30
	if (*sp == '*') {
     6b4:	2b2a      	cmp	r3, #42	; 0x2a
	conv->width_present = true;
     6b6:	f042 0280 	orr.w	r2, r2, #128	; 0x80
     6ba:	f88d 2030 	strb.w	r2, [sp, #48]	; 0x30
	if (*sp == '*') {
     6be:	d17b      	bne.n	7b8 <cbvprintf+0x1d4>
		conv->width_star = true;
     6c0:	f89d 2031 	ldrb.w	r2, [sp, #49]	; 0x31
     6c4:	f042 0201 	orr.w	r2, r2, #1
			++sp;
     6c8:	1c4b      	adds	r3, r1, #1
		conv->width_star = true;
     6ca:	f88d 2031 	strb.w	r2, [sp, #49]	; 0x31
	conv->prec_present = (*sp == '.');
     6ce:	781a      	ldrb	r2, [r3, #0]
     6d0:	2a2e      	cmp	r2, #46	; 0x2e
     6d2:	f89d 2031 	ldrb.w	r2, [sp, #49]	; 0x31
     6d6:	bf0c      	ite	eq
     6d8:	2101      	moveq	r1, #1
     6da:	2100      	movne	r1, #0
     6dc:	f361 0241 	bfi	r2, r1, #1, #1
     6e0:	f88d 2031 	strb.w	r2, [sp, #49]	; 0x31
	if (!conv->prec_present) {
     6e4:	d174      	bne.n	7d0 <cbvprintf+0x1ec>
	if (*sp == '*') {
     6e6:	785a      	ldrb	r2, [r3, #1]
     6e8:	2a2a      	cmp	r2, #42	; 0x2a
     6ea:	d06a      	beq.n	7c2 <cbvprintf+0x1de>
	++sp;
     6ec:	3301      	adds	r3, #1
	size_t val = 0;
     6ee:	2100      	movs	r1, #0
		val = 10U * val + *sp++ - '0';
     6f0:	260a      	movs	r6, #10
			(((unsigned)c) <= (unsigned)'~'));
}

static inline int isdigit(int a)
{
	return (int)(((unsigned)(a)-(unsigned)'0') < 10U);
     6f2:	4618      	mov	r0, r3
     6f4:	f810 2b01 	ldrb.w	r2, [r0], #1
     6f8:	f1a2 0730 	sub.w	r7, r2, #48	; 0x30
	while (isdigit((int)(unsigned char)*sp)) {
     6fc:	2f09      	cmp	r7, #9
     6fe:	f240 808e 	bls.w	81e <CONFIG_ISR_STACK_SIZE+0x1e>
	conv->unsupported |= ((conv->prec_value < 0)
     702:	f89d 2030 	ldrb.w	r2, [sp, #48]	; 0x30
	conv->prec_value = prec;
     706:	910e      	str	r1, [sp, #56]	; 0x38
	conv->unsupported |= ((conv->prec_value < 0)
     708:	f3c2 0040 	ubfx	r0, r2, #1, #1
     70c:	ea40 71d1 	orr.w	r1, r0, r1, lsr #31
     710:	f361 0241 	bfi	r2, r1, #1, #1
     714:	f88d 2030 	strb.w	r2, [sp, #48]	; 0x30
	return sp;
     718:	e05a      	b.n	7d0 <cbvprintf+0x1ec>
		conv->specifier = *sp++;
     71a:	f10a 0702 	add.w	r7, sl, #2
     71e:	f88d 3033 	strb.w	r3, [sp, #51]	; 0x33
		if (conv->width_star) {
     722:	f89d 3031 	ldrb.w	r3, [sp, #49]	; 0x31
     726:	07d9      	lsls	r1, r3, #31
     728:	f140 8149 	bpl.w	9be <CONFIG_ISR_STACK_SIZE+0x1be>
			width = va_arg(ap, int);
     72c:	f854 9b04 	ldr.w	r9, [r4], #4
			if (width < 0) {
     730:	f1b9 0f00 	cmp.w	r9, #0
     734:	da07      	bge.n	746 <cbvprintf+0x162>
				conv->flag_dash = true;
     736:	f89d 2030 	ldrb.w	r2, [sp, #48]	; 0x30
     73a:	f042 0204 	orr.w	r2, r2, #4
     73e:	f88d 2030 	strb.w	r2, [sp, #48]	; 0x30
				width = -width;
     742:	f1c9 0900 	rsb	r9, r9, #0
		if (conv->prec_star) {
     746:	075a      	lsls	r2, r3, #29
     748:	f140 8142 	bpl.w	9d0 <CONFIG_ISR_STACK_SIZE+0x1d0>
			int arg = va_arg(ap, int);
     74c:	f854 8b04 	ldr.w	r8, [r4], #4
			if (arg < 0) {
     750:	f1b8 0f00 	cmp.w	r8, #0
     754:	f280 8141 	bge.w	9da <CONFIG_ISR_STACK_SIZE+0x1da>
				conv->prec_present = false;
     758:	f89d 3031 	ldrb.w	r3, [sp, #49]	; 0x31
     75c:	f36f 0341 	bfc	r3, #1, #1
     760:	f88d 3031 	strb.w	r3, [sp, #49]	; 0x31
		int precision = -1;
     764:	f04f 38ff 	mov.w	r8, #4294967295	; 0xffffffff
     768:	e137      	b.n	9da <CONFIG_ISR_STACK_SIZE+0x1da>
		switch (*sp) {
     76a:	2b2d      	cmp	r3, #45	; 0x2d
     76c:	d00c      	beq.n	788 <cbvprintf+0x1a4>
     76e:	2b30      	cmp	r3, #48	; 0x30
     770:	f47f af6d 	bne.w	64e <cbvprintf+0x6a>
			conv->flag_zero = true;
     774:	2201      	movs	r2, #1
	} while (loop);
     776:	e75c      	b.n	632 <cbvprintf+0x4e>
			conv->flag_plus = true;
     778:	f04f 0c01 	mov.w	ip, #1
     77c:	e759      	b.n	632 <cbvprintf+0x4e>
			conv->flag_space = true;
     77e:	f04f 0e01 	mov.w	lr, #1
     782:	e756      	b.n	632 <cbvprintf+0x4e>
			conv->flag_hash = true;
     784:	2001      	movs	r0, #1
     786:	e754      	b.n	632 <cbvprintf+0x4e>
		switch (*sp) {
     788:	2601      	movs	r6, #1
     78a:	e752      	b.n	632 <cbvprintf+0x4e>
		val = 10U * val + *sp++ - '0';
     78c:	fb0c 0202 	mla	r2, ip, r2, r0
     790:	3a30      	subs	r2, #48	; 0x30
     792:	4633      	mov	r3, r6
     794:	461e      	mov	r6, r3
     796:	f816 0b01 	ldrb.w	r0, [r6], #1
     79a:	f1a0 0730 	sub.w	r7, r0, #48	; 0x30
	while (isdigit((int)(unsigned char)*sp)) {
     79e:	2f09      	cmp	r7, #9
     7a0:	d9f4      	bls.n	78c <cbvprintf+0x1a8>
	if (sp != wp) {
     7a2:	4299      	cmp	r1, r3
     7a4:	d093      	beq.n	6ce <cbvprintf+0xea>
		conv->unsupported |= ((conv->width_value < 0)
     7a6:	f89d 1030 	ldrb.w	r1, [sp, #48]	; 0x30
		conv->width_value = width;
     7aa:	920d      	str	r2, [sp, #52]	; 0x34
				      || (width != (size_t)conv->width_value));
     7ac:	0fd2      	lsrs	r2, r2, #31
		conv->unsupported |= ((conv->width_value < 0)
     7ae:	f362 0141 	bfi	r1, r2, #1, #1
     7b2:	f88d 1030 	strb.w	r1, [sp, #48]	; 0x30
     7b6:	e78a      	b.n	6ce <cbvprintf+0xea>
     7b8:	460b      	mov	r3, r1
	size_t val = 0;
     7ba:	2200      	movs	r2, #0
		val = 10U * val + *sp++ - '0';
     7bc:	f04f 0c0a 	mov.w	ip, #10
     7c0:	e7e8      	b.n	794 <cbvprintf+0x1b0>
		conv->prec_star = true;
     7c2:	f89d 2031 	ldrb.w	r2, [sp, #49]	; 0x31
     7c6:	f042 0204 	orr.w	r2, r2, #4
     7ca:	f88d 2031 	strb.w	r2, [sp, #49]	; 0x31
		return ++sp;
     7ce:	3302      	adds	r3, #2
	switch (*sp) {
     7d0:	461f      	mov	r7, r3
     7d2:	f817 2b01 	ldrb.w	r2, [r7], #1
     7d6:	2a6c      	cmp	r2, #108	; 0x6c
     7d8:	d041      	beq.n	85e <CONFIG_ISR_STACK_SIZE+0x5e>
     7da:	d825      	bhi.n	828 <CONFIG_ISR_STACK_SIZE+0x28>
     7dc:	2a68      	cmp	r2, #104	; 0x68
     7de:	d02b      	beq.n	838 <CONFIG_ISR_STACK_SIZE+0x38>
     7e0:	2a6a      	cmp	r2, #106	; 0x6a
     7e2:	d046      	beq.n	872 <CONFIG_ISR_STACK_SIZE+0x72>
     7e4:	2a4c      	cmp	r2, #76	; 0x4c
     7e6:	d04c      	beq.n	882 <CONFIG_ISR_STACK_SIZE+0x82>
     7e8:	461f      	mov	r7, r3
	conv->specifier = *sp++;
     7ea:	f817 2b01 	ldrb.w	r2, [r7], #1
		if (conv->length_mod == LENGTH_UPPER_L) {
     7ee:	f89d 3031 	ldrb.w	r3, [sp, #49]	; 0x31
	conv->specifier = *sp++;
     7f2:	f88d 2033 	strb.w	r2, [sp, #51]	; 0x33
	switch (conv->specifier) {
     7f6:	2a78      	cmp	r2, #120	; 0x78
     7f8:	f200 80d9 	bhi.w	9ae <CONFIG_ISR_STACK_SIZE+0x1ae>
     7fc:	2a57      	cmp	r2, #87	; 0x57
     7fe:	d84d      	bhi.n	89c <CONFIG_ISR_STACK_SIZE+0x9c>
     800:	2a41      	cmp	r2, #65	; 0x41
     802:	d003      	beq.n	80c <CONFIG_ISR_STACK_SIZE+0xc>
     804:	3a45      	subs	r2, #69	; 0x45
     806:	2a02      	cmp	r2, #2
     808:	f200 80d1 	bhi.w	9ae <CONFIG_ISR_STACK_SIZE+0x1ae>
		conv->specifier_cat = SPECIFIER_FP;
     80c:	f89d 3032 	ldrb.w	r3, [sp, #50]	; 0x32
     810:	2204      	movs	r2, #4
     812:	f362 0302 	bfi	r3, r2, #0, #3
     816:	f88d 3032 	strb.w	r3, [sp, #50]	; 0x32
			unsupported = true;
     81a:	2301      	movs	r3, #1
			break;
     81c:	e09e      	b.n	95c <CONFIG_ISR_STACK_SIZE+0x15c>
		val = 10U * val + *sp++ - '0';
     81e:	fb06 2101 	mla	r1, r6, r1, r2
     822:	3930      	subs	r1, #48	; 0x30
     824:	4603      	mov	r3, r0
     826:	e764      	b.n	6f2 <cbvprintf+0x10e>
	switch (*sp) {
     828:	2a74      	cmp	r2, #116	; 0x74
     82a:	d026      	beq.n	87a <CONFIG_ISR_STACK_SIZE+0x7a>
     82c:	2a7a      	cmp	r2, #122	; 0x7a
     82e:	d1db      	bne.n	7e8 <cbvprintf+0x204>
		conv->length_mod = LENGTH_Z;
     830:	f89d 3031 	ldrb.w	r3, [sp, #49]	; 0x31
     834:	2206      	movs	r2, #6
     836:	e00d      	b.n	854 <CONFIG_ISR_STACK_SIZE+0x54>
		if (*++sp == 'h') {
     838:	785a      	ldrb	r2, [r3, #1]
     83a:	2a68      	cmp	r2, #104	; 0x68
     83c:	f89d 2031 	ldrb.w	r2, [sp, #49]	; 0x31
     840:	d106      	bne.n	850 <CONFIG_ISR_STACK_SIZE+0x50>
			conv->length_mod = LENGTH_HH;
     842:	2101      	movs	r1, #1
			conv->length_mod = LENGTH_LL;
     844:	f361 02c6 	bfi	r2, r1, #3, #4
     848:	f88d 2031 	strb.w	r2, [sp, #49]	; 0x31
			++sp;
     84c:	1c9f      	adds	r7, r3, #2
     84e:	e7cc      	b.n	7ea <cbvprintf+0x206>
			conv->length_mod = LENGTH_H;
     850:	4613      	mov	r3, r2
     852:	2202      	movs	r2, #2
		conv->length_mod = LENGTH_T;
     854:	f362 03c6 	bfi	r3, r2, #3, #4
     858:	f88d 3031 	strb.w	r3, [sp, #49]	; 0x31
		break;
     85c:	e7c5      	b.n	7ea <cbvprintf+0x206>
		if (*++sp == 'l') {
     85e:	785a      	ldrb	r2, [r3, #1]
     860:	2a6c      	cmp	r2, #108	; 0x6c
     862:	f89d 2031 	ldrb.w	r2, [sp, #49]	; 0x31
     866:	d101      	bne.n	86c <CONFIG_ISR_STACK_SIZE+0x6c>
			conv->length_mod = LENGTH_LL;
     868:	2104      	movs	r1, #4
     86a:	e7eb      	b.n	844 <CONFIG_ISR_STACK_SIZE+0x44>
			conv->length_mod = LENGTH_L;
     86c:	4613      	mov	r3, r2
     86e:	2203      	movs	r2, #3
     870:	e7f0      	b.n	854 <CONFIG_ISR_STACK_SIZE+0x54>
		conv->length_mod = LENGTH_J;
     872:	f89d 3031 	ldrb.w	r3, [sp, #49]	; 0x31
     876:	2205      	movs	r2, #5
     878:	e7ec      	b.n	854 <CONFIG_ISR_STACK_SIZE+0x54>
		conv->length_mod = LENGTH_T;
     87a:	f89d 3031 	ldrb.w	r3, [sp, #49]	; 0x31
     87e:	2207      	movs	r2, #7
     880:	e7e8      	b.n	854 <CONFIG_ISR_STACK_SIZE+0x54>
		conv->unsupported = true;
     882:	f8bd 3030 	ldrh.w	r3, [sp, #48]	; 0x30
     886:	f423 43f0 	bic.w	r3, r3, #30720	; 0x7800
     88a:	f023 0302 	bic.w	r3, r3, #2
     88e:	f443 4380 	orr.w	r3, r3, #16384	; 0x4000
     892:	f043 0302 	orr.w	r3, r3, #2
     896:	f8ad 3030 	strh.w	r3, [sp, #48]	; 0x30
		break;
     89a:	e7a6      	b.n	7ea <cbvprintf+0x206>
	switch (conv->specifier) {
     89c:	f1a2 0158 	sub.w	r1, r2, #88	; 0x58
     8a0:	2920      	cmp	r1, #32
     8a2:	f200 8084 	bhi.w	9ae <CONFIG_ISR_STACK_SIZE+0x1ae>
     8a6:	a001      	add	r0, pc, #4	; (adr r0, 8ac <CONFIG_ISR_STACK_SIZE+0xac>)
     8a8:	f850 f021 	ldr.w	pc, [r0, r1, lsl #2]
     8ac:	00000971 	.word	0x00000971
     8b0:	000009af 	.word	0x000009af
     8b4:	000009af 	.word	0x000009af
     8b8:	000009af 	.word	0x000009af
     8bc:	000009af 	.word	0x000009af
     8c0:	000009af 	.word	0x000009af
     8c4:	000009af 	.word	0x000009af
     8c8:	000009af 	.word	0x000009af
     8cc:	000009af 	.word	0x000009af
     8d0:	0000080d 	.word	0x0000080d
     8d4:	000009af 	.word	0x000009af
     8d8:	00000971 	.word	0x00000971
     8dc:	00000931 	.word	0x00000931
     8e0:	0000080d 	.word	0x0000080d
     8e4:	0000080d 	.word	0x0000080d
     8e8:	0000080d 	.word	0x0000080d
     8ec:	000009af 	.word	0x000009af
     8f0:	00000931 	.word	0x00000931
     8f4:	000009af 	.word	0x000009af
     8f8:	000009af 	.word	0x000009af
     8fc:	000009af 	.word	0x000009af
     900:	000009af 	.word	0x000009af
     904:	00000979 	.word	0x00000979
     908:	00000971 	.word	0x00000971
     90c:	00000995 	.word	0x00000995
     910:	000009af 	.word	0x000009af
     914:	000009af 	.word	0x000009af
     918:	00000995 	.word	0x00000995
     91c:	000009af 	.word	0x000009af
     920:	00000971 	.word	0x00000971
     924:	000009af 	.word	0x000009af
     928:	000009af 	.word	0x000009af
     92c:	00000971 	.word	0x00000971
		conv->specifier_cat = SPECIFIER_SINT;
     930:	f89d 1032 	ldrb.w	r1, [sp, #50]	; 0x32
     934:	2001      	movs	r0, #1
		if (conv->length_mod == LENGTH_UPPER_L) {
     936:	f003 0378 	and.w	r3, r3, #120	; 0x78
		conv->specifier_cat = SPECIFIER_UINT;
     93a:	f360 0102 	bfi	r1, r0, #0, #3
		if (conv->length_mod == LENGTH_UPPER_L) {
     93e:	2b40      	cmp	r3, #64	; 0x40
		conv->specifier_cat = SPECIFIER_UINT;
     940:	f88d 1032 	strb.w	r1, [sp, #50]	; 0x32
			conv->invalid = true;
     944:	bf02      	ittt	eq
     946:	f89d 1030 	ldrbeq.w	r1, [sp, #48]	; 0x30
     94a:	f041 0101 	orreq.w	r1, r1, #1
     94e:	f88d 1030 	strbeq.w	r1, [sp, #48]	; 0x30
		if (conv->specifier == 'c') {
     952:	2a63      	cmp	r2, #99	; 0x63
     954:	d131      	bne.n	9ba <CONFIG_ISR_STACK_SIZE+0x1ba>
			unsupported = (conv->length_mod != LENGTH_NONE);
     956:	3b00      	subs	r3, #0
     958:	bf18      	it	ne
     95a:	2301      	movne	r3, #1
	conv->unsupported |= unsupported;
     95c:	f89d 2030 	ldrb.w	r2, [sp, #48]	; 0x30
     960:	f3c2 0140 	ubfx	r1, r2, #1, #1
     964:	430b      	orrs	r3, r1
     966:	f363 0241 	bfi	r2, r3, #1, #1
     96a:	f88d 2030 	strb.w	r2, [sp, #48]	; 0x30
	return sp;
     96e:	e6d8      	b.n	722 <cbvprintf+0x13e>
		conv->specifier_cat = SPECIFIER_UINT;
     970:	f89d 1032 	ldrb.w	r1, [sp, #50]	; 0x32
     974:	2002      	movs	r0, #2
     976:	e7de      	b.n	936 <CONFIG_ISR_STACK_SIZE+0x136>
		conv->specifier_cat = SPECIFIER_PTR;
     978:	f89d 2032 	ldrb.w	r2, [sp, #50]	; 0x32
		if (conv->length_mod == LENGTH_UPPER_L) {
     97c:	f003 0378 	and.w	r3, r3, #120	; 0x78
     980:	f1a3 0040 	sub.w	r0, r3, #64	; 0x40
		conv->specifier_cat = SPECIFIER_PTR;
     984:	2103      	movs	r1, #3
     986:	f361 0202 	bfi	r2, r1, #0, #3
		if (conv->length_mod == LENGTH_UPPER_L) {
     98a:	4243      	negs	r3, r0
		conv->specifier_cat = SPECIFIER_PTR;
     98c:	f88d 2032 	strb.w	r2, [sp, #50]	; 0x32
		if (conv->length_mod == LENGTH_UPPER_L) {
     990:	4143      	adcs	r3, r0
     992:	e7e3      	b.n	95c <CONFIG_ISR_STACK_SIZE+0x15c>
		conv->specifier_cat = SPECIFIER_PTR;
     994:	f89d 2032 	ldrb.w	r2, [sp, #50]	; 0x32
     998:	2103      	movs	r1, #3
		if (conv->length_mod != LENGTH_NONE) {
     99a:	f013 0f78 	tst.w	r3, #120	; 0x78
		conv->specifier_cat = SPECIFIER_PTR;
     99e:	f361 0202 	bfi	r2, r1, #0, #3
     9a2:	f88d 2032 	strb.w	r2, [sp, #50]	; 0x32
		if (conv->length_mod != LENGTH_NONE) {
     9a6:	bf14      	ite	ne
     9a8:	2301      	movne	r3, #1
     9aa:	2300      	moveq	r3, #0
     9ac:	e7d6      	b.n	95c <CONFIG_ISR_STACK_SIZE+0x15c>
		conv->invalid = true;
     9ae:	f89d 3030 	ldrb.w	r3, [sp, #48]	; 0x30
     9b2:	f043 0301 	orr.w	r3, r3, #1
     9b6:	f88d 3030 	strb.w	r3, [sp, #48]	; 0x30
	bool unsupported = false;
     9ba:	2300      	movs	r3, #0
     9bc:	e7ce      	b.n	95c <CONFIG_ISR_STACK_SIZE+0x15c>
		} else if (conv->width_present) {
     9be:	f99d 2030 	ldrsb.w	r2, [sp, #48]	; 0x30
     9c2:	2a00      	cmp	r2, #0
			width = conv->width_value;
     9c4:	bfb4      	ite	lt
     9c6:	f8dd 9034 	ldrlt.w	r9, [sp, #52]	; 0x34
		int width = -1;
     9ca:	f04f 39ff 	movge.w	r9, #4294967295	; 0xffffffff
     9ce:	e6ba      	b.n	746 <cbvprintf+0x162>
		} else if (conv->prec_present) {
     9d0:	079b      	lsls	r3, r3, #30
     9d2:	f57f aec7 	bpl.w	764 <cbvprintf+0x180>
			precision = conv->prec_value;
     9d6:	f8dd 8038 	ldr.w	r8, [sp, #56]	; 0x38
			= (enum length_mod_enum)conv->length_mod;
     9da:	f89d 1031 	ldrb.w	r1, [sp, #49]	; 0x31
		conv->pad0_value = 0;
     9de:	2300      	movs	r3, #0
		conv->pad0_pre_exp = 0;
     9e0:	e9cd 330d 	strd	r3, r3, [sp, #52]	; 0x34
			= (enum specifier_cat_enum)conv->specifier_cat;
     9e4:	f89d 3032 	ldrb.w	r3, [sp, #50]	; 0x32
		enum specifier_cat_enum specifier_cat
     9e8:	f003 0307 	and.w	r3, r3, #7
		if (specifier_cat == SPECIFIER_SINT) {
     9ec:	2b01      	cmp	r3, #1
			= (enum length_mod_enum)conv->length_mod;
     9ee:	f3c1 01c3 	ubfx	r1, r1, #3, #4
		if (specifier_cat == SPECIFIER_SINT) {
     9f2:	d138      	bne.n	a66 <CONFIG_ISR_STACK_SIZE+0x266>
			switch (length_mod) {
     9f4:	1ecb      	subs	r3, r1, #3
     9f6:	2b04      	cmp	r3, #4
     9f8:	d822      	bhi.n	a40 <CONFIG_ISR_STACK_SIZE+0x240>
     9fa:	e8df f003 	tbb	[pc, r3]
     9fe:	0903      	.short	0x0903
     a00:	2109      	.short	0x2109
     a02:	21          	.byte	0x21
     a03:	00          	.byte	0x00
					value->sint = va_arg(ap, long);
     a04:	f854 3b04 	ldr.w	r3, [r4], #4
				value->sint = (short)value->sint;
     a08:	17da      	asrs	r2, r3, #31
     a0a:	e9cd 320a 	strd	r3, r2, [sp, #40]	; 0x28
     a0e:	e006      	b.n	a1e <CONFIG_ISR_STACK_SIZE+0x21e>
					(sint_value_type)va_arg(ap, intmax_t);
     a10:	3407      	adds	r4, #7
     a12:	f024 0407 	bic.w	r4, r4, #7
				value->sint =
     a16:	e8f4 2302 	ldrd	r2, r3, [r4], #8
     a1a:	e9cd 230a 	strd	r2, r3, [sp, #40]	; 0x28
		if (conv->invalid || conv->unsupported) {
     a1e:	f89d 3030 	ldrb.w	r3, [sp, #48]	; 0x30
     a22:	f013 0603 	ands.w	r6, r3, #3
     a26:	d056      	beq.n	ad6 <CONFIG_ISR_STACK_SIZE+0x2d6>
			OUTS(sp, fp);
     a28:	9802      	ldr	r0, [sp, #8]
     a2a:	463b      	mov	r3, r7
     a2c:	4652      	mov	r2, sl
     a2e:	4659      	mov	r1, fp
     a30:	f003 fed1 	bl	47d6 <outs>
     a34:	2800      	cmp	r0, #0
     a36:	f2c0 8142 	blt.w	cbe <CONFIG_ISR_STACK_SIZE+0x4be>
     a3a:	4405      	add	r5, r0
			continue;
     a3c:	46ba      	mov	sl, r7
     a3e:	e5d9      	b.n	5f4 <cbvprintf+0x10>
					(sint_value_type)va_arg(ap, ptrdiff_t);
     a40:	f854 3b04 	ldr.w	r3, [r4], #4
			if (length_mod == LENGTH_HH) {
     a44:	2901      	cmp	r1, #1
					(sint_value_type)va_arg(ap, ptrdiff_t);
     a46:	ea4f 72e3 	mov.w	r2, r3, asr #31
     a4a:	e9cd 320a 	strd	r3, r2, [sp, #40]	; 0x28
			if (length_mod == LENGTH_HH) {
     a4e:	d105      	bne.n	a5c <CONFIG_ISR_STACK_SIZE+0x25c>
				value->uint = (unsigned char)value->uint;
     a50:	f89d 3028 	ldrb.w	r3, [sp, #40]	; 0x28
				value->uint = (unsigned short)value->uint;
     a54:	930a      	str	r3, [sp, #40]	; 0x28
     a56:	2300      	movs	r3, #0
     a58:	930b      	str	r3, [sp, #44]	; 0x2c
     a5a:	e7e0      	b.n	a1e <CONFIG_ISR_STACK_SIZE+0x21e>
			} else if (length_mod == LENGTH_H) {
     a5c:	2902      	cmp	r1, #2
     a5e:	d1de      	bne.n	a1e <CONFIG_ISR_STACK_SIZE+0x21e>
				value->sint = (short)value->sint;
     a60:	f9bd 3028 	ldrsh.w	r3, [sp, #40]	; 0x28
     a64:	e7d0      	b.n	a08 <CONFIG_ISR_STACK_SIZE+0x208>
		} else if (specifier_cat == SPECIFIER_UINT) {
     a66:	2b02      	cmp	r3, #2
     a68:	d123      	bne.n	ab2 <CONFIG_ISR_STACK_SIZE+0x2b2>
			switch (length_mod) {
     a6a:	1ecb      	subs	r3, r1, #3
     a6c:	2b04      	cmp	r3, #4
     a6e:	d813      	bhi.n	a98 <CONFIG_ISR_STACK_SIZE+0x298>
     a70:	e8df f003 	tbb	[pc, r3]
     a74:	120a0a03 	.word	0x120a0a03
     a78:	12          	.byte	0x12
     a79:	00          	.byte	0x00
					value->uint = (wchar_t)va_arg(ap,
     a7a:	6822      	ldr	r2, [r4, #0]
     a7c:	920a      	str	r2, [sp, #40]	; 0x28
     a7e:	2300      	movs	r3, #0
				value->sint = va_arg(ap, int);
     a80:	1d20      	adds	r0, r4, #4
					value->uint = (wchar_t)va_arg(ap,
     a82:	930b      	str	r3, [sp, #44]	; 0x2c
					(uint_value_type)va_arg(ap, size_t);
     a84:	4604      	mov	r4, r0
     a86:	e7ca      	b.n	a1e <CONFIG_ISR_STACK_SIZE+0x21e>
					(uint_value_type)va_arg(ap,
     a88:	1de0      	adds	r0, r4, #7
     a8a:	f020 0007 	bic.w	r0, r0, #7
				value->uint =
     a8e:	e8f0 2302 	ldrd	r2, r3, [r0], #8
     a92:	e9cd 230a 	strd	r2, r3, [sp, #40]	; 0x28
				break;
     a96:	e7f5      	b.n	a84 <CONFIG_ISR_STACK_SIZE+0x284>
					(uint_value_type)va_arg(ap, size_t);
     a98:	f854 3b04 	ldr.w	r3, [r4], #4
     a9c:	930a      	str	r3, [sp, #40]	; 0x28
			if (length_mod == LENGTH_HH) {
     a9e:	2901      	cmp	r1, #1
					(uint_value_type)va_arg(ap, size_t);
     aa0:	f04f 0300 	mov.w	r3, #0
     aa4:	930b      	str	r3, [sp, #44]	; 0x2c
			if (length_mod == LENGTH_HH) {
     aa6:	d0d3      	beq.n	a50 <CONFIG_ISR_STACK_SIZE+0x250>
			} else if (length_mod == LENGTH_H) {
     aa8:	2902      	cmp	r1, #2
     aaa:	d1b8      	bne.n	a1e <CONFIG_ISR_STACK_SIZE+0x21e>
				value->uint = (unsigned short)value->uint;
     aac:	f8bd 3028 	ldrh.w	r3, [sp, #40]	; 0x28
     ab0:	e7d0      	b.n	a54 <CONFIG_ISR_STACK_SIZE+0x254>
		} else if (specifier_cat == SPECIFIER_FP) {
     ab2:	2b04      	cmp	r3, #4
     ab4:	d109      	bne.n	aca <CONFIG_ISR_STACK_SIZE+0x2ca>
					(sint_value_type)va_arg(ap, long long);
     ab6:	1de3      	adds	r3, r4, #7
     ab8:	f023 0307 	bic.w	r3, r3, #7
     abc:	f103 0408 	add.w	r4, r3, #8
				value->ldbl = va_arg(ap, long double);
     ac0:	e9d3 2300 	ldrd	r2, r3, [r3]
     ac4:	e9cd 230a 	strd	r2, r3, [sp, #40]	; 0x28
     ac8:	e7a9      	b.n	a1e <CONFIG_ISR_STACK_SIZE+0x21e>
		} else if (specifier_cat == SPECIFIER_PTR) {
     aca:	2b03      	cmp	r3, #3
			value->ptr = va_arg(ap, void *);
     acc:	bf04      	itt	eq
     ace:	f854 3b04 	ldreq.w	r3, [r4], #4
     ad2:	930a      	streq	r3, [sp, #40]	; 0x28
     ad4:	e7a3      	b.n	a1e <CONFIG_ISR_STACK_SIZE+0x21e>
		switch (conv->specifier) {
     ad6:	f89d 0033 	ldrb.w	r0, [sp, #51]	; 0x33
     ada:	2878      	cmp	r0, #120	; 0x78
     adc:	d8ae      	bhi.n	a3c <CONFIG_ISR_STACK_SIZE+0x23c>
     ade:	2862      	cmp	r0, #98	; 0x62
     ae0:	d822      	bhi.n	b28 <CONFIG_ISR_STACK_SIZE+0x328>
     ae2:	2825      	cmp	r0, #37	; 0x25
     ae4:	f43f ad8f 	beq.w	606 <cbvprintf+0x22>
     ae8:	2858      	cmp	r0, #88	; 0x58
     aea:	d1a7      	bne.n	a3c <CONFIG_ISR_STACK_SIZE+0x23c>
			bps = encode_uint(value->uint, conv, buf, bpe);
     aec:	f10d 0326 	add.w	r3, sp, #38	; 0x26
     af0:	9300      	str	r3, [sp, #0]
     af2:	e9dd 010a 	ldrd	r0, r1, [sp, #40]	; 0x28
     af6:	ab04      	add	r3, sp, #16
     af8:	aa0c      	add	r2, sp, #48	; 0x30
     afa:	f003 fe26 	bl	474a <encode_uint>
     afe:	4682      	mov	sl, r0
			if (precision >= 0) {
     b00:	f1b8 0f00 	cmp.w	r8, #0
     b04:	f10d 0026 	add.w	r0, sp, #38	; 0x26
     b08:	db0c      	blt.n	b24 <CONFIG_ISR_STACK_SIZE+0x324>
				conv->flag_zero = false;
     b0a:	f89d 2030 	ldrb.w	r2, [sp, #48]	; 0x30
				size_t len = bpe - bps;
     b0e:	eba0 030a 	sub.w	r3, r0, sl
				conv->flag_zero = false;
     b12:	f36f 1286 	bfc	r2, #6, #1
				if (len < (size_t)precision) {
     b16:	4598      	cmp	r8, r3
				conv->flag_zero = false;
     b18:	f88d 2030 	strb.w	r2, [sp, #48]	; 0x30
				if (len < (size_t)precision) {
     b1c:	d902      	bls.n	b24 <CONFIG_ISR_STACK_SIZE+0x324>
					conv->pad0_value = precision - (int)len;
     b1e:	eba8 0303 	sub.w	r3, r8, r3
     b22:	930d      	str	r3, [sp, #52]	; 0x34
		const char *bpe = buf + sizeof(buf);
     b24:	4680      	mov	r8, r0
     b26:	e03d      	b.n	ba4 <CONFIG_ISR_STACK_SIZE+0x3a4>
		switch (conv->specifier) {
     b28:	3863      	subs	r0, #99	; 0x63
     b2a:	2815      	cmp	r0, #21
     b2c:	d886      	bhi.n	a3c <CONFIG_ISR_STACK_SIZE+0x23c>
     b2e:	a201      	add	r2, pc, #4	; (adr r2, b34 <CONFIG_ISR_STACK_SIZE+0x334>)
     b30:	f852 f020 	ldr.w	pc, [r2, r0, lsl #2]
     b34:	00000bb5 	.word	0x00000bb5
     b38:	00000c19 	.word	0x00000c19
     b3c:	00000a3d 	.word	0x00000a3d
     b40:	00000a3d 	.word	0x00000a3d
     b44:	00000a3d 	.word	0x00000a3d
     b48:	00000a3d 	.word	0x00000a3d
     b4c:	00000c19 	.word	0x00000c19
     b50:	00000a3d 	.word	0x00000a3d
     b54:	00000a3d 	.word	0x00000a3d
     b58:	00000a3d 	.word	0x00000a3d
     b5c:	00000a3d 	.word	0x00000a3d
     b60:	00000c73 	.word	0x00000c73
     b64:	00000c41 	.word	0x00000c41
     b68:	00000c45 	.word	0x00000c45
     b6c:	00000a3d 	.word	0x00000a3d
     b70:	00000a3d 	.word	0x00000a3d
     b74:	00000b8d 	.word	0x00000b8d
     b78:	00000a3d 	.word	0x00000a3d
     b7c:	00000c41 	.word	0x00000c41
     b80:	00000a3d 	.word	0x00000a3d
     b84:	00000a3d 	.word	0x00000a3d
     b88:	00000c41 	.word	0x00000c41
			if (precision >= 0) {
     b8c:	f1b8 0f00 	cmp.w	r8, #0
			bps = (const char *)value->ptr;
     b90:	f8dd a028 	ldr.w	sl, [sp, #40]	; 0x28
			if (precision >= 0) {
     b94:	db0a      	blt.n	bac <CONFIG_ISR_STACK_SIZE+0x3ac>
				len = strnlen(bps, precision);
     b96:	4641      	mov	r1, r8
     b98:	4650      	mov	r0, sl
     b9a:	f003 fe59 	bl	4850 <strnlen>
			bpe = bps + len;
     b9e:	eb0a 0800 	add.w	r8, sl, r0
		char sign = 0;
     ba2:	2600      	movs	r6, #0
		if (bps == NULL) {
     ba4:	f1ba 0f00 	cmp.w	sl, #0
     ba8:	d10c      	bne.n	bc4 <CONFIG_ISR_STACK_SIZE+0x3c4>
     baa:	e747      	b.n	a3c <CONFIG_ISR_STACK_SIZE+0x23c>
				len = strlen(bps);
     bac:	4650      	mov	r0, sl
     bae:	f003 fe48 	bl	4842 <strlen>
     bb2:	e7f4      	b.n	b9e <CONFIG_ISR_STACK_SIZE+0x39e>
			buf[0] = CHAR_IS_SIGNED ? value->sint : value->uint;
     bb4:	9b0a      	ldr	r3, [sp, #40]	; 0x28
     bb6:	f88d 3010 	strb.w	r3, [sp, #16]
			break;
     bba:	2600      	movs	r6, #0
			bps = buf;
     bbc:	f10d 0a10 	add.w	sl, sp, #16
			bpe = buf + 1;
     bc0:	f10d 0811 	add.w	r8, sp, #17
		size_t nj_len = (bpe - bps);
     bc4:	eba8 030a 	sub.w	r3, r8, sl
		if (sign != 0) {
     bc8:	b106      	cbz	r6, bcc <CONFIG_ISR_STACK_SIZE+0x3cc>
			nj_len += 1U;
     bca:	3301      	adds	r3, #1
		if (conv->altform_0c) {
     bcc:	f89d 2032 	ldrb.w	r2, [sp, #50]	; 0x32
     bd0:	06d0      	lsls	r0, r2, #27
     bd2:	d568      	bpl.n	ca6 <CONFIG_ISR_STACK_SIZE+0x4a6>
			nj_len += 2U;
     bd4:	3302      	adds	r3, #2
		if (conv->pad_fp) {
     bd6:	0652      	lsls	r2, r2, #25
		nj_len += conv->pad0_value;
     bd8:	990d      	ldr	r1, [sp, #52]	; 0x34
			nj_len += conv->pad0_pre_exp;
     bda:	bf48      	it	mi
     bdc:	9a0e      	ldrmi	r2, [sp, #56]	; 0x38
		nj_len += conv->pad0_value;
     bde:	440b      	add	r3, r1
			nj_len += conv->pad0_pre_exp;
     be0:	bf48      	it	mi
     be2:	189b      	addmi	r3, r3, r2
		if (width > 0) {
     be4:	f1b9 0f00 	cmp.w	r9, #0
     be8:	dd76      	ble.n	cd8 <CONFIG_ISR_STACK_SIZE+0x4d8>
			if (!conv->flag_dash) {
     bea:	f89d 2030 	ldrb.w	r2, [sp, #48]	; 0x30
			width -= (int)nj_len;
     bee:	eba9 0903 	sub.w	r9, r9, r3
			if (!conv->flag_dash) {
     bf2:	f3c2 0380 	ubfx	r3, r2, #2, #1
     bf6:	9303      	str	r3, [sp, #12]
     bf8:	0753      	lsls	r3, r2, #29
     bfa:	d46d      	bmi.n	cd8 <CONFIG_ISR_STACK_SIZE+0x4d8>
				if (conv->flag_zero) {
     bfc:	0650      	lsls	r0, r2, #25
     bfe:	d561      	bpl.n	cc4 <CONFIG_ISR_STACK_SIZE+0x4c4>
					if (sign != 0) {
     c00:	b146      	cbz	r6, c14 <CONFIG_ISR_STACK_SIZE+0x414>
						OUTC(sign);
     c02:	9b02      	ldr	r3, [sp, #8]
     c04:	4659      	mov	r1, fp
     c06:	4630      	mov	r0, r6
     c08:	4798      	blx	r3
     c0a:	2800      	cmp	r0, #0
     c0c:	db57      	blt.n	cbe <CONFIG_ISR_STACK_SIZE+0x4be>
						sign = 0;
     c0e:	9b03      	ldr	r3, [sp, #12]
						OUTC(sign);
     c10:	3501      	adds	r5, #1
						sign = 0;
     c12:	461e      	mov	r6, r3
					pad = '0';
     c14:	2330      	movs	r3, #48	; 0x30
     c16:	e056      	b.n	cc6 <CONFIG_ISR_STACK_SIZE+0x4c6>
			if (conv->flag_plus) {
     c18:	071e      	lsls	r6, r3, #28
     c1a:	d40f      	bmi.n	c3c <CONFIG_ISR_STACK_SIZE+0x43c>
				sign = ' ';
     c1c:	f013 0610 	ands.w	r6, r3, #16
     c20:	bf18      	it	ne
     c22:	2620      	movne	r6, #32
			sint = value->sint;
     c24:	e9dd 230a 	ldrd	r2, r3, [sp, #40]	; 0x28
			if (sint < 0) {
     c28:	2b00      	cmp	r3, #0
     c2a:	f6bf af5f 	bge.w	aec <CONFIG_ISR_STACK_SIZE+0x2ec>
				value->uint = (uint_value_type)-sint;
     c2e:	4252      	negs	r2, r2
     c30:	eb63 0343 	sbc.w	r3, r3, r3, lsl #1
     c34:	e9cd 230a 	strd	r2, r3, [sp, #40]	; 0x28
				sign = '-';
     c38:	262d      	movs	r6, #45	; 0x2d
     c3a:	e757      	b.n	aec <CONFIG_ISR_STACK_SIZE+0x2ec>
				sign = '+';
     c3c:	262b      	movs	r6, #43	; 0x2b
     c3e:	e7f1      	b.n	c24 <CONFIG_ISR_STACK_SIZE+0x424>
		switch (conv->specifier) {
     c40:	2600      	movs	r6, #0
     c42:	e753      	b.n	aec <CONFIG_ISR_STACK_SIZE+0x2ec>
			if (value->ptr != NULL) {
     c44:	980a      	ldr	r0, [sp, #40]	; 0x28
     c46:	b340      	cbz	r0, c9a <CONFIG_ISR_STACK_SIZE+0x49a>
				bps = encode_uint((uintptr_t)value->ptr, conv,
     c48:	f10d 0326 	add.w	r3, sp, #38	; 0x26
     c4c:	9300      	str	r3, [sp, #0]
     c4e:	aa0c      	add	r2, sp, #48	; 0x30
     c50:	ab04      	add	r3, sp, #16
     c52:	2100      	movs	r1, #0
     c54:	f003 fd79 	bl	474a <encode_uint>
				conv->altform_0c = true;
     c58:	f8bd 3032 	ldrh.w	r3, [sp, #50]	; 0x32
     c5c:	f003 03ef 	and.w	r3, r3, #239	; 0xef
     c60:	f443 43f0 	orr.w	r3, r3, #30720	; 0x7800
     c64:	f043 0310 	orr.w	r3, r3, #16
				bps = encode_uint((uintptr_t)value->ptr, conv,
     c68:	4682      	mov	sl, r0
				conv->altform_0c = true;
     c6a:	f8ad 3032 	strh.w	r3, [sp, #50]	; 0x32
		char sign = 0;
     c6e:	2600      	movs	r6, #0
				goto prec_int_pad0;
     c70:	e746      	b.n	b00 <CONFIG_ISR_STACK_SIZE+0x300>
				store_count(conv, value->ptr, count);
     c72:	9b0a      	ldr	r3, [sp, #40]	; 0x28
	switch ((enum length_mod_enum)conv->length_mod) {
     c74:	2907      	cmp	r1, #7
     c76:	f63f aee1 	bhi.w	a3c <CONFIG_ISR_STACK_SIZE+0x23c>
     c7a:	e8df f001 	tbb	[pc, r1]
     c7e:	040c      	.short	0x040c
     c80:	08080c06 	.word	0x08080c06
     c84:	0c0c      	.short	0x0c0c
		*(signed char *)dp = (signed char)count;
     c86:	701d      	strb	r5, [r3, #0]
		break;
     c88:	e6d8      	b.n	a3c <CONFIG_ISR_STACK_SIZE+0x23c>
		*(short *)dp = (short)count;
     c8a:	801d      	strh	r5, [r3, #0]
		break;
     c8c:	e6d6      	b.n	a3c <CONFIG_ISR_STACK_SIZE+0x23c>
		*(intmax_t *)dp = (intmax_t)count;
     c8e:	17ea      	asrs	r2, r5, #31
     c90:	e9c3 5200 	strd	r5, r2, [r3]
		break;
     c94:	e6d2      	b.n	a3c <CONFIG_ISR_STACK_SIZE+0x23c>
		*(ptrdiff_t *)dp = (ptrdiff_t)count;
     c96:	601d      	str	r5, [r3, #0]
		break;
     c98:	e6d0      	b.n	a3c <CONFIG_ISR_STACK_SIZE+0x23c>
			bps = "(nil)";
     c9a:	f8df a0c8 	ldr.w	sl, [pc, #200]	; d64 <CONFIG_ISR_STACK_SIZE+0x564>
     c9e:	4606      	mov	r6, r0
			bpe = bps + 5;
     ca0:	f10a 0805 	add.w	r8, sl, #5
     ca4:	e78e      	b.n	bc4 <CONFIG_ISR_STACK_SIZE+0x3c4>
		} else if (conv->altform_0) {
     ca6:	0711      	lsls	r1, r2, #28
			nj_len += 1U;
     ca8:	bf48      	it	mi
     caa:	3301      	addmi	r3, #1
     cac:	e793      	b.n	bd6 <CONFIG_ISR_STACK_SIZE+0x3d6>
					OUTC(pad);
     cae:	4618      	mov	r0, r3
     cb0:	9303      	str	r3, [sp, #12]
     cb2:	4659      	mov	r1, fp
     cb4:	9b02      	ldr	r3, [sp, #8]
     cb6:	4798      	blx	r3
     cb8:	2800      	cmp	r0, #0
     cba:	9b03      	ldr	r3, [sp, #12]
     cbc:	da04      	bge.n	cc8 <CONFIG_ISR_STACK_SIZE+0x4c8>
#undef OUTS
#undef OUTC
}
     cbe:	b011      	add	sp, #68	; 0x44
     cc0:	e8bd 8ff0 	ldmia.w	sp!, {r4, r5, r6, r7, r8, r9, sl, fp, pc}
				char pad = ' ';
     cc4:	2320      	movs	r3, #32
     cc6:	444d      	add	r5, r9
     cc8:	464a      	mov	r2, r9
				while (width-- > 0) {
     cca:	2a00      	cmp	r2, #0
     ccc:	eba5 0109 	sub.w	r1, r5, r9
     cd0:	f109 39ff 	add.w	r9, r9, #4294967295	; 0xffffffff
     cd4:	dceb      	bgt.n	cae <CONFIG_ISR_STACK_SIZE+0x4ae>
     cd6:	460d      	mov	r5, r1
		if (sign != 0) {
     cd8:	b136      	cbz	r6, ce8 <CONFIG_ISR_STACK_SIZE+0x4e8>
			OUTC(sign);
     cda:	9b02      	ldr	r3, [sp, #8]
     cdc:	4659      	mov	r1, fp
     cde:	4630      	mov	r0, r6
     ce0:	4798      	blx	r3
     ce2:	2800      	cmp	r0, #0
     ce4:	dbeb      	blt.n	cbe <CONFIG_ISR_STACK_SIZE+0x4be>
     ce6:	3501      	adds	r5, #1
			if (conv->altform_0c | conv->altform_0) {
     ce8:	f89d 3032 	ldrb.w	r3, [sp, #50]	; 0x32
     cec:	06d9      	lsls	r1, r3, #27
     cee:	d401      	bmi.n	cf4 <CONFIG_ISR_STACK_SIZE+0x4f4>
     cf0:	071a      	lsls	r2, r3, #28
     cf2:	d506      	bpl.n	d02 <CONFIG_ISR_STACK_SIZE+0x502>
				OUTC('0');
     cf4:	9b02      	ldr	r3, [sp, #8]
     cf6:	4659      	mov	r1, fp
     cf8:	2030      	movs	r0, #48	; 0x30
     cfa:	4798      	blx	r3
     cfc:	2800      	cmp	r0, #0
     cfe:	dbde      	blt.n	cbe <CONFIG_ISR_STACK_SIZE+0x4be>
     d00:	3501      	adds	r5, #1
			if (conv->altform_0c) {
     d02:	f89d 3032 	ldrb.w	r3, [sp, #50]	; 0x32
     d06:	06db      	lsls	r3, r3, #27
     d08:	d507      	bpl.n	d1a <CONFIG_ISR_STACK_SIZE+0x51a>
				OUTC(conv->specifier);
     d0a:	f89d 0033 	ldrb.w	r0, [sp, #51]	; 0x33
     d0e:	9b02      	ldr	r3, [sp, #8]
     d10:	4659      	mov	r1, fp
     d12:	4798      	blx	r3
     d14:	2800      	cmp	r0, #0
     d16:	dbd2      	blt.n	cbe <CONFIG_ISR_STACK_SIZE+0x4be>
     d18:	3501      	adds	r5, #1
			while (pad_len-- > 0) {
     d1a:	9e0d      	ldr	r6, [sp, #52]	; 0x34
     d1c:	442e      	add	r6, r5
     d1e:	1b73      	subs	r3, r6, r5
     d20:	2b00      	cmp	r3, #0
     d22:	dc16      	bgt.n	d52 <CONFIG_ISR_STACK_SIZE+0x552>
			OUTS(bps, bpe);
     d24:	9802      	ldr	r0, [sp, #8]
     d26:	4643      	mov	r3, r8
     d28:	4652      	mov	r2, sl
     d2a:	4659      	mov	r1, fp
     d2c:	f003 fd53 	bl	47d6 <outs>
     d30:	2800      	cmp	r0, #0
     d32:	dbc4      	blt.n	cbe <CONFIG_ISR_STACK_SIZE+0x4be>
     d34:	4405      	add	r5, r0
		while (width > 0) {
     d36:	44a9      	add	r9, r5
     d38:	eba9 0305 	sub.w	r3, r9, r5
     d3c:	2b00      	cmp	r3, #0
     d3e:	f77f ae7d 	ble.w	a3c <CONFIG_ISR_STACK_SIZE+0x23c>
			OUTC(' ');
     d42:	9b02      	ldr	r3, [sp, #8]
     d44:	4659      	mov	r1, fp
     d46:	2020      	movs	r0, #32
     d48:	4798      	blx	r3
     d4a:	2800      	cmp	r0, #0
     d4c:	dbb7      	blt.n	cbe <CONFIG_ISR_STACK_SIZE+0x4be>
     d4e:	3501      	adds	r5, #1
			--width;
     d50:	e7f2      	b.n	d38 <CONFIG_ISR_STACK_SIZE+0x538>
				OUTC('0');
     d52:	9b02      	ldr	r3, [sp, #8]
     d54:	4659      	mov	r1, fp
     d56:	2030      	movs	r0, #48	; 0x30
     d58:	4798      	blx	r3
     d5a:	2800      	cmp	r0, #0
     d5c:	dbaf      	blt.n	cbe <CONFIG_ISR_STACK_SIZE+0x4be>
     d5e:	3501      	adds	r5, #1
     d60:	e7dd      	b.n	d1e <CONFIG_ISR_STACK_SIZE+0x51e>
     d62:	bf00      	nop
     d64:	00005611 	.word	0x00005611

00000d68 <sys_reboot>:
#include <sys/printk.h>

extern void sys_arch_reboot(int type);

FUNC_NORETURN void sys_reboot(int type)
{
     d68:	b508      	push	{r3, lr}
     d6a:	f04f 0220 	mov.w	r2, #32
     d6e:	f3ef 8311 	mrs	r3, BASEPRI
     d72:	f382 8812 	msr	BASEPRI_MAX, r2
     d76:	f3bf 8f6f 	isb	sy
	(void)irq_lock();
	sys_clock_disable();

	sys_arch_reboot(type);
     d7a:	f000 fdfb 	bl	1974 <sys_arch_reboot>

	/* should never get here */
	printk("Failed to reboot: spinning endlessly...\n");
     d7e:	4803      	ldr	r0, [pc, #12]	; (d8c <sys_reboot+0x24>)
     d80:	f003 fc21 	bl	45c6 <printk>
 * @note In some architectures, before returning, the function unmasks interrupts
 * unconditionally.
 */
static inline void k_cpu_idle(void)
{
	arch_cpu_idle();
     d84:	f000 fa32 	bl	11ec <arch_cpu_idle>
     d88:	e7fc      	b.n	d84 <sys_reboot+0x1c>
     d8a:	bf00      	nop
     d8c:	00005617 	.word	0x00005617

00000d90 <pm_state_notify>:
/*
 * Function called to notify when the system is entering / exiting a
 * power state
 */
static inline void pm_state_notify(bool entering_state)
{
     d90:	e92d 43f8 	stmdb	sp!, {r3, r4, r5, r6, r7, r8, r9, lr}
     d94:	4605      	mov	r5, r0
     d96:	f04f 0320 	mov.w	r3, #32
     d9a:	f3ef 8611 	mrs	r6, BASEPRI
     d9e:	f383 8812 	msr	BASEPRI_MAX, r3
     da2:	f3bf 8f6f 	isb	sy
	return list->head;
     da6:	4b0e      	ldr	r3, [pc, #56]	; (de0 <pm_state_notify+0x50>)
     da8:	681c      	ldr	r4, [r3, #0]
	struct pm_notifier *notifier;
	k_spinlock_key_t pm_notifier_key;
	void (*callback)(enum pm_state state);

	pm_notifier_key = k_spin_lock(&pm_notifier_lock);
	SYS_SLIST_FOR_EACH_CONTAINER(&pm_notifiers, notifier, _node) {
     daa:	b19c      	cbz	r4, dd4 <pm_state_notify+0x44>
		} else {
			callback = notifier->state_exit;
		}

		if (callback) {
			callback(z_cpus_pm_state[_current_cpu->id].state);
     dac:	4f0d      	ldr	r7, [pc, #52]	; (de4 <pm_state_notify+0x54>)
     dae:	f8df 8038 	ldr.w	r8, [pc, #56]	; de8 <pm_state_notify+0x58>
     db2:	f04f 090c 	mov.w	r9, #12
			callback = notifier->state_exit;
     db6:	e9d4 3201 	ldrd	r3, r2, [r4, #4]
     dba:	2d00      	cmp	r5, #0
     dbc:	bf08      	it	eq
     dbe:	4613      	moveq	r3, r2
		if (callback) {
     dc0:	b12b      	cbz	r3, dce <pm_state_notify+0x3e>
			callback(z_cpus_pm_state[_current_cpu->id].state);
     dc2:	f898 2014 	ldrb.w	r2, [r8, #20]
     dc6:	fb09 f202 	mul.w	r2, r9, r2
     dca:	5cb8      	ldrb	r0, [r7, r2]
     dcc:	4798      	blx	r3
	return node->next;
     dce:	6824      	ldr	r4, [r4, #0]
	SYS_SLIST_FOR_EACH_CONTAINER(&pm_notifiers, notifier, _node) {
     dd0:	2c00      	cmp	r4, #0
     dd2:	d1f0      	bne.n	db6 <pm_state_notify+0x26>
	__asm__ volatile(
     dd4:	f386 8811 	msr	BASEPRI, r6
     dd8:	f3bf 8f6f 	isb	sy
		}
	}
	k_spin_unlock(&pm_notifier_lock, pm_notifier_key);
}
     ddc:	e8bd 83f8 	ldmia.w	sp!, {r3, r4, r5, r6, r7, r8, r9, pc}
     de0:	200002d0 	.word	0x200002d0
     de4:	200002d8 	.word	0x200002d8
     de8:	20000970 	.word	0x20000970

00000dec <atomic_clear_bit.constprop.0>:
 */
static inline void atomic_clear_bit(atomic_t *target, int bit)
{
	atomic_val_t mask = ATOMIC_MASK(bit);

	(void)atomic_and(ATOMIC_ELEM(target, bit), ~mask);
     dec:	0942      	lsrs	r2, r0, #5
	atomic_val_t mask = ATOMIC_MASK(bit);
     dee:	2301      	movs	r3, #1
     df0:	f000 001f 	and.w	r0, r0, #31
     df4:	fa03 f000 	lsl.w	r0, r3, r0
 *
 * @return Previous value of @a target.
 */
static inline atomic_val_t atomic_and(atomic_t *target, atomic_val_t value)
{
	return __atomic_fetch_and(target, value, __ATOMIC_SEQ_CST);
     df8:	4b07      	ldr	r3, [pc, #28]	; (e18 <atomic_clear_bit.constprop.0+0x2c>)
     dfa:	f3bf 8f5b 	dmb	ish
	(void)atomic_and(ATOMIC_ELEM(target, bit), ~mask);
     dfe:	43c0      	mvns	r0, r0
     e00:	eb03 0382 	add.w	r3, r3, r2, lsl #2
     e04:	e853 2f00 	ldrex	r2, [r3]
     e08:	4002      	ands	r2, r0
     e0a:	e843 2100 	strex	r1, r2, [r3]
     e0e:	2900      	cmp	r1, #0
     e10:	d1f8      	bne.n	e04 <atomic_clear_bit.constprop.0+0x18>
     e12:	f3bf 8f5b 	dmb	ish
}
     e16:	4770      	bx	lr
     e18:	200002e4 	.word	0x200002e4

00000e1c <pm_system_resume>:

void pm_system_resume(void)
{
     e1c:	b538      	push	{r3, r4, r5, lr}
	uint8_t id = _current_cpu->id;
     e1e:	4b1a      	ldr	r3, [pc, #104]	; (e88 <pm_system_resume+0x6c>)
     e20:	7d1c      	ldrb	r4, [r3, #20]
     e22:	f3bf 8f5b 	dmb	ish
	atomic_val_t mask = ATOMIC_MASK(bit);
     e26:	f004 031f 	and.w	r3, r4, #31
     e2a:	2201      	movs	r2, #1
     e2c:	409a      	lsls	r2, r3
     e2e:	4b17      	ldr	r3, [pc, #92]	; (e8c <pm_system_resume+0x70>)
	old = atomic_and(ATOMIC_ELEM(target, bit), ~mask);
     e30:	0961      	lsrs	r1, r4, #5
     e32:	43d0      	mvns	r0, r2
     e34:	eb03 0381 	add.w	r3, r3, r1, lsl #2
     e38:	e853 1f00 	ldrex	r1, [r3]
     e3c:	ea01 0500 	and.w	r5, r1, r0
     e40:	e843 5c00 	strex	ip, r5, [r3]
     e44:	f1bc 0f00 	cmp.w	ip, #0
     e48:	d1f6      	bne.n	e38 <pm_system_resume+0x1c>
     e4a:	f3bf 8f5b 	dmb	ish
	 * that caused the wake. This hook will be called from the ISR.
	 * For such CPU LPS states, do post operations and restores here.
	 * The kernel scheduler will get control after the ISR finishes
	 * and it may schedule another thread.
	 */
	if (atomic_test_and_clear_bit(z_post_ops_required, id)) {
     e4e:	4211      	tst	r1, r2
     e50:	d013      	beq.n	e7a <pm_system_resume+0x5e>
	if (pm_state_exit_post_ops != NULL) {
     e52:	4b0f      	ldr	r3, [pc, #60]	; (e90 <pm_system_resume+0x74>)
     e54:	4d0f      	ldr	r5, [pc, #60]	; (e94 <pm_system_resume+0x78>)
     e56:	b18b      	cbz	r3, e7c <pm_system_resume+0x60>
		pm_state_exit_post_ops(info->state, info->substate_id);
     e58:	230c      	movs	r3, #12
     e5a:	4363      	muls	r3, r4
     e5c:	18ea      	adds	r2, r5, r3
     e5e:	5ce8      	ldrb	r0, [r5, r3]
     e60:	7851      	ldrb	r1, [r2, #1]
     e62:	f003 fd21 	bl	48a8 <pm_state_exit_post_ops>
		pm_exit_pos_ops(&z_cpus_pm_state[id]);
		pm_state_notify(false);
     e66:	2000      	movs	r0, #0
     e68:	f7ff ff92 	bl	d90 <pm_state_notify>
		z_cpus_pm_state[id] = (struct pm_state_info){PM_STATE_ACTIVE,
     e6c:	230c      	movs	r3, #12
     e6e:	435c      	muls	r4, r3
     e70:	192a      	adds	r2, r5, r4
     e72:	2300      	movs	r3, #0
     e74:	512b      	str	r3, [r5, r4]
     e76:	e9c2 3301 	strd	r3, r3, [r2, #4]
			0, 0};
	}
}
     e7a:	bd38      	pop	{r3, r4, r5, pc}
     e7c:	f383 8811 	msr	BASEPRI, r3
     e80:	f3bf 8f6f 	isb	sy
		"cpsie i;"
		: : : "memory", "cc");
#else
#error Unknown ARM architecture
#endif /* CONFIG_ARMV6_M_ARMV8_M_BASELINE */
}
     e84:	e7ef      	b.n	e66 <pm_system_resume+0x4a>
     e86:	bf00      	nop
     e88:	20000970 	.word	0x20000970
     e8c:	200002e8 	.word	0x200002e8
     e90:	000048a9 	.word	0x000048a9
     e94:	200002d8 	.word	0x200002d8

00000e98 <pm_system_suspend>:

	return ret;
}

bool pm_system_suspend(int32_t ticks)
{
     e98:	e92d 43f8 	stmdb	sp!, {r3, r4, r5, r6, r7, r8, r9, lr}
	bool ret = true;
	uint8_t id = _current_cpu->id;
     e9c:	4b32      	ldr	r3, [pc, #200]	; (f68 <pm_system_suspend+0xd0>)
	return __atomic_load_n(target, __ATOMIC_SEQ_CST);
     e9e:	4a33      	ldr	r2, [pc, #204]	; (f6c <pm_system_suspend+0xd4>)
     ea0:	7d1c      	ldrb	r4, [r3, #20]
     ea2:	f3bf 8f5b 	dmb	ish
	atomic_val_t val = atomic_get(ATOMIC_ELEM(target, bit));
     ea6:	0963      	lsrs	r3, r4, #5
     ea8:	ea4f 0983 	mov.w	r9, r3, lsl #2
     eac:	f852 3023 	ldr.w	r3, [r2, r3, lsl #2]
     eb0:	4e2f      	ldr	r6, [pc, #188]	; (f70 <pm_system_suspend+0xd8>)
     eb2:	f3bf 8f5b 	dmb	ish
	return (1 & (val >> (bit & (ATOMIC_BITS - 1)))) != 0;
     eb6:	f004 081f 	and.w	r8, r4, #31
     eba:	fa43 f308 	asr.w	r3, r3, r8

	SYS_PORT_TRACING_FUNC_ENTER(pm, system_suspend, ticks);

	if (!atomic_test_bit(z_cpus_pm_state_forced, id)) {
     ebe:	f013 0f01 	tst.w	r3, #1
{
     ec2:	4607      	mov	r7, r0
	if (!atomic_test_bit(z_cpus_pm_state_forced, id)) {
     ec4:	d10a      	bne.n	edc <pm_system_suspend+0x44>
		const struct pm_state_info *info;

		info = pm_policy_next_state(id, ticks);
     ec6:	4601      	mov	r1, r0
     ec8:	4620      	mov	r0, r4
     eca:	f000 f869 	bl	fa0 <pm_policy_next_state>
		if (info != NULL) {
     ece:	b128      	cbz	r0, edc <pm_system_suspend+0x44>
			z_cpus_pm_state[id] = *info;
     ed0:	c807      	ldmia	r0, {r0, r1, r2}
     ed2:	230c      	movs	r3, #12
     ed4:	fb03 6304 	mla	r3, r3, r4, r6
     ed8:	e883 0007 	stmia.w	r3, {r0, r1, r2}
		}
	}

	if (z_cpus_pm_state[id].state == PM_STATE_ACTIVE) {
     edc:	230c      	movs	r3, #12
     ede:	4363      	muls	r3, r4
     ee0:	18f2      	adds	r2, r6, r3
     ee2:	5cf5      	ldrb	r5, [r6, r3]
     ee4:	b92d      	cbnz	r5, ef2 <pm_system_suspend+0x5a>
		LOG_DBG("No PM operations done.");
		SYS_PORT_TRACING_FUNC_EXIT(pm, system_suspend, ticks,
				   z_cpus_pm_state[id].state);
		ret = false;
		atomic_clear_bit(z_cpus_pm_state_forced, id);
     ee6:	4620      	mov	r0, r4
     ee8:	f7ff ff80 	bl	dec <atomic_clear_bit.constprop.0>
		ret = false;
     eec:	4628      	mov	r0, r5
	SYS_PORT_TRACING_FUNC_EXIT(pm, system_suspend, ticks,
				   z_cpus_pm_state[id].state);

end:
	return ret;
}
     eee:	e8bd 83f8 	ldmia.w	sp!, {r3, r4, r5, r6, r7, r8, r9, pc}
	if (ticks != K_TICKS_FOREVER) {
     ef2:	1c7b      	adds	r3, r7, #1
     ef4:	d00f      	beq.n	f16 <pm_system_suspend+0x7e>
		} else {
			return t * ((uint64_t)to_hz / from_hz);
		}
	} else {
		if (result32) {
			return (uint32_t)((t * to_hz + off) / from_hz);
     ef6:	f8d2 c008 	ldr.w	ip, [r2, #8]
     efa:	481e      	ldr	r0, [pc, #120]	; (f74 <pm_system_suspend+0xdc>)
     efc:	4a1e      	ldr	r2, [pc, #120]	; (f78 <pm_system_suspend+0xe0>)
     efe:	f44f 4500 	mov.w	r5, #32768	; 0x8000
     f02:	2100      	movs	r1, #0
     f04:	2300      	movs	r3, #0
     f06:	fbec 0105 	umlal	r0, r1, ip, r5
     f0a:	f7ff f8f9 	bl	100 <__aeabi_uldivmod>
		z_set_timeout_expiry(ticks -
     f0e:	2101      	movs	r1, #1
     f10:	1a38      	subs	r0, r7, r0
     f12:	f004 f90e 	bl	5132 <z_set_timeout_expiry>
	k_sched_lock();
     f16:	f002 fd0f 	bl	3938 <k_sched_lock>
	pm_state_notify(true);
     f1a:	2001      	movs	r0, #1
     f1c:	f7ff ff38 	bl	d90 <pm_state_notify>
	return __atomic_fetch_or(target, value, __ATOMIC_SEQ_CST);
     f20:	f3bf 8f5b 	dmb	ish
 * @param target Address of atomic variable or array.
 * @param bit Bit number (starting from 0).
 */
static inline void atomic_set_bit(atomic_t *target, int bit)
{
	atomic_val_t mask = ATOMIC_MASK(bit);
     f24:	2301      	movs	r3, #1
     f26:	fa03 f808 	lsl.w	r8, r3, r8
     f2a:	4b14      	ldr	r3, [pc, #80]	; (f7c <pm_system_suspend+0xe4>)
     f2c:	4499      	add	r9, r3
     f2e:	e859 3f00 	ldrex	r3, [r9]
     f32:	ea43 0308 	orr.w	r3, r3, r8
     f36:	e849 3200 	strex	r2, r3, [r9]
     f3a:	2a00      	cmp	r2, #0
     f3c:	d1f7      	bne.n	f2e <pm_system_suspend+0x96>
     f3e:	f3bf 8f5b 	dmb	ish
	if (pm_state_set != NULL) {
     f42:	4b0f      	ldr	r3, [pc, #60]	; (f80 <pm_system_suspend+0xe8>)
     f44:	b133      	cbz	r3, f54 <pm_system_suspend+0xbc>
		pm_state_set(info->state, info->substate_id);
     f46:	230c      	movs	r3, #12
     f48:	4363      	muls	r3, r4
     f4a:	18f2      	adds	r2, r6, r3
     f4c:	5cf0      	ldrb	r0, [r6, r3]
     f4e:	7851      	ldrb	r1, [r2, #1]
     f50:	f003 fc9e 	bl	4890 <pm_state_set>
	pm_system_resume();
     f54:	f7ff ff62 	bl	e1c <pm_system_resume>
	atomic_clear_bit(z_cpus_pm_state_forced, id);
     f58:	4620      	mov	r0, r4
     f5a:	f7ff ff47 	bl	dec <atomic_clear_bit.constprop.0>
	k_sched_unlock();
     f5e:	f002 febb 	bl	3cd8 <k_sched_unlock>
	bool ret = true;
     f62:	2001      	movs	r0, #1
     f64:	e7c3      	b.n	eee <pm_system_suspend+0x56>
     f66:	bf00      	nop
     f68:	20000970 	.word	0x20000970
     f6c:	200002e4 	.word	0x200002e4
     f70:	200002d8 	.word	0x200002d8
     f74:	000f423f 	.word	0x000f423f
     f78:	000f4240 	.word	0x000f4240
     f7c:	200002e8 	.word	0x200002e8
     f80:	00004891 	.word	0x00004891

00000f84 <pm_policy_state_lock_is_active>:
	return __atomic_load_n(target, __ATOMIC_SEQ_CST);
     f84:	4b05      	ldr	r3, [pc, #20]	; (f9c <pm_policy_state_lock_is_active+0x18>)
     f86:	f3bf 8f5b 	dmb	ish
     f8a:	f853 0020 	ldr.w	r0, [r3, r0, lsl #2]
     f8e:	f3bf 8f5b 	dmb	ish
}

bool pm_policy_state_lock_is_active(enum pm_state state)
{
	return (atomic_get(&state_lock_cnt[state]) != 0);
}
     f92:	3800      	subs	r0, #0
     f94:	bf18      	it	ne
     f96:	2001      	movne	r0, #1
     f98:	4770      	bx	lr
     f9a:	bf00      	nop
     f9c:	200002ec 	.word	0x200002ec

00000fa0 <pm_policy_next_state>:
{
     fa0:	e92d 4ff0 	stmdb	sp!, {r4, r5, r6, r7, r8, r9, sl, fp, lr}
     fa4:	b085      	sub	sp, #20
     fa6:	460f      	mov	r7, r1
	num_cpu_states = pm_state_cpu_get_all(cpu, &cpu_states);
     fa8:	a903      	add	r1, sp, #12
     faa:	f000 f847 	bl	103c <pm_state_cpu_get_all>
     fae:	f8df 8080 	ldr.w	r8, [pc, #128]	; 1030 <CONFIG_FPROTECT_BLOCK_SIZE+0x30>
     fb2:	f8df a080 	ldr.w	sl, [pc, #128]	; 1034 <CONFIG_FPROTECT_BLOCK_SIZE+0x34>
	for (int16_t i = (int16_t)num_cpu_states - 1; i >= 0; i--) {
     fb6:	1e44      	subs	r4, r0, #1
     fb8:	b224      	sxth	r4, r4
     fba:	f04f 0b00 	mov.w	fp, #0
     fbe:	1c63      	adds	r3, r4, #1
     fc0:	d104      	bne.n	fcc <pm_policy_next_state+0x2c>
	return NULL;
     fc2:	2600      	movs	r6, #0
}
     fc4:	4630      	mov	r0, r6
     fc6:	b005      	add	sp, #20
     fc8:	e8bd 8ff0 	ldmia.w	sp!, {r4, r5, r6, r7, r8, r9, sl, fp, pc}
		const struct pm_state_info *state = &cpu_states[i];
     fcc:	9a03      	ldr	r2, [sp, #12]
     fce:	eb04 0344 	add.w	r3, r4, r4, lsl #1
     fd2:	eb02 0683 	add.w	r6, r2, r3, lsl #2
		if (pm_policy_state_lock_is_active(state->state)) {
     fd6:	f812 0023 	ldrb.w	r0, [r2, r3, lsl #2]
     fda:	f7ff ffd3 	bl	f84 <pm_policy_state_lock_is_active>
     fde:	4605      	mov	r5, r0
     fe0:	bb10      	cbnz	r0, 1028 <CONFIG_FPROTECT_BLOCK_SIZE+0x28>
     fe2:	6870      	ldr	r0, [r6, #4]
     fe4:	f44f 4900 	mov.w	r9, #32768	; 0x8000
     fe8:	46c4      	mov	ip, r8
     fea:	4629      	mov	r1, r5
     fec:	fbe0 c109 	umlal	ip, r1, r0, r9
     ff0:	4652      	mov	r2, sl
     ff2:	465b      	mov	r3, fp
     ff4:	4660      	mov	r0, ip
     ff6:	f7ff f883 	bl	100 <__aeabi_uldivmod>
     ffa:	9001      	str	r0, [sp, #4]
     ffc:	68b0      	ldr	r0, [r6, #8]
     ffe:	46c4      	mov	ip, r8
    1000:	4629      	mov	r1, r5
    1002:	fbe0 c109 	umlal	ip, r1, r0, r9
    1006:	465b      	mov	r3, fp
    1008:	4652      	mov	r2, sl
    100a:	4660      	mov	r0, ip
    100c:	f7ff f878 	bl	100 <__aeabi_uldivmod>
		if ((max_latency_ticks != K_TICKS_FOREVER) &&
    1010:	4b09      	ldr	r3, [pc, #36]	; (1038 <CONFIG_FPROTECT_BLOCK_SIZE+0x38>)
    1012:	681b      	ldr	r3, [r3, #0]
    1014:	1c59      	adds	r1, r3, #1
    1016:	d001      	beq.n	101c <CONFIG_FPROTECT_BLOCK_SIZE+0x1c>
    1018:	4283      	cmp	r3, r0
    101a:	d905      	bls.n	1028 <CONFIG_FPROTECT_BLOCK_SIZE+0x28>
		if ((ticks == K_TICKS_FOREVER) ||
    101c:	1c7a      	adds	r2, r7, #1
    101e:	d0d1      	beq.n	fc4 <pm_policy_next_state+0x24>
		    (ticks >= (min_residency + exit_latency))) {
    1020:	9b01      	ldr	r3, [sp, #4]
    1022:	4418      	add	r0, r3
		if ((ticks == K_TICKS_FOREVER) ||
    1024:	42b8      	cmp	r0, r7
    1026:	d9cd      	bls.n	fc4 <pm_policy_next_state+0x24>
	for (int16_t i = (int16_t)num_cpu_states - 1; i >= 0; i--) {
    1028:	3c01      	subs	r4, #1
    102a:	b224      	sxth	r4, r4
    102c:	e7c7      	b.n	fbe <pm_policy_next_state+0x1e>
    102e:	bf00      	nop
    1030:	000f423f 	.word	0x000f423f
    1034:	000f4240 	.word	0x000f4240
    1038:	20000004 	.word	0x20000004

0000103c <pm_state_cpu_get_all>:
	DT_FOREACH_CHILD(DT_PATH(cpus), NUM_CPU_STATES)
};

uint8_t pm_state_cpu_get_all(uint8_t cpu, const struct pm_state_info **states)
{
	if (cpu >= ARRAY_SIZE(cpus_states)) {
    103c:	b908      	cbnz	r0, 1042 <pm_state_cpu_get_all+0x6>
		return 0;
	}

	*states = cpus_states[cpu];
    103e:	4b02      	ldr	r3, [pc, #8]	; (1048 <pm_state_cpu_get_all+0xc>)
    1040:	600b      	str	r3, [r1, #0]

	return states_per_cpu[cpu];
}
    1042:	2000      	movs	r0, #0
    1044:	4770      	bx	lr
    1046:	bf00      	nop
    1048:	00005408 	.word	0x00005408

0000104c <nrf_cc3xx_platform_abort_init>:

/** @brief Function to initialize the nrf_cc3xx_platform abort APIs.
 */
void nrf_cc3xx_platform_abort_init(void)
{
	nrf_cc3xx_platform_set_abort(&apis);
    104c:	4801      	ldr	r0, [pc, #4]	; (1054 <nrf_cc3xx_platform_abort_init+0x8>)
    104e:	f003 b90b 	b.w	4268 <nrf_cc3xx_platform_set_abort>
    1052:	bf00      	nop
    1054:	00005408 	.word	0x00005408

00001058 <mutex_free_platform>:
}


/** @brief Static function to free a mutex
 */
static void mutex_free_platform(nrf_cc3xx_platform_mutex_t *mutex) {
    1058:	b510      	push	{r4, lr}
    /* Ensure that the mutex is valid (not NULL) */
    if (mutex == NULL) {
    105a:	4604      	mov	r4, r0
    105c:	b918      	cbnz	r0, 1066 <mutex_free_platform+0xe>
        platform_abort_apis.abort_fn(
    105e:	4b0d      	ldr	r3, [pc, #52]	; (1094 <mutex_free_platform+0x3c>)
    1060:	480d      	ldr	r0, [pc, #52]	; (1098 <mutex_free_platform+0x40>)
    1062:	685b      	ldr	r3, [r3, #4]
    1064:	4798      	blx	r3
            "mutex_init called with NULL parameter");
    }

    /* Check if we are freeing a mutex that is atomic */
    if (mutex->flags == NRF_CC3XX_PLATFORM_MUTEX_MASK_IS_ATOMIC ||
    1066:	6861      	ldr	r1, [r4, #4]
    1068:	2908      	cmp	r1, #8
    106a:	d00d      	beq.n	1088 <mutex_free_platform+0x30>
        /*Nothing to free*/
        return;
    }

    /* Check if we are freeing a mutex that isn't initialized */
    if (mutex->flags == NRF_CC3XX_PLATFORM_MUTEX_MASK_INVALID) {
    106c:	f031 0304 	bics.w	r3, r1, #4
    1070:	d00a      	beq.n	1088 <mutex_free_platform+0x30>
        /*Nothing to free*/
        return;
    }

    /* Check if the mutex was allocated or being statically defined */
    if ((mutex->flags & NRF_CC3XX_PLATFORM_MUTEX_MASK_IS_ALLOCATED) != 0) {
    1072:	f011 0102 	ands.w	r1, r1, #2
    1076:	d008      	beq.n	108a <mutex_free_platform+0x32>
        k_mem_slab_free(&mutex_slab, &mutex->mutex);
    1078:	4808      	ldr	r0, [pc, #32]	; (109c <mutex_free_platform+0x44>)
    107a:	4621      	mov	r1, r4
    107c:	f003 ff4c 	bl	4f18 <k_mem_slab_free>
        mutex->mutex = NULL;
    1080:	2300      	movs	r3, #0
    1082:	6023      	str	r3, [r4, #0]
    else {
        memset(mutex->mutex, 0, sizeof(struct k_mutex));
    }

    /* Reset the mutex to invalid state */
    mutex->flags = NRF_CC3XX_PLATFORM_MUTEX_MASK_INVALID;
    1084:	2300      	movs	r3, #0
    1086:	6063      	str	r3, [r4, #4]
}
    1088:	bd10      	pop	{r4, pc}
        memset(mutex->mutex, 0, sizeof(struct k_mutex));
    108a:	6820      	ldr	r0, [r4, #0]
    108c:	2214      	movs	r2, #20
    108e:	f003 fbf3 	bl	4878 <memset>
    1092:	e7f7      	b.n	1084 <mutex_free_platform+0x2c>
    1094:	200000e0 	.word	0x200000e0
    1098:	00005640 	.word	0x00005640
    109c:	20000308 	.word	0x20000308

000010a0 <mutex_lock_platform>:


/** @brief Static function to lock a mutex
 */
static int32_t mutex_lock_platform(nrf_cc3xx_platform_mutex_t *mutex) {
    10a0:	b508      	push	{r3, lr}
    int ret;
    struct k_mutex * p_mutex;

    /* Ensure that the mutex param is valid (not NULL) */
    if(mutex == NULL) {
    10a2:	b308      	cbz	r0, 10e8 <mutex_lock_platform+0x48>
        return NRF_CC3XX_PLATFORM_ERROR_PARAM_NULL;
    }

    switch (mutex->flags) {
    10a4:	6843      	ldr	r3, [r0, #4]
    10a6:	2b04      	cmp	r3, #4
    10a8:	d110      	bne.n	10cc <mutex_lock_platform+0x2c>
	return __atomic_compare_exchange_n(target, &old_value, new_value,
    10aa:	2201      	movs	r2, #1
    10ac:	6803      	ldr	r3, [r0, #0]
    10ae:	f3bf 8f5b 	dmb	ish
    10b2:	e853 1f00 	ldrex	r1, [r3]
    10b6:	2900      	cmp	r1, #0
    10b8:	d103      	bne.n	10c2 <mutex_lock_platform+0x22>
    10ba:	e843 2000 	strex	r0, r2, [r3]
    10be:	2800      	cmp	r0, #0
    10c0:	d1f7      	bne.n	10b2 <mutex_lock_platform+0x12>
    10c2:	f3bf 8f5b 	dmb	ish
    case NRF_CC3XX_PLATFORM_MUTEX_MASK_IS_ATOMIC:
        return atomic_cas((atomic_t *)mutex->mutex, 0, 1) ?
                       NRF_CC3XX_PLATFORM_SUCCESS :
    10c6:	d10b      	bne.n	10e0 <mutex_lock_platform+0x40>
    10c8:	2000      	movs	r0, #0
            return NRF_CC3XX_PLATFORM_SUCCESS;
        } else {
            return NRF_CC3XX_PLATFORM_ERROR_MUTEX_FAILED;
        }
    }
}
    10ca:	bd08      	pop	{r3, pc}
        if (mutex->flags == NRF_CC3XX_PLATFORM_MUTEX_MASK_INVALID) {
    10cc:	b153      	cbz	r3, 10e4 <mutex_lock_platform+0x44>
        p_mutex = (struct k_mutex *)mutex->mutex;
    10ce:	6800      	ldr	r0, [r0, #0]
		union { struct { uintptr_t lo, hi; } split; k_timeout_t val; } parm1 = { .val = timeout };
		return (int) arch_syscall_invoke3(parm0.x, parm1.split.lo, parm1.split.hi, K_SYSCALL_K_MUTEX_LOCK);
	}
#endif
	compiler_barrier();
	return z_impl_k_mutex_lock(mutex, timeout);
    10d0:	f04f 32ff 	mov.w	r2, #4294967295	; 0xffffffff
    10d4:	f04f 33ff 	mov.w	r3, #4294967295	; 0xffffffff
    10d8:	f002 fad4 	bl	3684 <z_impl_k_mutex_lock>
        if (ret == 0) {
    10dc:	2800      	cmp	r0, #0
    10de:	d0f3      	beq.n	10c8 <mutex_lock_platform+0x28>
                       NRF_CC3XX_PLATFORM_SUCCESS :
    10e0:	4803      	ldr	r0, [pc, #12]	; (10f0 <mutex_lock_platform+0x50>)
    10e2:	e7f2      	b.n	10ca <mutex_lock_platform+0x2a>
            return NRF_CC3XX_PLATFORM_ERROR_MUTEX_NOT_INITIALIZED;
    10e4:	4803      	ldr	r0, [pc, #12]	; (10f4 <mutex_lock_platform+0x54>)
    10e6:	e7f0      	b.n	10ca <mutex_lock_platform+0x2a>
        return NRF_CC3XX_PLATFORM_ERROR_PARAM_NULL;
    10e8:	f46f 40e0 	mvn.w	r0, #28672	; 0x7000
    10ec:	e7ed      	b.n	10ca <mutex_lock_platform+0x2a>
    10ee:	bf00      	nop
    10f0:	ffff8fe9 	.word	0xffff8fe9
    10f4:	ffff8fea 	.word	0xffff8fea

000010f8 <mutex_unlock_platform>:

/** @brief Static function to unlock a mutex
 */
static int32_t mutex_unlock_platform(nrf_cc3xx_platform_mutex_t *mutex) {
    10f8:	b508      	push	{r3, lr}
    struct k_mutex * p_mutex;

    /* Ensure that the mutex param is valid (not NULL) */
    if(mutex == NULL) {
    10fa:	b1d0      	cbz	r0, 1132 <mutex_unlock_platform+0x3a>
        return NRF_CC3XX_PLATFORM_ERROR_PARAM_NULL;
    }

    switch (mutex->flags)
    10fc:	6843      	ldr	r3, [r0, #4]
    10fe:	2b04      	cmp	r3, #4
    1100:	d111      	bne.n	1126 <mutex_unlock_platform+0x2e>
    1102:	2200      	movs	r2, #0
    1104:	6803      	ldr	r3, [r0, #0]
    1106:	f3bf 8f5b 	dmb	ish
    110a:	e853 1f00 	ldrex	r1, [r3]
    110e:	2901      	cmp	r1, #1
    1110:	d103      	bne.n	111a <mutex_unlock_platform+0x22>
    1112:	e843 2000 	strex	r0, r2, [r3]
    1116:	2800      	cmp	r0, #0
    1118:	d1f7      	bne.n	110a <mutex_unlock_platform+0x12>
    111a:	f3bf 8f5b 	dmb	ish
    {
    case NRF_CC3XX_PLATFORM_MUTEX_MASK_IS_ATOMIC:
        return atomic_cas((atomic_t *)mutex->mutex, 1, 0) ?
                       NRF_CC3XX_PLATFORM_SUCCESS :
    111e:	4807      	ldr	r0, [pc, #28]	; (113c <mutex_unlock_platform+0x44>)
    1120:	bf08      	it	eq
    1122:	4610      	moveq	r0, r2
        p_mutex = (struct k_mutex *)mutex->mutex;

        k_mutex_unlock(p_mutex);
        return NRF_CC3XX_PLATFORM_SUCCESS;
    }
}
    1124:	bd08      	pop	{r3, pc}
        if (mutex->flags == NRF_CC3XX_PLATFORM_MUTEX_MASK_INVALID) {
    1126:	b13b      	cbz	r3, 1138 <mutex_unlock_platform+0x40>
        p_mutex = (struct k_mutex *)mutex->mutex;
    1128:	6800      	ldr	r0, [r0, #0]
		union { uintptr_t x; struct k_mutex * val; } parm0 = { .val = mutex };
		return (int) arch_syscall_invoke1(parm0.x, K_SYSCALL_K_MUTEX_UNLOCK);
	}
#endif
	compiler_barrier();
	return z_impl_k_mutex_unlock(mutex);
    112a:	f002 fb23 	bl	3774 <z_impl_k_mutex_unlock>
        return NRF_CC3XX_PLATFORM_SUCCESS;
    112e:	2000      	movs	r0, #0
    1130:	e7f8      	b.n	1124 <mutex_unlock_platform+0x2c>
        return NRF_CC3XX_PLATFORM_ERROR_PARAM_NULL;
    1132:	f46f 40e0 	mvn.w	r0, #28672	; 0x7000
    1136:	e7f5      	b.n	1124 <mutex_unlock_platform+0x2c>
            return NRF_CC3XX_PLATFORM_ERROR_MUTEX_NOT_INITIALIZED;
    1138:	4801      	ldr	r0, [pc, #4]	; (1140 <mutex_unlock_platform+0x48>)
    113a:	e7f3      	b.n	1124 <mutex_unlock_platform+0x2c>
    113c:	ffff8fe9 	.word	0xffff8fe9
    1140:	ffff8fea 	.word	0xffff8fea

00001144 <mutex_init_platform>:
static void mutex_init_platform(nrf_cc3xx_platform_mutex_t *mutex) {
    1144:	b510      	push	{r4, lr}
    if (mutex == NULL) {
    1146:	4604      	mov	r4, r0
    1148:	b918      	cbnz	r0, 1152 <mutex_init_platform+0xe>
        platform_abort_apis.abort_fn(
    114a:	4b16      	ldr	r3, [pc, #88]	; (11a4 <mutex_init_platform+0x60>)
    114c:	4816      	ldr	r0, [pc, #88]	; (11a8 <mutex_init_platform+0x64>)
    114e:	685b      	ldr	r3, [r3, #4]
    1150:	4798      	blx	r3
    if (mutex->flags == NRF_CC3XX_PLATFORM_MUTEX_MASK_IS_ATOMIC ||
    1152:	6863      	ldr	r3, [r4, #4]
    1154:	2b04      	cmp	r3, #4
    1156:	d023      	beq.n	11a0 <mutex_init_platform+0x5c>
    1158:	2b08      	cmp	r3, #8
    115a:	d021      	beq.n	11a0 <mutex_init_platform+0x5c>
    if (mutex->flags == NRF_CC3XX_PLATFORM_MUTEX_MASK_INVALID &&
    115c:	b9cb      	cbnz	r3, 1192 <mutex_init_platform+0x4e>
    115e:	6823      	ldr	r3, [r4, #0]
    1160:	b9bb      	cbnz	r3, 1192 <mutex_init_platform+0x4e>
        ret = k_mem_slab_alloc(&mutex_slab, &mutex->mutex, K_FOREVER);
    1162:	4812      	ldr	r0, [pc, #72]	; (11ac <mutex_init_platform+0x68>)
    1164:	f04f 32ff 	mov.w	r2, #4294967295	; 0xffffffff
    1168:	f04f 33ff 	mov.w	r3, #4294967295	; 0xffffffff
    116c:	4621      	mov	r1, r4
    116e:	f002 f9b1 	bl	34d4 <k_mem_slab_alloc>
        if(ret != 0 || mutex->mutex == NULL)
    1172:	b908      	cbnz	r0, 1178 <mutex_init_platform+0x34>
    1174:	6823      	ldr	r3, [r4, #0]
    1176:	b91b      	cbnz	r3, 1180 <mutex_init_platform+0x3c>
            platform_abort_apis.abort_fn(
    1178:	4b0a      	ldr	r3, [pc, #40]	; (11a4 <mutex_init_platform+0x60>)
    117a:	480d      	ldr	r0, [pc, #52]	; (11b0 <mutex_init_platform+0x6c>)
    117c:	685b      	ldr	r3, [r3, #4]
    117e:	4798      	blx	r3
        memset(mutex->mutex, 0, sizeof(struct k_mutex));
    1180:	6820      	ldr	r0, [r4, #0]
    1182:	2214      	movs	r2, #20
    1184:	2100      	movs	r1, #0
    1186:	f003 fb77 	bl	4878 <memset>
        mutex->flags |= NRF_CC3XX_PLATFORM_MUTEX_MASK_IS_ALLOCATED;
    118a:	6863      	ldr	r3, [r4, #4]
    118c:	f043 0302 	orr.w	r3, r3, #2
    1190:	6063      	str	r3, [r4, #4]
    p_mutex = (struct k_mutex *)mutex->mutex;
    1192:	6820      	ldr	r0, [r4, #0]
	return z_impl_k_mutex_init(mutex);
    1194:	f003 fefe 	bl	4f94 <z_impl_k_mutex_init>
    mutex->flags |= NRF_CC3XX_PLATFORM_MUTEX_MASK_IS_VALID;
    1198:	6863      	ldr	r3, [r4, #4]
    119a:	f043 0301 	orr.w	r3, r3, #1
    119e:	6063      	str	r3, [r4, #4]
}
    11a0:	bd10      	pop	{r4, pc}
    11a2:	bf00      	nop
    11a4:	200000e0 	.word	0x200000e0
    11a8:	00005640 	.word	0x00005640
    11ac:	20000308 	.word	0x20000308
    11b0:	00005666 	.word	0x00005666

000011b4 <nrf_cc3xx_platform_mutex_init>:
};

/** @brief Function to initialize the nrf_cc3xx_platform mutex APIs
 */
void nrf_cc3xx_platform_mutex_init(void)
{
    11b4:	b508      	push	{r3, lr}
    k_mem_slab_init(&mutex_slab,
    11b6:	4906      	ldr	r1, [pc, #24]	; (11d0 <nrf_cc3xx_platform_mutex_init+0x1c>)
    11b8:	4806      	ldr	r0, [pc, #24]	; (11d4 <nrf_cc3xx_platform_mutex_init+0x20>)
    11ba:	2340      	movs	r3, #64	; 0x40
    11bc:	2214      	movs	r2, #20
    11be:	f003 fe90 	bl	4ee2 <k_mem_slab_init>
                mutex_slab_buffer,
                sizeof(struct k_mutex),
                NUM_MUTEXES);

    nrf_cc3xx_platform_set_mutexes(&mutex_apis, &mutexes);
}
    11c2:	e8bd 4008 	ldmia.w	sp!, {r3, lr}
    nrf_cc3xx_platform_set_mutexes(&mutex_apis, &mutexes);
    11c6:	4904      	ldr	r1, [pc, #16]	; (11d8 <nrf_cc3xx_platform_mutex_init+0x24>)
    11c8:	4804      	ldr	r0, [pc, #16]	; (11dc <nrf_cc3xx_platform_mutex_init+0x28>)
    11ca:	f003 b8ad 	b.w	4328 <nrf_cc3xx_platform_set_mutexes>
    11ce:	bf00      	nop
    11d0:	20000324 	.word	0x20000324
    11d4:	20000308 	.word	0x20000308
    11d8:	00005420 	.word	0x00005420
    11dc:	00005410 	.word	0x00005410

000011e0 <z_arm_cpu_idle_init>:
 * void z_arm_cpu_idle_init(void);
 */

SECTION_FUNC(TEXT, z_arm_cpu_idle_init)
#if defined(CONFIG_CPU_CORTEX_M)
	ldr	r1, =_SCB_SCR
    11e0:	4901      	ldr	r1, [pc, #4]	; (11e8 <z_arm_cpu_idle_init+0x8>)
	movs.n	r2, #_SCR_INIT_BITS
    11e2:	2210      	movs	r2, #16
	str	r2, [r1]
    11e4:	600a      	str	r2, [r1, #0]
#endif
	bx	lr
    11e6:	4770      	bx	lr
	ldr	r1, =_SCB_SCR
    11e8:	e000ed10 	.word	0xe000ed10

000011ec <arch_cpu_idle>:
	 * before entering low power state.
	 *
	 * Set PRIMASK before configuring BASEPRI to prevent interruption
	 * before wake-up.
	 */
	cpsid	i
    11ec:	b672      	cpsid	i

	/*
	 * Set wake-up interrupt priority to the lowest and synchronise to
	 * ensure that this is visible to the WFI instruction.
	 */
	eors.n	r0, r0
    11ee:	4040      	eors	r0, r0
	msr	BASEPRI, r0
    11f0:	f380 8811 	msr	BASEPRI, r0
	isb
    11f4:	f3bf 8f6f 	isb	sy

	/*
	 * Wait for all memory transactions to complete before entering low
	 * power state.
	 */
	dsb
    11f8:	f3bf 8f4f 	dsb	sy

	/* Enter low power state */
	wfi
    11fc:	bf30      	wfi

	/*
	 * Clear PRIMASK and flush instruction buffer to immediately service
	 * the wake-up interrupt.
	 */
	cpsie	i
    11fe:	b662      	cpsie	i
	isb
    1200:	f3bf 8f6f 	isb	sy

	bx	lr
    1204:	4770      	bx	lr
    1206:	bf00      	nop

00001208 <arch_cpu_atomic_idle>:

	/*
	 * Lock PRIMASK while sleeping: wfe will still get interrupted by
	 * incoming interrupts but the CPU will not service them right away.
	 */
	cpsid	i
    1208:	b672      	cpsid	i
	cpsie	i
_irq_disabled:

#elif defined(CONFIG_ARMV7_M_ARMV8_M_MAINLINE)
	/* r1: zero, for setting BASEPRI (needs a register) */
	eors.n	r1, r1
    120a:	4049      	eors	r1, r1

	/* unlock BASEPRI so wfe gets interrupted by incoming interrupts */
	msr	BASEPRI, r1
    120c:	f381 8811 	msr	BASEPRI, r1

	wfe
    1210:	bf20      	wfe

	msr	BASEPRI, r0
    1212:	f380 8811 	msr	BASEPRI, r0
	cpsie	i
    1216:	b662      	cpsie	i
#else
#error Unknown ARM architecture
#endif /* CONFIG_ARMV6_M_ARMV8_M_BASELINE */
	bx	lr
    1218:	4770      	bx	lr
    121a:	bf00      	nop

0000121c <arch_irq_enable>:
#define REG_FROM_IRQ(irq) (irq / NUM_IRQS_PER_REG)
#define BIT_FROM_IRQ(irq) (irq % NUM_IRQS_PER_REG)

void arch_irq_enable(unsigned int irq)
{
	NVIC_EnableIRQ((IRQn_Type)irq);
    121c:	b243      	sxtb	r3, r0
  \param [in]      IRQn  Device specific interrupt number.
  \note    IRQn must not be negative.
 */
__STATIC_INLINE void __NVIC_EnableIRQ(IRQn_Type IRQn)
{
  if ((int32_t)(IRQn) >= 0)
    121e:	2b00      	cmp	r3, #0
    1220:	db08      	blt.n	1234 <arch_irq_enable+0x18>
  {
    __COMPILER_BARRIER();
    NVIC->ISER[(((uint32_t)IRQn) >> 5UL)] = (uint32_t)(1UL << (((uint32_t)IRQn) & 0x1FUL));
    1222:	2201      	movs	r2, #1
    1224:	f000 001f 	and.w	r0, r0, #31
    1228:	fa02 f000 	lsl.w	r0, r2, r0
    122c:	095b      	lsrs	r3, r3, #5
    122e:	4a02      	ldr	r2, [pc, #8]	; (1238 <arch_irq_enable+0x1c>)
    1230:	f842 0023 	str.w	r0, [r2, r3, lsl #2]
}
    1234:	4770      	bx	lr
    1236:	bf00      	nop
    1238:	e000e100 	.word	0xe000e100

0000123c <arch_irq_is_enabled>:
	NVIC_DisableIRQ((IRQn_Type)irq);
}

int arch_irq_is_enabled(unsigned int irq)
{
	return NVIC->ISER[REG_FROM_IRQ(irq)] & BIT(BIT_FROM_IRQ(irq));
    123c:	4b05      	ldr	r3, [pc, #20]	; (1254 <arch_irq_is_enabled+0x18>)
    123e:	0942      	lsrs	r2, r0, #5
    1240:	f000 001f 	and.w	r0, r0, #31
    1244:	f853 2022 	ldr.w	r2, [r3, r2, lsl #2]
    1248:	2301      	movs	r3, #1
    124a:	fa03 f000 	lsl.w	r0, r3, r0
}
    124e:	4010      	ands	r0, r2
    1250:	4770      	bx	lr
    1252:	bf00      	nop
    1254:	e000e100 	.word	0xe000e100

00001258 <z_arm_irq_priority_set>:
	 */
	__ASSERT(prio <= (BIT(NUM_IRQ_PRIO_BITS) - 1),
		 "invalid priority %d for %d irq! values must be less than %lu\n",
		 prio - _IRQ_PRIO_OFFSET, irq,
		 BIT(NUM_IRQ_PRIO_BITS) - (_IRQ_PRIO_OFFSET));
	NVIC_SetPriority((IRQn_Type)irq, prio);
    1258:	b243      	sxtb	r3, r0
  \param [in]  priority  Priority to set.
  \note    The priority cannot be set for every processor exception.
 */
__STATIC_INLINE void __NVIC_SetPriority(IRQn_Type IRQn, uint32_t priority)
{
  if ((int32_t)(IRQn) >= 0)
    125a:	2b00      	cmp	r3, #0
  {
    NVIC->IP[((uint32_t)IRQn)]               = (uint8_t)((priority << (8U - __NVIC_PRIO_BITS)) & (uint32_t)0xFFUL);
    125c:	bfa8      	it	ge
    125e:	f103 4360 	addge.w	r3, r3, #3758096384	; 0xe0000000
		prio += _IRQ_PRIO_OFFSET;
    1262:	f101 0101 	add.w	r1, r1, #1
  }
  else
  {
    SCB->SHP[(((uint32_t)IRQn) & 0xFUL)-4UL] = (uint8_t)((priority << (8U - __NVIC_PRIO_BITS)) & (uint32_t)0xFFUL);
    1266:	bfb8      	it	lt
    1268:	4b06      	ldrlt	r3, [pc, #24]	; (1284 <z_arm_irq_priority_set+0x2c>)
    NVIC->IP[((uint32_t)IRQn)]               = (uint8_t)((priority << (8U - __NVIC_PRIO_BITS)) & (uint32_t)0xFFUL);
    126a:	ea4f 1141 	mov.w	r1, r1, lsl #5
    126e:	bfac      	ite	ge
    1270:	f503 4361 	addge.w	r3, r3, #57600	; 0xe100
    SCB->SHP[(((uint32_t)IRQn) & 0xFUL)-4UL] = (uint8_t)((priority << (8U - __NVIC_PRIO_BITS)) & (uint32_t)0xFFUL);
    1274:	f000 000f 	andlt.w	r0, r0, #15
    NVIC->IP[((uint32_t)IRQn)]               = (uint8_t)((priority << (8U - __NVIC_PRIO_BITS)) & (uint32_t)0xFFUL);
    1278:	b2c9      	uxtb	r1, r1
    SCB->SHP[(((uint32_t)IRQn) & 0xFUL)-4UL] = (uint8_t)((priority << (8U - __NVIC_PRIO_BITS)) & (uint32_t)0xFFUL);
    127a:	bfb4      	ite	lt
    127c:	5419      	strblt	r1, [r3, r0]
    NVIC->IP[((uint32_t)IRQn)]               = (uint8_t)((priority << (8U - __NVIC_PRIO_BITS)) & (uint32_t)0xFFUL);
    127e:	f883 1300 	strbge.w	r1, [r3, #768]	; 0x300
}
    1282:	4770      	bx	lr
    1284:	e000ed14 	.word	0xe000ed14

00001288 <z_SysNmiOnReset>:
_ASM_FILE_PROLOGUE

GTEXT(z_SysNmiOnReset)

SECTION_FUNC(TEXT, z_SysNmiOnReset)
    wfi
    1288:	bf30      	wfi
    b z_SysNmiOnReset
    128a:	f7ff bffd 	b.w	1288 <z_SysNmiOnReset>
    128e:	bf00      	nop

00001290 <z_arm_prep_c>:

#define VECTOR_ADDRESS ((uintptr_t)_vector_start)

static inline void relocate_vector_table(void)
{
	SCB->VTOR = VECTOR_ADDRESS & SCB_VTOR_TBLOFF_Msk;
    1290:	4a0b      	ldr	r2, [pc, #44]	; (12c0 <z_arm_prep_c+0x30>)
 *
 * This routine prepares for the execution of and runs C code.
 *
 */
void z_arm_prep_c(void)
{
    1292:	b508      	push	{r3, lr}
	SCB->VTOR = VECTOR_ADDRESS & SCB_VTOR_TBLOFF_Msk;
    1294:	4b0b      	ldr	r3, [pc, #44]	; (12c4 <z_arm_prep_c+0x34>)
    1296:	f022 027f 	bic.w	r2, r2, #127	; 0x7f
    129a:	609a      	str	r2, [r3, #8]
  \details Acts as a special kind of Data Memory Barrier.
           It completes when all explicit memory accesses before this instruction complete.
 */
__STATIC_FORCEINLINE void __DSB(void)
{
  __ASM volatile ("dsb 0xF":::"memory");
    129c:	f3bf 8f4f 	dsb	sy
  __ASM volatile ("isb 0xF":::"memory");
    12a0:	f3bf 8f6f 	isb	sy
	SCB->CPACR &= (~(CPACR_CP10_Msk | CPACR_CP11_Msk));
    12a4:	f8d3 2088 	ldr.w	r2, [r3, #136]	; 0x88
    12a8:	f422 0270 	bic.w	r2, r2, #15728640	; 0xf00000
    12ac:	f8c3 2088 	str.w	r2, [r3, #136]	; 0x88
	relocate_vector_table();
#if defined(CONFIG_CPU_HAS_FPU)
	z_arm_floating_point_init();
#endif
	z_bss_zero();
    12b0:	f002 f840 	bl	3334 <z_bss_zero>
	z_data_copy();
    12b4:	f002 fe32 	bl	3f1c <z_data_copy>
#if ((defined(CONFIG_ARMV7_R) || defined(CONFIG_ARMV7_A)) && defined(CONFIG_INIT_STACKS))
	z_arm_init_stacks();
#endif
	z_arm_interrupt_init();
    12b8:	f000 f9d0 	bl	165c <z_arm_interrupt_init>
	z_cstart();
    12bc:	f002 f87e 	bl	33bc <z_cstart>
    12c0:	00000000 	.word	0x00000000
    12c4:	e000ed00 	.word	0xe000ed00

000012c8 <arch_swap>:
 * as BASEPRI is not available.
 */
int arch_swap(unsigned int key)
{
	/* store off key and return value */
	_current->arch.basepri = key;
    12c8:	4a09      	ldr	r2, [pc, #36]	; (12f0 <arch_swap+0x28>)
	_current->arch.swap_return_value = _k_neg_eagain;
    12ca:	490a      	ldr	r1, [pc, #40]	; (12f4 <arch_swap+0x2c>)
	_current->arch.basepri = key;
    12cc:	6893      	ldr	r3, [r2, #8]
	_current->arch.swap_return_value = _k_neg_eagain;
    12ce:	6809      	ldr	r1, [r1, #0]
    12d0:	6799      	str	r1, [r3, #120]	; 0x78

#if defined(CONFIG_CPU_CORTEX_M)
	/* set pending bit to make sure we will take a PendSV exception */
	SCB->ICSR |= SCB_ICSR_PENDSVSET_Msk;
    12d2:	4909      	ldr	r1, [pc, #36]	; (12f8 <arch_swap+0x30>)
	_current->arch.basepri = key;
    12d4:	6758      	str	r0, [r3, #116]	; 0x74
	SCB->ICSR |= SCB_ICSR_PENDSVSET_Msk;
    12d6:	684b      	ldr	r3, [r1, #4]
    12d8:	f043 5380 	orr.w	r3, r3, #268435456	; 0x10000000
    12dc:	604b      	str	r3, [r1, #4]
	__asm__ volatile(
    12de:	2300      	movs	r3, #0
    12e0:	f383 8811 	msr	BASEPRI, r3
    12e4:	f3bf 8f6f 	isb	sy
#endif

	/* Context switch is performed here. Returning implies the
	 * thread has been context-switched-in again.
	 */
	return _current->arch.swap_return_value;
    12e8:	6893      	ldr	r3, [r2, #8]
}
    12ea:	6f98      	ldr	r0, [r3, #120]	; 0x78
    12ec:	4770      	bx	lr
    12ee:	bf00      	nop
    12f0:	20000970 	.word	0x20000970
    12f4:	00005560 	.word	0x00005560
    12f8:	e000ed00 	.word	0xe000ed00

000012fc <z_arm_pendsv>:
    pop {r0, lr}
#endif /* CONFIG_ARMV6_M_ARMV8_M_BASELINE */
#endif /* CONFIG_INSTRUMENT_THREAD_SWITCHING */

    /* load _kernel into r1 and current k_thread into r2 */
    ldr r1, =_kernel
    12fc:	4912      	ldr	r1, [pc, #72]	; (1348 <z_arm_pendsv+0x4c>)
    ldr r2, [r1, #_kernel_offset_to_current]
    12fe:	688a      	ldr	r2, [r1, #8]
    /* Store LSB of LR (EXC_RETURN) to the thread's 'mode' word. */
    strb lr, [r2, #_thread_offset_to_mode_exc_return]
#endif

    /* addr of callee-saved regs in thread in r0 */
    ldr r0, =_thread_offset_to_callee_saved
    1300:	f04f 0030 	mov.w	r0, #48	; 0x30
    add r0, r2
    1304:	4410      	add	r0, r2

    /* save callee-saved + psp in thread */
#if defined(CONFIG_CPU_CORTEX_M)
    mrs ip, PSP
    1306:	f3ef 8c09 	mrs	ip, PSP
    mov r6, r11
    mov r7, ip
    /* store r8-12 */
    stmea r0!, {r3-r7}
#elif defined(CONFIG_ARMV7_M_ARMV8_M_MAINLINE)
    stmia r0, {v1-v8, ip}
    130a:	e880 1ff0 	stmia.w	r0, {r4, r5, r6, r7, r8, r9, sl, fp, ip}

    /* Protect the kernel state while we play with the thread lists */
#if defined(CONFIG_ARMV6_M_ARMV8_M_BASELINE)
    cpsid i
#elif defined(CONFIG_ARMV7_M_ARMV8_M_MAINLINE)
    movs.n r0, #_EXC_IRQ_DEFAULT_PRIO
    130e:	2020      	movs	r0, #32
    msr BASEPRI_MAX, r0
    1310:	f380 8812 	msr	BASEPRI_MAX, r0
    isb /* Make the effect of disabling interrupts be realized immediately */
    1314:	f3bf 8f6f 	isb	sy
     * the new thread is context-switched in since all decisions
     * to pend PendSV have been taken with the current kernel
     * state and this is what we're handling currently.
     */
#if defined(CONFIG_CPU_CORTEX_M)
    ldr v4, =_SCS_ICSR
    1318:	4f0c      	ldr	r7, [pc, #48]	; (134c <z_arm_pendsv+0x50>)
    ldr v3, =_SCS_ICSR_UNPENDSV
    131a:	f04f 6600 	mov.w	r6, #134217728	; 0x8000000
#endif

    /* _kernel is still in r1 */

    /* fetch the thread to run from the ready queue cache */
    ldr r2, [r1, #_kernel_offset_to_ready_q_cache]
    131e:	69ca      	ldr	r2, [r1, #28]

    str r2, [r1, #_kernel_offset_to_current]
    1320:	608a      	str	r2, [r1, #8]
     * has been handled.
     */

    /* _SCS_ICSR is still in v4 and _SCS_ICSR_UNPENDSV in v3 */
#if defined(CONFIG_CPU_CORTEX_M)
    str v3, [v4, #0]
    1322:	603e      	str	r6, [r7, #0]

    ldr r0, [r4]
    movs.n r3, #0
    str r3, [r4]
#else
    ldr r0, [r2, #_thread_offset_to_basepri]
    1324:	6f50      	ldr	r0, [r2, #116]	; 0x74
    movs r3, #0
    1326:	2300      	movs	r3, #0
    str r3, [r2, #_thread_offset_to_basepri]
    1328:	6753      	str	r3, [r2, #116]	; 0x74
    /* restore r4-r7, go back 9*4 bytes to the start of the stored block */
    subs r0, #36
    ldmia r0!, {r4-r7}
#elif defined(CONFIG_ARMV7_M_ARMV8_M_MAINLINE)
    /* restore BASEPRI for the incoming thread */
    msr BASEPRI, r0
    132a:	f380 8811 	msr	BASEPRI, r0
    isb
#endif

#if defined(CONFIG_MPU_STACK_GUARD) || defined(CONFIG_USERSPACE)
    /* Re-program dynamic memory map */
    push {r2,lr}
    132e:	b504      	push	{r2, lr}
    mov r0, r2 /* _current thread */
    1330:	4610      	mov	r0, r2
    bl z_arm_configure_dynamic_mpu_regions
    1332:	f000 fa2f 	bl	1794 <z_arm_configure_dynamic_mpu_regions>
    pop {r2,lr}
    1336:	e8bd 4004 	ldmia.w	sp!, {r2, lr}
    isb

#endif

    /* load callee-saved + psp from thread */
    add r0, r2, #_thread_offset_to_callee_saved
    133a:	f102 0030 	add.w	r0, r2, #48	; 0x30
    ldmia r0, {v1-v8, ip}
    133e:	e890 1ff0 	ldmia.w	r0, {r4, r5, r6, r7, r8, r9, sl, fp, ip}
#else
#error Unknown ARM architecture
#endif /* CONFIG_ARMV6_M_ARMV8_M_BASELINE */

#if defined(CONFIG_CPU_CORTEX_M)
    msr PSP, ip
    1342:	f38c 8809 	msr	PSP, ip

    /*
     * Cortex-M: return from PendSV exception
     * Cortex-R: return to the caller (z_arm_{exc,int}_exit, or z_arm_svc)
     */
    bx lr
    1346:	4770      	bx	lr
    ldr r1, =_kernel
    1348:	20000970 	.word	0x20000970
    ldr v4, =_SCS_ICSR
    134c:	e000ed04 	.word	0xe000ed04

00001350 <z_arm_svc>:
  bne _stack_frame_endif
_stack_frame_msp:
  mrs r0, MSP
_stack_frame_endif:
#elif defined(CONFIG_ARMV7_M_ARMV8_M_MAINLINE)
    tst lr, #_EXC_RETURN_SPSEL_Msk /* did we come from thread mode ? */
    1350:	f01e 0f04 	tst.w	lr, #4
    ite eq  /* if zero (equal), came from handler mode */
    1354:	bf0c      	ite	eq
        mrseq r0, MSP   /* handler mode, stack frame is on MSP */
    1356:	f3ef 8008 	mrseq	r0, MSP
        mrsne r0, PSP   /* thread mode, stack frame is on PSP */
    135a:	f3ef 8009 	mrsne	r0, PSP
#endif


    /* Figure out what SVC call number was invoked */

    ldr r1, [r0, #24]   /* grab address of PC from stack frame */
    135e:	6981      	ldr	r1, [r0, #24]
     */
#if defined(CONFIG_ARMV6_M_ARMV8_M_BASELINE)
    subs r1, r1, #2
    ldrb r1, [r1]
#elif defined(CONFIG_ARMV7_M_ARMV8_M_MAINLINE)
    ldrb r1, [r1, #-2]
    1360:	f811 1c02 	ldrb.w	r1, [r1, #-2]
#endif
    bne _oops

#endif /* CONFIG_USERSPACE */

    cmp r1, #2
    1364:	2902      	cmp	r1, #2
    beq _oops
    1366:	d0ff      	beq.n	1368 <_oops>

00001368 <_oops>:
    /* exception return is done in z_arm_int_exit() */
    b z_arm_int_exit
#endif

_oops:
    push {r0, lr}
    1368:	b501      	push	{r0, lr}
    bl z_do_kernel_oops
    136a:	f003 fa51 	bl	4810 <z_do_kernel_oops>
    /* return from SVC exception is done here */
    pop {r0, pc}
    136e:	bd01      	pop	{r0, pc}

00001370 <arch_new_thread>:

#if defined(CONFIG_CPU_CORTEX_M)
	/* force ARM mode by clearing LSB of address */
	iframe->pc &= 0xfffffffe;
#endif
	iframe->a1 = (uint32_t)entry;
    1370:	f842 3c20 	str.w	r3, [r2, #-32]
	iframe->a2 = (uint32_t)p1;
    1374:	9b00      	ldr	r3, [sp, #0]
    1376:	f842 3c1c 	str.w	r3, [r2, #-28]
	iframe->pc &= 0xfffffffe;
    137a:	490a      	ldr	r1, [pc, #40]	; (13a4 <arch_new_thread+0x34>)
	iframe->a3 = (uint32_t)p2;
    137c:	9b01      	ldr	r3, [sp, #4]
    137e:	f842 3c18 	str.w	r3, [r2, #-24]
	iframe->a4 = (uint32_t)p3;
    1382:	9b02      	ldr	r3, [sp, #8]
    1384:	f842 3c14 	str.w	r3, [r2, #-20]
	iframe->pc &= 0xfffffffe;
    1388:	f021 0101 	bic.w	r1, r1, #1

#if defined(CONFIG_CPU_CORTEX_M)
	iframe->xpsr =
    138c:	f04f 7380 	mov.w	r3, #16777216	; 0x1000000
    1390:	f842 3c04 	str.w	r3, [r2, #-4]
	iframe->pc &= 0xfffffffe;
    1394:	f842 1c08 	str.w	r1, [r2, #-8]
	iframe->xpsr |= T_BIT;
#endif /* CONFIG_COMPILER_ISA_THUMB2 */
#endif /* CONFIG_CPU_CORTEX_M */

	thread->callee_saved.psp = (uint32_t)iframe;
	thread->arch.basepri = 0;
    1398:	2300      	movs	r3, #0
	iframe = Z_STACK_PTR_TO_FRAME(struct __basic_sf, stack_ptr);
    139a:	3a20      	subs	r2, #32
	thread->callee_saved.psp = (uint32_t)iframe;
    139c:	6502      	str	r2, [r0, #80]	; 0x50
	thread->arch.basepri = 0;
    139e:	6743      	str	r3, [r0, #116]	; 0x74
#endif
	/*
	 * initial values in all other registers/thread entries are
	 * irrelevant.
	 */
}
    13a0:	4770      	bx	lr
    13a2:	bf00      	nop
    13a4:	00004737 	.word	0x00004737

000013a8 <z_check_thread_stack_fail>:
 *         thread stack corruption, otherwise return 0.
 */
uint32_t z_check_thread_stack_fail(const uint32_t fault_addr, const uint32_t psp)
{
#if defined(CONFIG_MULTITHREADING)
	const struct k_thread *thread = _current;
    13a8:	4a09      	ldr	r2, [pc, #36]	; (13d0 <z_check_thread_stack_fail+0x28>)
{
    13aa:	4603      	mov	r3, r0
	const struct k_thread *thread = _current;
    13ac:	6890      	ldr	r0, [r2, #8]

	if (thread == NULL) {
    13ae:	b170      	cbz	r0, 13ce <z_check_thread_stack_fail+0x26>
			return thread->stack_info.start;
		}
	}
#else /* CONFIG_USERSPACE */
#if defined(CONFIG_MULTITHREADING)
	if (IS_MPU_GUARD_VIOLATION(thread->stack_info.start - guard_len,
    13b0:	f113 0f16 	cmn.w	r3, #22
    13b4:	6e40      	ldr	r0, [r0, #100]	; 0x64
    13b6:	d005      	beq.n	13c4 <z_check_thread_stack_fail+0x1c>
    13b8:	f1a0 0220 	sub.w	r2, r0, #32
    13bc:	429a      	cmp	r2, r3
    13be:	d805      	bhi.n	13cc <z_check_thread_stack_fail+0x24>
    13c0:	4283      	cmp	r3, r0
    13c2:	d203      	bcs.n	13cc <z_check_thread_stack_fail+0x24>
		return (uint32_t)Z_THREAD_STACK_BUFFER(z_main_stack);
	}
#endif
#endif /* CONFIG_USERSPACE */

	return 0;
    13c4:	4281      	cmp	r1, r0
    13c6:	bf28      	it	cs
    13c8:	2000      	movcs	r0, #0
    13ca:	4770      	bx	lr
    13cc:	2000      	movs	r0, #0
}
    13ce:	4770      	bx	lr
    13d0:	20000970 	.word	0x20000970

000013d4 <arch_switch_to_main_thread>:
#endif /* CONFIG_FPU */
}

void arch_switch_to_main_thread(struct k_thread *main_thread, char *stack_ptr,
				k_thread_entry_t _main)
{
    13d4:	b508      	push	{r3, lr}
	z_arm_prepare_switch_to_main();

	_current = main_thread;
    13d6:	4b09      	ldr	r3, [pc, #36]	; (13fc <arch_switch_to_main_thread+0x28>)
    13d8:	6098      	str	r0, [r3, #8]
{
    13da:	460d      	mov	r5, r1
    13dc:	4614      	mov	r4, r2
#if defined(CONFIG_MPU_STACK_GUARD) || defined(CONFIG_USERSPACE)
	/*
	 * If stack protection is enabled, make sure to set it
	 * before jumping to thread entry function
	 */
	z_arm_configure_dynamic_mpu_regions(main_thread);
    13de:	f000 f9d9 	bl	1794 <z_arm_configure_dynamic_mpu_regions>

	/*
	 * Set PSP to the highest address of the main stack
	 * before enabling interrupts and jumping to main.
	 */
	__asm__ volatile (
    13e2:	4620      	mov	r0, r4
    13e4:	f385 8809 	msr	PSP, r5
    13e8:	2100      	movs	r1, #0
    13ea:	b663      	cpsie	if
    13ec:	f381 8811 	msr	BASEPRI, r1
    13f0:	f3bf 8f6f 	isb	sy
    13f4:	2200      	movs	r2, #0
    13f6:	2300      	movs	r3, #0
    13f8:	f003 f99d 	bl	4736 <z_thread_entry>
	:
	: "r" (_main), "r" (stack_ptr)
	: "r0" /* not to be overwritten by msr PSP, %1 */
	);

	CODE_UNREACHABLE;
    13fc:	20000970 	.word	0x20000970

00001400 <_isr_wrapper>:
 *
 */
SECTION_FUNC(TEXT, _isr_wrapper)

#if defined(CONFIG_CPU_CORTEX_M)
	push {r0,lr}		/* r0, lr are now the first items on the stack */
    1400:	b501      	push	{r0, lr}
	 * Disable interrupts to prevent nesting while exiting idle state. This
	 * is only necessary for the Cortex-M because it is the only ARM
	 * architecture variant that automatically enables interrupts when
	 * entering an ISR.
	 */
	cpsid i  /* PRIMASK = 1 */
    1402:	b672      	cpsid	i
#endif

	/* is this a wakeup from idle ? */
	ldr r2, =_kernel
    1404:	4a0b      	ldr	r2, [pc, #44]	; (1434 <_isr_wrapper+0x34>)
	/* requested idle duration, in ticks */
	ldr r0, [r2, #_kernel_offset_to_idle]
    1406:	6990      	ldr	r0, [r2, #24]
	cmp r0, #0
    1408:	2800      	cmp	r0, #0
	str r1, [r2, #_kernel_offset_to_idle]
	bl z_pm_save_idle_exit
_idle_state_cleared:

#elif defined(CONFIG_ARMV7_M_ARMV8_M_MAINLINE)
	ittt ne
    140a:	bf1e      	ittt	ne
	movne	r1, #0
    140c:	2100      	movne	r1, #0
		/* clear kernel idle state */
		strne	r1, [r2, #_kernel_offset_to_idle]
    140e:	6191      	strne	r1, [r2, #24]
		blne	z_pm_save_idle_exit
    1410:	f003 fdb1 	blne	4f76 <z_pm_save_idle_exit>
#else
#error Unknown ARM architecture
#endif /* CONFIG_ARMV6_M_ARMV8_M_BASELINE */

#if defined(CONFIG_CPU_CORTEX_M)
	cpsie i		/* re-enable interrupts (PRIMASK = 0) */
    1414:	b662      	cpsie	i
#endif

#endif /* CONFIG_PM */

#if defined(CONFIG_CPU_CORTEX_M)
	mrs r0, IPSR	/* get exception number */
    1416:	f3ef 8005 	mrs	r0, IPSR
#if defined(CONFIG_ARMV6_M_ARMV8_M_BASELINE)
	ldr r1, =16
	subs r0, r1	/* get IRQ number */
	lsls r0, #3	/* table is 8-byte wide */
#elif defined(CONFIG_ARMV7_M_ARMV8_M_MAINLINE)
	sub r0, r0, #16	/* get IRQ number */
    141a:	f1a0 0010 	sub.w	r0, r0, #16
	lsl r0, r0, #3	/* table is 8-byte wide */
    141e:	ea4f 00c0 	mov.w	r0, r0, lsl #3
	lsl r1, r1, #3
	cmp r0, r1
	bge spurious_continue
#endif /* !CONFIG_CPU_CORTEX_M */

	ldr r1, =_sw_isr_table
    1422:	4905      	ldr	r1, [pc, #20]	; (1438 <_isr_wrapper+0x38>)
	add r1, r1, r0	/* table entry: ISRs must have their MSB set to stay
    1424:	4401      	add	r1, r0
			 * in thumb mode */

	ldm r1!,{r0,r3}	/* arg in r0, ISR in r3 */
    1426:	c909      	ldmia	r1!, {r0, r3}
	blx r3		/* call ISR */
    1428:	4798      	blx	r3

#if defined(CONFIG_ARMV6_M_ARMV8_M_BASELINE)
	pop {r0, r3}
	mov lr, r3
#elif defined(CONFIG_ARMV7_M_ARMV8_M_MAINLINE)
	pop {r0, lr}
    142a:	e8bd 4001 	ldmia.w	sp!, {r0, lr}
#endif /* CONFIG_ARMV6_M_ARMV8_M_BASELINE */

	/* Use 'bx' instead of 'b' because 'bx' can jump further, and use
	 * 'bx' instead of 'blx' because exception return is done in
	 * z_arm_int_exit() */
	ldr r1, =z_arm_int_exit
    142e:	4903      	ldr	r1, [pc, #12]	; (143c <_isr_wrapper+0x3c>)
	bx r1
    1430:	4708      	bx	r1
    1432:	0000      	.short	0x0000
	ldr r2, =_kernel
    1434:	20000970 	.word	0x20000970
	ldr r1, =_sw_isr_table
    1438:	0000525c 	.word	0x0000525c
	ldr r1, =z_arm_int_exit
    143c:	00001441 	.word	0x00001441

00001440 <z_arm_exc_exit>:
 */

SECTION_SUBSEC_FUNC(TEXT, _HandlerModeExit, z_arm_exc_exit)

#ifdef CONFIG_PREEMPT_ENABLED
	ldr r3, =_kernel
    1440:	4b04      	ldr	r3, [pc, #16]	; (1454 <_EXIT_EXC+0x2>)

	ldr r1, [r3, #_kernel_offset_to_current]
    1442:	6899      	ldr	r1, [r3, #8]
	ldr r0, [r3, #_kernel_offset_to_ready_q_cache]
    1444:	69d8      	ldr	r0, [r3, #28]
	cmp r0, r1
    1446:	4288      	cmp	r0, r1
	beq _EXIT_EXC
    1448:	d003      	beq.n	1452 <_EXIT_EXC>

	/* context switch required, pend the PendSV exception */
	ldr r1, =_SCS_ICSR
    144a:	4903      	ldr	r1, [pc, #12]	; (1458 <_EXIT_EXC+0x6>)
	ldr r2, =_SCS_ICSR_PENDSV
    144c:	f04f 5280 	mov.w	r2, #268435456	; 0x10000000
	str r2, [r1]
    1450:	600a      	str	r2, [r1, #0]

00001452 <_EXIT_EXC>:
#else
	pop {r0, lr}
#endif /* CONFIG_ARMV6_M_ARMV8_M_BASELINE */
#endif /* CONFIG_STACK_SENTINEL */

	bx lr
    1452:	4770      	bx	lr
	ldr r3, =_kernel
    1454:	20000970 	.word	0x20000970
	ldr r1, =_SCS_ICSR
    1458:	e000ed04 	.word	0xe000ed04

0000145c <mem_manage_fault>:
 *
 * @return error code to identify the fatal error reason
 */
static uint32_t mem_manage_fault(z_arch_esf_t *esf, int from_hard_fault,
			      bool *recoverable)
{
    145c:	b538      	push	{r3, r4, r5, lr}
	uint32_t reason = K_ERR_CPU_EXCEPTION;
	uint32_t mmfar = -EINVAL;

	PR_FAULT_INFO("***** MPU FAULT *****");

	if ((SCB->CFSR & SCB_CFSR_MSTKERR_Msk) != 0) {
    145e:	4b1c      	ldr	r3, [pc, #112]	; (14d0 <mem_manage_fault+0x74>)
{
    1460:	4614      	mov	r4, r2
	if ((SCB->CFSR & SCB_CFSR_MSTKERR_Msk) != 0) {
    1462:	6a9a      	ldr	r2, [r3, #40]	; 0x28
		PR_FAULT_INFO("  Stacking error (context area might be"
			" not valid)");
	}
	if ((SCB->CFSR & SCB_CFSR_MUNSTKERR_Msk) != 0) {
    1464:	6a9a      	ldr	r2, [r3, #40]	; 0x28
		PR_FAULT_INFO("  Unstacking error");
	}
	if ((SCB->CFSR & SCB_CFSR_DACCVIOL_Msk) != 0) {
    1466:	6a9a      	ldr	r2, [r3, #40]	; 0x28
{
    1468:	4605      	mov	r5, r0
	if ((SCB->CFSR & SCB_CFSR_DACCVIOL_Msk) != 0) {
    146a:	0790      	lsls	r0, r2, #30
    146c:	d520      	bpl.n	14b0 <mem_manage_fault+0x54>
		 * The MMFAR address is valid only if this bit is 1.
		 *
		 * Software must follow this sequence because another higher
		 * priority exception might change the MMFAR value.
		 */
		uint32_t temp = SCB->MMFAR;
    146e:	6b58      	ldr	r0, [r3, #52]	; 0x34

		if ((SCB->CFSR & SCB_CFSR_MMARVALID_Msk) != 0) {
    1470:	6a9a      	ldr	r2, [r3, #40]	; 0x28
    1472:	0612      	lsls	r2, r2, #24
    1474:	d51c      	bpl.n	14b0 <mem_manage_fault+0x54>
			mmfar = temp;
			PR_EXC("  MMFAR Address: 0x%x", mmfar);
			if (from_hard_fault != 0) {
    1476:	b119      	cbz	r1, 1480 <mem_manage_fault+0x24>
				/* clear SCB_MMAR[VALID] to reset */
				SCB->CFSR &= ~SCB_CFSR_MMARVALID_Msk;
    1478:	6a9a      	ldr	r2, [r3, #40]	; 0x28
    147a:	f022 0280 	bic.w	r2, r2, #128	; 0x80
    147e:	629a      	str	r2, [r3, #40]	; 0x28
			}
		}
	}
	if ((SCB->CFSR & SCB_CFSR_IACCVIOL_Msk) != 0) {
    1480:	6a9a      	ldr	r2, [r3, #40]	; 0x28
		PR_FAULT_INFO("  Instruction Access Violation");
	}
#if defined(CONFIG_ARMV7_M_ARMV8_M_FP)
	if ((SCB->CFSR & SCB_CFSR_MLSPERR_Msk) != 0) {
    1482:	6a9a      	ldr	r2, [r3, #40]	; 0x28
	 * crossed into an area beyond the thread stack.]
	 *
	 * Data Access Violation errors may or may not be caused by
	 * thread stack overflows.
	 */
	if ((SCB->CFSR & SCB_CFSR_MSTKERR_Msk) ||
    1484:	6a9a      	ldr	r2, [r3, #40]	; 0x28
    1486:	06d2      	lsls	r2, r2, #27
    1488:	d415      	bmi.n	14b6 <mem_manage_fault+0x5a>
		(SCB->CFSR & SCB_CFSR_DACCVIOL_Msk)) {
    148a:	6a9b      	ldr	r3, [r3, #40]	; 0x28
	if ((SCB->CFSR & SCB_CFSR_MSTKERR_Msk) ||
    148c:	079b      	lsls	r3, r3, #30
    148e:	d412      	bmi.n	14b6 <mem_manage_fault+0x5a>
	uint32_t reason = K_ERR_CPU_EXCEPTION;
    1490:	2000      	movs	r0, #0
	 * lazy stacking Memory Manage fault. At the time of writing, this
	 * can happen when printing.  If that's true, we should clear the
	 * pending flag in addition to the clearing the reason for the fault
	 */
#if defined(CONFIG_ARMV7_M_ARMV8_M_FP)
	if ((SCB->CFSR & SCB_CFSR_MLSPERR_Msk) != 0) {
    1492:	4b0f      	ldr	r3, [pc, #60]	; (14d0 <mem_manage_fault+0x74>)
    1494:	6a9a      	ldr	r2, [r3, #40]	; 0x28
    1496:	0692      	lsls	r2, r2, #26
		SCB->SHCSR &= ~SCB_SHCSR_MEMFAULTPENDED_Msk;
    1498:	bf42      	ittt	mi
    149a:	6a5a      	ldrmi	r2, [r3, #36]	; 0x24
    149c:	f422 5200 	bicmi.w	r2, r2, #8192	; 0x2000
    14a0:	625a      	strmi	r2, [r3, #36]	; 0x24
	}
#endif /* CONFIG_ARMV7_M_ARMV8_M_FP */

	/* clear MMFSR sticky bits */
	SCB->CFSR |= SCB_CFSR_MEMFAULTSR_Msk;
    14a2:	6a9a      	ldr	r2, [r3, #40]	; 0x28
    14a4:	f042 02ff 	orr.w	r2, r2, #255	; 0xff
    14a8:	629a      	str	r2, [r3, #40]	; 0x28

	/* Assess whether system shall ignore/recover from this MPU fault. */
	*recoverable = memory_fault_recoverable(esf, true);
    14aa:	2300      	movs	r3, #0
    14ac:	7023      	strb	r3, [r4, #0]

	return reason;
}
    14ae:	bd38      	pop	{r3, r4, r5, pc}
	uint32_t mmfar = -EINVAL;
    14b0:	f06f 0015 	mvn.w	r0, #21
    14b4:	e7e4      	b.n	1480 <mem_manage_fault+0x24>
		if (SCB->ICSR & SCB_ICSR_RETTOBASE_Msk) {
    14b6:	4b06      	ldr	r3, [pc, #24]	; (14d0 <mem_manage_fault+0x74>)
    14b8:	685b      	ldr	r3, [r3, #4]
    14ba:	0519      	lsls	r1, r3, #20
    14bc:	d5e8      	bpl.n	1490 <mem_manage_fault+0x34>
			uint32_t min_stack_ptr = z_check_thread_stack_fail(mmfar,
    14be:	4629      	mov	r1, r5
    14c0:	f7ff ff72 	bl	13a8 <z_check_thread_stack_fail>
			if (min_stack_ptr) {
    14c4:	2800      	cmp	r0, #0
    14c6:	d0e3      	beq.n	1490 <mem_manage_fault+0x34>
  \details Assigns the given value to the Process Stack Pointer (PSP).
  \param [in]    topOfProcStack  Process Stack Pointer value to set
 */
__STATIC_FORCEINLINE void __set_PSP(uint32_t topOfProcStack)
{
  __ASM volatile ("MSR psp, %0" : : "r" (topOfProcStack) : );
    14c8:	f380 8809 	msr	PSP, r0
				reason = K_ERR_STACK_CHK_FAIL;
    14cc:	2002      	movs	r0, #2
    14ce:	e7e0      	b.n	1492 <mem_manage_fault+0x36>
    14d0:	e000ed00 	.word	0xe000ed00

000014d4 <bus_fault.constprop.0>:
{
	uint32_t reason = K_ERR_CPU_EXCEPTION;

	PR_FAULT_INFO("***** BUS FAULT *****");

	if (SCB->CFSR & SCB_CFSR_STKERR_Msk) {
    14d4:	4b0d      	ldr	r3, [pc, #52]	; (150c <bus_fault.constprop.0+0x38>)
    14d6:	6a9a      	ldr	r2, [r3, #40]	; 0x28
		PR_FAULT_INFO("  Stacking error");
	}
	if (SCB->CFSR & SCB_CFSR_UNSTKERR_Msk) {
    14d8:	6a9a      	ldr	r2, [r3, #40]	; 0x28
		PR_FAULT_INFO("  Unstacking error");
	}
	if (SCB->CFSR & SCB_CFSR_PRECISERR_Msk) {
    14da:	6a9a      	ldr	r2, [r3, #40]	; 0x28
    14dc:	0592      	lsls	r2, r2, #22
    14de:	d508      	bpl.n	14f2 <bus_fault.constprop.0+0x1e>
		 * The BFAR address is valid only if this bit is 1.
		 *
		 * Software must follow this sequence because another
		 * higher priority exception might change the BFAR value.
		 */
		STORE_xFAR(bfar, SCB->BFAR);
    14e0:	6b9a      	ldr	r2, [r3, #56]	; 0x38

		if ((SCB->CFSR & SCB_CFSR_BFARVALID_Msk) != 0) {
    14e2:	6a9a      	ldr	r2, [r3, #40]	; 0x28
    14e4:	0412      	lsls	r2, r2, #16
    14e6:	d504      	bpl.n	14f2 <bus_fault.constprop.0+0x1e>
			PR_EXC("  BFAR Address: 0x%x", bfar);
			if (from_hard_fault != 0) {
    14e8:	b118      	cbz	r0, 14f2 <bus_fault.constprop.0+0x1e>
				/* clear SCB_CFSR_BFAR[VALID] to reset */
				SCB->CFSR &= ~SCB_CFSR_BFARVALID_Msk;
    14ea:	6a9a      	ldr	r2, [r3, #40]	; 0x28
    14ec:	f422 4200 	bic.w	r2, r2, #32768	; 0x8000
    14f0:	629a      	str	r2, [r3, #40]	; 0x28
			}
		}
	}
	if (SCB->CFSR & SCB_CFSR_IMPRECISERR_Msk) {
    14f2:	4b06      	ldr	r3, [pc, #24]	; (150c <bus_fault.constprop.0+0x38>)
    14f4:	6a9a      	ldr	r2, [r3, #40]	; 0x28
		PR_FAULT_INFO("  Imprecise data bus error");
	}
	if ((SCB->CFSR & SCB_CFSR_IBUSERR_Msk) != 0) {
    14f6:	6a9a      	ldr	r2, [r3, #40]	; 0x28
    14f8:	05d2      	lsls	r2, r2, #23
		PR_FAULT_INFO("  Instruction bus error");
#if !defined(CONFIG_ARMV7_M_ARMV8_M_FP)
	}
#else
	} else if (SCB->CFSR & SCB_CFSR_LSPERR_Msk) {
    14fa:	bf58      	it	pl
    14fc:	6a9a      	ldrpl	r2, [r3, #40]	; 0x28
		SYSMPU->CESR &= ~sperr;
	}
#endif /* defined(CONFIG_ARM_MPU) && defined(CONFIG_CPU_HAS_NXP_MPU) */

	/* clear BFSR sticky bits */
	SCB->CFSR |= SCB_CFSR_BUSFAULTSR_Msk;
    14fe:	6a9a      	ldr	r2, [r3, #40]	; 0x28

	*recoverable = memory_fault_recoverable(esf, true);
    1500:	2000      	movs	r0, #0
	SCB->CFSR |= SCB_CFSR_BUSFAULTSR_Msk;
    1502:	f442 427f 	orr.w	r2, r2, #65280	; 0xff00
    1506:	629a      	str	r2, [r3, #40]	; 0x28
	*recoverable = memory_fault_recoverable(esf, true);
    1508:	7008      	strb	r0, [r1, #0]

	return reason;
}
    150a:	4770      	bx	lr
    150c:	e000ed00 	.word	0xe000ed00

00001510 <z_arm_fault>:
 * @param callee_regs Callee-saved registers (R4-R11, PSP)
 *
 */
void z_arm_fault(uint32_t msp, uint32_t psp, uint32_t exc_return,
	_callee_saved_t *callee_regs)
{
    1510:	b570      	push	{r4, r5, r6, lr}
	uint32_t reason = K_ERR_CPU_EXCEPTION;
	int fault = SCB->ICSR & SCB_ICSR_VECTACTIVE_Msk;
    1512:	4b48      	ldr	r3, [pc, #288]	; (1634 <z_arm_fault+0x124>)
    1514:	685b      	ldr	r3, [r3, #4]
{
    1516:	b08a      	sub	sp, #40	; 0x28
    1518:	460d      	mov	r5, r1
	int fault = SCB->ICSR & SCB_ICSR_VECTACTIVE_Msk;
    151a:	f3c3 0308 	ubfx	r3, r3, #0, #9
    151e:	2600      	movs	r6, #0
    1520:	f386 8811 	msr	BASEPRI, r6
    1524:	f3bf 8f6f 	isb	sy
	if ((exc_return & EXC_RETURN_INDICATOR_PREFIX) !=
    1528:	f002 417f 	and.w	r1, r2, #4278190080	; 0xff000000
    152c:	f1b1 4f7f 	cmp.w	r1, #4278190080	; 0xff000000
    1530:	d111      	bne.n	1556 <z_arm_fault+0x46>
	if ((exc_return & EXC_RETURN_MODE_THREAD) &&
    1532:	f002 010c 	and.w	r1, r2, #12
    1536:	2908      	cmp	r1, #8
    1538:	d00d      	beq.n	1556 <z_arm_fault+0x46>
		if (exc_return & EXC_RETURN_MODE_THREAD) {
    153a:	0711      	lsls	r1, r2, #28
    153c:	d401      	bmi.n	1542 <z_arm_fault+0x32>
			ptr_esf = (z_arch_esf_t *)msp;
    153e:	4605      	mov	r5, r0
			*nested_exc = true;
    1540:	2601      	movs	r6, #1
	*recoverable = false;
    1542:	2200      	movs	r2, #0
	switch (fault) {
    1544:	3b03      	subs	r3, #3
	*recoverable = false;
    1546:	f88d 2007 	strb.w	r2, [sp, #7]
	switch (fault) {
    154a:	2b03      	cmp	r3, #3
    154c:	d86b      	bhi.n	1626 <z_arm_fault+0x116>
    154e:	e8df f003 	tbb	[pc, r3]
    1552:	5504      	.short	0x5504
    1554:	5d59      	.short	0x5d59
		return NULL;
    1556:	4635      	mov	r5, r6
    1558:	e7f3      	b.n	1542 <z_arm_fault+0x32>
	if ((SCB->HFSR & SCB_HFSR_VECTTBL_Msk) != 0) {
    155a:	4b36      	ldr	r3, [pc, #216]	; (1634 <z_arm_fault+0x124>)
    155c:	6adc      	ldr	r4, [r3, #44]	; 0x2c
    155e:	f014 0402 	ands.w	r4, r4, #2
    1562:	d160      	bne.n	1626 <z_arm_fault+0x116>
	} else if ((SCB->HFSR & SCB_HFSR_DEBUGEVT_Msk) != 0) {
    1564:	6ada      	ldr	r2, [r3, #44]	; 0x2c
    1566:	2a00      	cmp	r2, #0
    1568:	db15      	blt.n	1596 <z_arm_fault+0x86>
	} else if ((SCB->HFSR & SCB_HFSR_FORCED_Msk) != 0) {
    156a:	6ada      	ldr	r2, [r3, #44]	; 0x2c
    156c:	0052      	lsls	r2, r2, #1
    156e:	d512      	bpl.n	1596 <z_arm_fault+0x86>
	uint16_t fault_insn = *(ret_addr - 1);
    1570:	69aa      	ldr	r2, [r5, #24]
	if (((fault_insn & 0xff00) == _SVC_OPCODE) &&
    1572:	f832 1c02 	ldrh.w	r1, [r2, #-2]
    1576:	f64d 7202 	movw	r2, #57090	; 0xdf02
    157a:	4291      	cmp	r1, r2
    157c:	d00a      	beq.n	1594 <z_arm_fault+0x84>
		} else if (SCB_MMFSR != 0) {
    157e:	f893 2028 	ldrb.w	r2, [r3, #40]	; 0x28
    1582:	b30a      	cbz	r2, 15c8 <z_arm_fault+0xb8>
			reason = mem_manage_fault(esf, 1, recoverable);
    1584:	f10d 0207 	add.w	r2, sp, #7
    1588:	2101      	movs	r1, #1
		reason = mem_manage_fault(esf, 0, recoverable);
    158a:	4628      	mov	r0, r5
    158c:	f7ff ff66 	bl	145c <mem_manage_fault>
		reason = bus_fault(esf, 0, recoverable);
    1590:	4604      	mov	r4, r0
		break;
    1592:	e000      	b.n	1596 <z_arm_fault+0x86>
			reason = esf->basic.r0;
    1594:	682c      	ldr	r4, [r5, #0]
#ifdef CONFIG_DEBUG_COREDUMP
	z_arm_coredump_fault_sp = POINTER_TO_UINT(esf);
#endif

	reason = fault_handle(esf, fault, &recoverable);
	if (recoverable) {
    1596:	f89d 3007 	ldrb.w	r3, [sp, #7]
    159a:	b99b      	cbnz	r3, 15c4 <z_arm_fault+0xb4>
		return;
	}

	/* Copy ESF */
#if !defined(CONFIG_EXTRA_EXCEPTION_INFO)
	memcpy(&esf_copy, esf, sizeof(z_arch_esf_t));
    159c:	2220      	movs	r2, #32
    159e:	4629      	mov	r1, r5
    15a0:	a802      	add	r0, sp, #8
    15a2:	f003 f95e 	bl	4862 <memcpy>
	/* Overwrite stacked IPSR to mark a nested exception,
	 * or a return to Thread mode. Note that this may be
	 * required, if the retrieved ESF contents are invalid
	 * due to, for instance, a stacking error.
	 */
	if (nested_exc) {
    15a6:	9b09      	ldr	r3, [sp, #36]	; 0x24
    15a8:	2e00      	cmp	r6, #0
    15aa:	d03e      	beq.n	162a <z_arm_fault+0x11a>
		if ((esf_copy.basic.xpsr & IPSR_ISR_Msk) == 0) {
    15ac:	f3c3 0208 	ubfx	r2, r3, #0, #9
    15b0:	b922      	cbnz	r2, 15bc <z_arm_fault+0xac>
			esf_copy.basic.xpsr |= IPSR_ISR_Msk;
    15b2:	ea6f 2353 	mvn.w	r3, r3, lsr #9
    15b6:	ea6f 2343 	mvn.w	r3, r3, lsl #9
		}
	} else {
		esf_copy.basic.xpsr &= ~(IPSR_ISR_Msk);
    15ba:	9309      	str	r3, [sp, #36]	; 0x24
	}

	z_arm_fatal_error(reason, &esf_copy);
    15bc:	a902      	add	r1, sp, #8
    15be:	4620      	mov	r0, r4
    15c0:	f003 f924 	bl	480c <z_arm_fatal_error>
}
    15c4:	b00a      	add	sp, #40	; 0x28
    15c6:	bd70      	pop	{r4, r5, r6, pc}
		} else if (SCB_BFSR != 0) {
    15c8:	f893 2029 	ldrb.w	r2, [r3, #41]	; 0x29
    15cc:	b12a      	cbz	r2, 15da <z_arm_fault+0xca>
			reason = bus_fault(esf, 1, recoverable);
    15ce:	f10d 0107 	add.w	r1, sp, #7
    15d2:	2001      	movs	r0, #1
		reason = bus_fault(esf, 0, recoverable);
    15d4:	f7ff ff7e 	bl	14d4 <bus_fault.constprop.0>
    15d8:	e7da      	b.n	1590 <z_arm_fault+0x80>
		} else if (SCB_UFSR != 0) {
    15da:	8d5a      	ldrh	r2, [r3, #42]	; 0x2a
    15dc:	b292      	uxth	r2, r2
    15de:	2a00      	cmp	r2, #0
    15e0:	d0d9      	beq.n	1596 <z_arm_fault+0x86>
	if ((SCB->CFSR & SCB_CFSR_DIVBYZERO_Msk) != 0) {
    15e2:	6a9a      	ldr	r2, [r3, #40]	; 0x28
	if ((SCB->CFSR & SCB_CFSR_UNALIGNED_Msk) != 0) {
    15e4:	6a9a      	ldr	r2, [r3, #40]	; 0x28
	if ((SCB->CFSR & SCB_CFSR_NOCP_Msk) != 0) {
    15e6:	6a9a      	ldr	r2, [r3, #40]	; 0x28
	if ((SCB->CFSR & SCB_CFSR_INVPC_Msk) != 0) {
    15e8:	6a9a      	ldr	r2, [r3, #40]	; 0x28
	if ((SCB->CFSR & SCB_CFSR_INVSTATE_Msk) != 0) {
    15ea:	6a9a      	ldr	r2, [r3, #40]	; 0x28
	if ((SCB->CFSR & SCB_CFSR_UNDEFINSTR_Msk) != 0) {
    15ec:	6a9a      	ldr	r2, [r3, #40]	; 0x28
	SCB->CFSR |= SCB_CFSR_USGFAULTSR_Msk;
    15ee:	6a9a      	ldr	r2, [r3, #40]	; 0x28
    15f0:	ea6f 4202 	mvn.w	r2, r2, lsl #16
    15f4:	ea6f 4212 	mvn.w	r2, r2, lsr #16
    15f8:	629a      	str	r2, [r3, #40]	; 0x28
	return reason;
    15fa:	e7cc      	b.n	1596 <z_arm_fault+0x86>
		reason = mem_manage_fault(esf, 0, recoverable);
    15fc:	f10d 0207 	add.w	r2, sp, #7
    1600:	2100      	movs	r1, #0
    1602:	e7c2      	b.n	158a <z_arm_fault+0x7a>
		reason = bus_fault(esf, 0, recoverable);
    1604:	f10d 0107 	add.w	r1, sp, #7
    1608:	2000      	movs	r0, #0
    160a:	e7e3      	b.n	15d4 <z_arm_fault+0xc4>
	if ((SCB->CFSR & SCB_CFSR_DIVBYZERO_Msk) != 0) {
    160c:	4b09      	ldr	r3, [pc, #36]	; (1634 <z_arm_fault+0x124>)
    160e:	6a9a      	ldr	r2, [r3, #40]	; 0x28
	if ((SCB->CFSR & SCB_CFSR_UNALIGNED_Msk) != 0) {
    1610:	6a9a      	ldr	r2, [r3, #40]	; 0x28
	if ((SCB->CFSR & SCB_CFSR_NOCP_Msk) != 0) {
    1612:	6a9a      	ldr	r2, [r3, #40]	; 0x28
	if ((SCB->CFSR & SCB_CFSR_INVPC_Msk) != 0) {
    1614:	6a9a      	ldr	r2, [r3, #40]	; 0x28
	if ((SCB->CFSR & SCB_CFSR_INVSTATE_Msk) != 0) {
    1616:	6a9a      	ldr	r2, [r3, #40]	; 0x28
	if ((SCB->CFSR & SCB_CFSR_UNDEFINSTR_Msk) != 0) {
    1618:	6a9a      	ldr	r2, [r3, #40]	; 0x28
	SCB->CFSR |= SCB_CFSR_USGFAULTSR_Msk;
    161a:	6a9a      	ldr	r2, [r3, #40]	; 0x28
    161c:	ea6f 4202 	mvn.w	r2, r2, lsl #16
    1620:	ea6f 4212 	mvn.w	r2, r2, lsr #16
    1624:	629a      	str	r2, [r3, #40]	; 0x28
	uint32_t reason = K_ERR_CPU_EXCEPTION;
    1626:	2400      	movs	r4, #0
    1628:	e7b5      	b.n	1596 <z_arm_fault+0x86>
		esf_copy.basic.xpsr &= ~(IPSR_ISR_Msk);
    162a:	f423 73ff 	bic.w	r3, r3, #510	; 0x1fe
    162e:	f023 0301 	bic.w	r3, r3, #1
    1632:	e7c2      	b.n	15ba <z_arm_fault+0xaa>
    1634:	e000ed00 	.word	0xe000ed00

00001638 <z_arm_fault_init>:
 */
void z_arm_fault_init(void)
{
#if defined(CONFIG_ARMV6_M_ARMV8_M_BASELINE)
#elif defined(CONFIG_ARMV7_M_ARMV8_M_MAINLINE)
	SCB->CCR |= SCB_CCR_DIV_0_TRP_Msk;
    1638:	4a02      	ldr	r2, [pc, #8]	; (1644 <z_arm_fault_init+0xc>)
    163a:	6953      	ldr	r3, [r2, #20]
    163c:	f043 0310 	orr.w	r3, r3, #16
    1640:	6153      	str	r3, [r2, #20]
	SCB->CCR |= SCB_CCR_STKOFHFNMIGN_Msk;
#endif /* CONFIG_BUILTIN_STACK_GUARD */
#ifdef CONFIG_TRAP_UNALIGNED_ACCESS
	SCB->CCR |= SCB_CCR_UNALIGN_TRP_Msk;
#endif /* CONFIG_TRAP_UNALIGNED_ACCESS */
}
    1642:	4770      	bx	lr
    1644:	e000ed00 	.word	0xe000ed00

00001648 <z_arm_bus_fault>:
#else
#error Unknown ARM architecture
#endif /* CONFIG_ARMV6_M_ARMV8_M_BASELINE */
SECTION_SUBSEC_FUNC(TEXT,__fault,z_arm_exc_spurious)

	mrs r0, MSP
    1648:	f3ef 8008 	mrs	r0, MSP
	mrs r1, PSP
    164c:	f3ef 8109 	mrs	r1, PSP
	push {r0, lr}
    1650:	b501      	push	{r0, lr}
#elif defined(CONFIG_ARMV7_M_ARMV8_M_MAINLINE)
	push {r4-r11}
#endif
	mov  r3, sp /* pointer to _callee_saved_t */
#endif /* CONFIG_EXTRA_EXCEPTION_INFO */
	mov r2, lr /* EXC_RETURN */
    1652:	4672      	mov	r2, lr
	bl z_arm_fault
    1654:	f7ff ff5c 	bl	1510 <z_arm_fault>
	 * in this routine. Therefore, we can just reset
	 * the MSP to its value prior to entering the function
	 */
	add sp, #40
#endif
	pop {r0, pc}
    1658:	bd01      	pop	{r0, pc}
    165a:	bf00      	nop

0000165c <z_arm_interrupt_init>:
    165c:	4804      	ldr	r0, [pc, #16]	; (1670 <z_arm_interrupt_init+0x14>)
 *
 */

void z_arm_interrupt_init(void)
{
	int irq = 0;
    165e:	2300      	movs	r3, #0
    1660:	2120      	movs	r1, #32
    1662:	18c2      	adds	r2, r0, r3

	for (; irq < CONFIG_NUM_IRQS; irq++) {
    1664:	3301      	adds	r3, #1
    1666:	2b30      	cmp	r3, #48	; 0x30
    1668:	f882 1300 	strb.w	r1, [r2, #768]	; 0x300
    166c:	d1f9      	bne.n	1662 <z_arm_interrupt_init+0x6>
		NVIC_SetPriority((IRQn_Type)irq, _IRQ_PRIO_OFFSET);
	}
}
    166e:	4770      	bx	lr
    1670:	e000e100 	.word	0xe000e100

00001674 <__start>:
 */
SECTION_SUBSEC_FUNC(TEXT,_reset_section,__start)

#if defined(CONFIG_INIT_ARCH_HW_AT_BOOT)
    /* Reset CONTROL register */
    movs.n r0, #0
    1674:	2000      	movs	r0, #0
    msr CONTROL, r0
    1676:	f380 8814 	msr	CONTROL, r0
    isb
    167a:	f3bf 8f6f 	isb	sy
#endif /* CONFIG_CPU_CORTEX_M_HAS_SPLIM */

#endif /* CONFIG_INIT_ARCH_HW_AT_BOOT */

#if defined(CONFIG_PLATFORM_SPECIFIC_INIT)
    bl z_arm_platform_init
    167e:	f003 fd7b 	bl	5178 <z_arm_platform_init>
#endif

#if defined(CONFIG_INIT_ARCH_HW_AT_BOOT)
#if defined(CONFIG_CPU_HAS_ARM_MPU)
    /* Disable MPU */
    movs.n r0, #0
    1682:	2000      	movs	r0, #0
    ldr r1, =_SCS_MPU_CTRL
    1684:	490d      	ldr	r1, [pc, #52]	; (16bc <__start+0x48>)
    str r0, [r1]
    1686:	6008      	str	r0, [r1, #0]
    dsb
    1688:	f3bf 8f4f 	dsb	sy
#endif /* CONFIG_CPU_HAS_ARM_MPU */
    ldr r0, =z_main_stack + CONFIG_MAIN_STACK_SIZE
    168c:	480c      	ldr	r0, [pc, #48]	; (16c0 <__start+0x4c>)
    msr msp, r0
    168e:	f380 8808 	msr	MSP, r0

    /* Initialize core architecture registers and system blocks */
    bl z_arm_init_arch_hw_at_boot
    1692:	f000 f82b 	bl	16ec <z_arm_init_arch_hw_at_boot>

    /* lock interrupts: will get unlocked when switch to main task */
#if defined(CONFIG_ARMV6_M_ARMV8_M_BASELINE)
    cpsid i
#elif defined(CONFIG_ARMV7_M_ARMV8_M_MAINLINE)
    movs.n r0, #_EXC_IRQ_DEFAULT_PRIO
    1696:	2020      	movs	r0, #32
    msr BASEPRI, r0
    1698:	f380 8811 	msr	BASEPRI, r0

    /*
     * Set PSP and use it to boot without using MSP, so that it
     * gets set to z_interrupt_stacks during initialization.
     */
    ldr r0, =z_interrupt_stacks
    169c:	4809      	ldr	r0, [pc, #36]	; (16c4 <__start+0x50>)
    ldr r1, =CONFIG_ISR_STACK_SIZE + MPU_GUARD_ALIGN_AND_SIZE
    169e:	f44f 6102 	mov.w	r1, #2080	; 0x820
    adds r0, r0, r1
    16a2:	1840      	adds	r0, r0, r1
    msr PSP, r0
    16a4:	f380 8809 	msr	PSP, r0
    mrs r0, CONTROL
    16a8:	f3ef 8014 	mrs	r0, CONTROL
    movs r1, #2
    16ac:	2102      	movs	r1, #2
    orrs r0, r1 /* CONTROL_SPSEL_Msk */
    16ae:	4308      	orrs	r0, r1
    msr CONTROL, r0
    16b0:	f380 8814 	msr	CONTROL, r0
    /*
     * When changing the stack pointer, software must use an ISB instruction
     * immediately after the MSR instruction. This ensures that instructions
     * after the ISB instruction execute using the new stack pointer.
     */
    isb
    16b4:	f3bf 8f6f 	isb	sy
    /*
     * 'bl' jumps the furthest of the branch instructions that are
     * supported on all platforms. So it is used when jumping to z_arm_prep_c
     * (even though we do not intend to return).
     */
    bl z_arm_prep_c
    16b8:	f7ff fdea 	bl	1290 <z_arm_prep_c>
    ldr r1, =_SCS_MPU_CTRL
    16bc:	e000ed94 	.word	0xe000ed94
    ldr r0, =z_main_stack + CONFIG_MAIN_STACK_SIZE
    16c0:	200013a0 	.word	0x200013a0
    ldr r0, =z_interrupt_stacks
    16c4:	20001520 	.word	0x20001520

000016c8 <z_arm_clear_arm_mpu_config>:
void z_arm_clear_arm_mpu_config(void)
{
	int i;

	int num_regions =
		((MPU->TYPE & MPU_TYPE_DREGION_Msk) >> MPU_TYPE_DREGION_Pos);
    16c8:	4907      	ldr	r1, [pc, #28]	; (16e8 <z_arm_clear_arm_mpu_config+0x20>)
    16ca:	f8d1 2090 	ldr.w	r2, [r1, #144]	; 0x90

	for (i = 0; i < num_regions; i++) {
    16ce:	2300      	movs	r3, #0
	int num_regions =
    16d0:	f3c2 2207 	ubfx	r2, r2, #8, #8
* \param rnr Region number to be cleared.
*/
__STATIC_INLINE void ARM_MPU_ClrRegion(uint32_t rnr)
{
  MPU->RNR = rnr;
  MPU->RASR = 0U;
    16d4:	4618      	mov	r0, r3
	for (i = 0; i < num_regions; i++) {
    16d6:	4293      	cmp	r3, r2
    16d8:	d100      	bne.n	16dc <z_arm_clear_arm_mpu_config+0x14>
		ARM_MPU_ClrRegion(i);
	}
}
    16da:	4770      	bx	lr
  MPU->RNR = rnr;
    16dc:	f8c1 3098 	str.w	r3, [r1, #152]	; 0x98
  MPU->RASR = 0U;
    16e0:	f8c1 00a0 	str.w	r0, [r1, #160]	; 0xa0
	for (i = 0; i < num_regions; i++) {
    16e4:	3301      	adds	r3, #1
    16e6:	e7f6      	b.n	16d6 <z_arm_clear_arm_mpu_config+0xe>
    16e8:	e000ed00 	.word	0xe000ed00

000016ec <z_arm_init_arch_hw_at_boot>:
 * This routine resets Cortex-M system control block
 * components and core registers.
 *
 */
void z_arm_init_arch_hw_at_boot(void)
{
    16ec:	b508      	push	{r3, lr}
  __ASM volatile ("cpsid i" : : : "memory");
    16ee:	b672      	cpsid	i
  \details Assigns the given value to the Fault Mask register.
  \param [in]    faultMask  Fault Mask value to set
 */
__STATIC_FORCEINLINE void __set_FAULTMASK(uint32_t faultMask)
{
  __ASM volatile ("MSR faultmask, %0" : : "r" (faultMask) : "memory");
    16f0:	2300      	movs	r3, #0
    16f2:	f383 8813 	msr	FAULTMASK, r3

	/* Initialize System Control Block components */

#if defined(CONFIG_CPU_HAS_ARM_MPU) || defined(CONFIG_CPU_HAS_NXP_MPU)
	/* Clear MPU region configuration */
	z_arm_clear_arm_mpu_config();
    16f6:	f7ff ffe7 	bl	16c8 <z_arm_clear_arm_mpu_config>
#endif /* CONFIG_CPU_HAS_ARM_MPU */

	/* Disable NVIC interrupts */
	for (uint8_t i = 0; i < ARRAY_SIZE(NVIC->ICER); i++) {
		NVIC->ICER[i] = 0xFFFFFFFF;
    16fa:	4b14      	ldr	r3, [pc, #80]	; (174c <z_arm_init_arch_hw_at_boot+0x60>)
    16fc:	f04f 32ff 	mov.w	r2, #4294967295	; 0xffffffff
    1700:	f8c3 2080 	str.w	r2, [r3, #128]	; 0x80
    1704:	f8c3 2084 	str.w	r2, [r3, #132]	; 0x84
    1708:	f8c3 2088 	str.w	r2, [r3, #136]	; 0x88
    170c:	f8c3 208c 	str.w	r2, [r3, #140]	; 0x8c
    1710:	f8c3 2090 	str.w	r2, [r3, #144]	; 0x90
    1714:	f8c3 2094 	str.w	r2, [r3, #148]	; 0x94
    1718:	f8c3 2098 	str.w	r2, [r3, #152]	; 0x98
    171c:	f8c3 209c 	str.w	r2, [r3, #156]	; 0x9c
	}
	/* Clear pending NVIC interrupts */
	for (uint8_t i = 0; i < ARRAY_SIZE(NVIC->ICPR); i++) {
		NVIC->ICPR[i] = 0xFFFFFFFF;
    1720:	f8c3 2180 	str.w	r2, [r3, #384]	; 0x180
    1724:	f8c3 2184 	str.w	r2, [r3, #388]	; 0x184
    1728:	f8c3 2188 	str.w	r2, [r3, #392]	; 0x188
    172c:	f8c3 218c 	str.w	r2, [r3, #396]	; 0x18c
    1730:	f8c3 2190 	str.w	r2, [r3, #400]	; 0x190
    1734:	f8c3 2194 	str.w	r2, [r3, #404]	; 0x194
    1738:	f8c3 2198 	str.w	r2, [r3, #408]	; 0x198
    173c:	f8c3 219c 	str.w	r2, [r3, #412]	; 0x19c
  __ASM volatile ("cpsie i" : : : "memory");
    1740:	b662      	cpsie	i
  __ASM volatile ("dsb 0xF":::"memory");
    1742:	f3bf 8f4f 	dsb	sy
  __ASM volatile ("isb 0xF":::"memory");
    1746:	f3bf 8f6f 	isb	sy
	/* Restore Interrupts */
	__enable_irq();

	__DSB();
	__ISB();
}
    174a:	bd08      	pop	{r3, pc}
    174c:	e000e100 	.word	0xe000e100

00001750 <z_impl_k_thread_abort>:
#include <wait_q.h>
#include <sys/__assert.h>

void z_impl_k_thread_abort(k_tid_t thread)
{
	if (_current == thread) {
    1750:	4b08      	ldr	r3, [pc, #32]	; (1774 <z_impl_k_thread_abort+0x24>)
    1752:	689b      	ldr	r3, [r3, #8]
    1754:	4283      	cmp	r3, r0
    1756:	d10b      	bne.n	1770 <z_impl_k_thread_abort+0x20>
  __ASM volatile ("MRS %0, ipsr" : "=r" (result) );
    1758:	f3ef 8305 	mrs	r3, IPSR
		if (arch_is_in_isr()) {
    175c:	b143      	cbz	r3, 1770 <z_impl_k_thread_abort+0x20>
			 * should no longer run after we return, so
			 * Trigger PendSV, in case we are in one of the
			 * situations where the isr check is true but there
			 * is not an implicit scheduler invocation.
			 */
			SCB->ICSR |= SCB_ICSR_PENDSVSET_Msk;
    175e:	4b06      	ldr	r3, [pc, #24]	; (1778 <z_impl_k_thread_abort+0x28>)
    1760:	685a      	ldr	r2, [r3, #4]
    1762:	f042 5280 	orr.w	r2, r2, #268435456	; 0x10000000
    1766:	605a      	str	r2, [r3, #4]
			/* Clear any system calls that may be pending
			 * as they have a higher priority than the PendSV
			 * handler and will check the stack of the thread
			 * being aborted.
			 */
			SCB->SHCSR &= ~SCB_SHCSR_SVCALLPENDED_Msk;
    1768:	6a5a      	ldr	r2, [r3, #36]	; 0x24
    176a:	f422 4200 	bic.w	r2, r2, #32768	; 0x8000
    176e:	625a      	str	r2, [r3, #36]	; 0x24
		}
	}

	z_thread_abort(thread);
    1770:	f002 bb82 	b.w	3e78 <z_thread_abort>
    1774:	20000970 	.word	0x20000970
    1778:	e000ed00 	.word	0xe000ed00

0000177c <z_arm_configure_static_mpu_regions>:
	/* Configure the static MPU regions within firmware SRAM boundaries.
	 * Start address of the image is given by _image_ram_start. The end
	 * of the firmware SRAM area is marked by __kernel_ram_end, taking
	 * into account the unused SRAM area, as well.
	 */
	arm_core_mpu_configure_static_mpu_regions(static_regions,
    177c:	4b02      	ldr	r3, [pc, #8]	; (1788 <z_arm_configure_static_mpu_regions+0xc>)
    177e:	4a03      	ldr	r2, [pc, #12]	; (178c <z_arm_configure_static_mpu_regions+0x10>)
    1780:	4803      	ldr	r0, [pc, #12]	; (1790 <z_arm_configure_static_mpu_regions+0x14>)
    1782:	2101      	movs	r1, #1
    1784:	f000 b86e 	b.w	1864 <arm_core_mpu_configure_static_mpu_regions>
    1788:	20040000 	.word	0x20040000
    178c:	20000000 	.word	0x20000000
    1790:	00005434 	.word	0x00005434

00001794 <z_arm_configure_dynamic_mpu_regions>:
#endif /* CONFIG_USERSPACE */
	{
		/* A supervisor thread only has the normal thread stack to
		 * protect with a stack guard.
		 */
		guard_start = thread->stack_info.start - guard_size;
    1794:	6e42      	ldr	r2, [r0, #100]	; 0x64
	}

	__ASSERT(region_num < _MAX_DYNAMIC_MPU_REGIONS_NUM,
		"Out-of-bounds error for dynamic region map.");

	dynamic_regions[region_num].start = guard_start;
    1796:	4b05      	ldr	r3, [pc, #20]	; (17ac <z_arm_configure_dynamic_mpu_regions+0x18>)
		guard_start = thread->stack_info.start - guard_size;
    1798:	3a20      	subs	r2, #32
	dynamic_regions[region_num].start = guard_start;
    179a:	601a      	str	r2, [r3, #0]
	dynamic_regions[region_num].size = guard_size;
	dynamic_regions[region_num].attr = K_MEM_PARTITION_P_RO_U_NA;
    179c:	4a04      	ldr	r2, [pc, #16]	; (17b0 <z_arm_configure_dynamic_mpu_regions+0x1c>)
    179e:	2120      	movs	r1, #32
    17a0:	e9c3 1201 	strd	r1, r2, [r3, #4]

	region_num++;
#endif /* CONFIG_MPU_STACK_GUARD */

	/* Configure the dynamic MPU regions */
	arm_core_mpu_configure_dynamic_mpu_regions(dynamic_regions,
    17a4:	4618      	mov	r0, r3
    17a6:	2101      	movs	r1, #1
    17a8:	f000 b866 	b.w	1878 <arm_core_mpu_configure_dynamic_mpu_regions>
    17ac:	20000824 	.word	0x20000824
    17b0:	150b0000 	.word	0x150b0000

000017b4 <mpu_configure_regions>:
 * sanity check of the memory regions to be programmed.
 */
static int mpu_configure_regions(const struct z_arm_mpu_partition
	regions[], uint8_t regions_num, uint8_t start_reg_index,
	bool do_sanity_check)
{
    17b4:	b5f0      	push	{r4, r5, r6, r7, lr}
#endif /* CPU_CORTEX_M0PLUS | CPU_CORTEX_M3 | CPU_CORTEX_M4 */
}

static inline void set_region_number(uint32_t index)
{
	MPU->RNR = index;
    17b6:	4f1f      	ldr	r7, [pc, #124]	; (1834 <mpu_configure_regions+0x80>)
	int i;
	int reg_index = start_reg_index;

	for (i = 0; i < regions_num; i++) {
    17b8:	2600      	movs	r6, #0
    17ba:	428e      	cmp	r6, r1
    17bc:	db01      	blt.n	17c2 <mpu_configure_regions+0xe>
		/* Increment number of programmed MPU indices. */
		reg_index++;
	}

	return reg_index;
}
    17be:	4610      	mov	r0, r2
    17c0:	bdf0      	pop	{r4, r5, r6, r7, pc}
		if (regions[i].size == 0U) {
    17c2:	6844      	ldr	r4, [r0, #4]
    17c4:	b39c      	cbz	r4, 182e <mpu_configure_regions+0x7a>
		if (do_sanity_check &&
    17c6:	b153      	cbz	r3, 17de <mpu_configure_regions+0x2a>
	 * and greater or equal to the minimum
	 * MPU region size. Start address of the
	 * partition must align with size.
	 */
	int partition_is_valid =
		((part->size & (part->size - 1U)) == 0U)
    17c8:	f104 3cff 	add.w	ip, r4, #4294967295	; 0xffffffff
		&&
		(part->size >= CONFIG_ARM_MPU_REGION_MIN_ALIGN_AND_SIZE)
		&&
    17cc:	ea14 0f0c 	tst.w	r4, ip
    17d0:	d118      	bne.n	1804 <mpu_configure_regions+0x50>
		&&
    17d2:	2c1f      	cmp	r4, #31
    17d4:	d916      	bls.n	1804 <mpu_configure_regions+0x50>
		((part->start & (part->size - 1U)) == 0U);
    17d6:	6805      	ldr	r5, [r0, #0]
		&&
    17d8:	ea1c 0f05 	tst.w	ip, r5
    17dc:	d112      	bne.n	1804 <mpu_configure_regions+0x50>
 * to that power-of-two value.
 */
static inline uint32_t size_to_mpu_rasr_size(uint32_t size)
{
	/* The minimal supported region size is 32 bytes */
	if (size <= 32U) {
    17de:	2c20      	cmp	r4, #32
	region_conf.base = new_region->start;
    17e0:	6805      	ldr	r5, [r0, #0]
#if defined(CONFIG_CPU_AARCH32_CORTEX_R)
	(void) size;

	p_attr->rasr = attr->rasr_attr;
#else
	p_attr->rasr = attr->rasr_attr | size_to_mpu_rasr_size(size);
    17e2:	f8d0 c008 	ldr.w	ip, [r0, #8]
		reg_index = mpu_configure_region(reg_index, &regions[i]);
    17e6:	b2d2      	uxtb	r2, r2
	if (size <= 32U) {
    17e8:	d90f      	bls.n	180a <mpu_configure_regions+0x56>
	if (size > (1UL << 31)) {
    17ea:	f1b4 4f00 	cmp.w	r4, #2147483648	; 0x80000000
    17ee:	d80e      	bhi.n	180e <mpu_configure_regions+0x5a>
	return ((32 - __builtin_clz(size - 1U) - 2 + 1) << MPU_RASR_SIZE_Pos) &
    17f0:	3c01      	subs	r4, #1
    17f2:	fab4 f484 	clz	r4, r4
    17f6:	f1c4 041f 	rsb	r4, r4, #31
    17fa:	0064      	lsls	r4, r4, #1
	if (index > (get_num_regions() - 1U)) {
    17fc:	2a07      	cmp	r2, #7
	p_attr->rasr = attr->rasr_attr | size_to_mpu_rasr_size(size);
    17fe:	ea4c 0404 	orr.w	r4, ip, r4
    1802:	d906      	bls.n	1812 <mpu_configure_regions+0x5e>
			return -EINVAL;
    1804:	f06f 0215 	mvn.w	r2, #21
    1808:	e7d9      	b.n	17be <mpu_configure_regions+0xa>
		return REGION_32B;
    180a:	2408      	movs	r4, #8
    180c:	e7f6      	b.n	17fc <mpu_configure_regions+0x48>
		return REGION_4G;
    180e:	243e      	movs	r4, #62	; 0x3e
    1810:	e7f4      	b.n	17fc <mpu_configure_regions+0x48>
	MPU->RBAR = (region_conf->base & MPU_RBAR_ADDR_Msk)
    1812:	f025 051f 	bic.w	r5, r5, #31
				| MPU_RBAR_VALID_Msk | index;
    1816:	4315      	orrs	r5, r2
    1818:	f045 0510 	orr.w	r5, r5, #16
	MPU->RASR = region_conf->attr.rasr | MPU_RASR_ENABLE_Msk;
    181c:	f044 0401 	orr.w	r4, r4, #1
    1820:	f8c7 2098 	str.w	r2, [r7, #152]	; 0x98
	MPU->RBAR = (region_conf->base & MPU_RBAR_ADDR_Msk)
    1824:	f8c7 509c 	str.w	r5, [r7, #156]	; 0x9c
		reg_index++;
    1828:	3201      	adds	r2, #1
	MPU->RASR = region_conf->attr.rasr | MPU_RASR_ENABLE_Msk;
    182a:	f8c7 40a0 	str.w	r4, [r7, #160]	; 0xa0
	for (i = 0; i < regions_num; i++) {
    182e:	3601      	adds	r6, #1
    1830:	300c      	adds	r0, #12
    1832:	e7c2      	b.n	17ba <mpu_configure_regions+0x6>
    1834:	e000ed00 	.word	0xe000ed00

00001838 <arm_core_mpu_enable>:
void arm_core_mpu_enable(void)
{
	/* Enable MPU and use the default memory map as a
	 * background region for privileged software access.
	 */
	MPU->CTRL = MPU_CTRL_ENABLE_Msk | MPU_CTRL_PRIVDEFENA_Msk;
    1838:	4b04      	ldr	r3, [pc, #16]	; (184c <arm_core_mpu_enable+0x14>)
    183a:	2205      	movs	r2, #5
    183c:	f8c3 2094 	str.w	r2, [r3, #148]	; 0x94
  __ASM volatile ("dsb 0xF":::"memory");
    1840:	f3bf 8f4f 	dsb	sy
  __ASM volatile ("isb 0xF":::"memory");
    1844:	f3bf 8f6f 	isb	sy

	/* Make sure that all the registers are set before proceeding */
	__DSB();
	__ISB();
}
    1848:	4770      	bx	lr
    184a:	bf00      	nop
    184c:	e000ed00 	.word	0xe000ed00

00001850 <arm_core_mpu_disable>:
  __ASM volatile ("dmb 0xF":::"memory");
    1850:	f3bf 8f5f 	dmb	sy
{
	/* Force any outstanding transfers to complete before disabling MPU */
	__DMB();

	/* Disable MPU */
	MPU->CTRL = 0;
    1854:	4b02      	ldr	r3, [pc, #8]	; (1860 <arm_core_mpu_disable+0x10>)
    1856:	2200      	movs	r2, #0
    1858:	f8c3 2094 	str.w	r2, [r3, #148]	; 0x94
}
    185c:	4770      	bx	lr
    185e:	bf00      	nop
    1860:	e000ed00 	.word	0xe000ed00

00001864 <arm_core_mpu_configure_static_mpu_regions>:
 * @brief configure fixed (static) MPU regions.
 */
void arm_core_mpu_configure_static_mpu_regions(const struct z_arm_mpu_partition
	static_regions[], const uint8_t regions_num,
	const uint32_t background_area_start, const uint32_t background_area_end)
{
    1864:	b510      	push	{r4, lr}
static int mpu_configure_static_mpu_regions(const struct z_arm_mpu_partition
	static_regions[], const uint8_t regions_num,
	const uint32_t background_area_base,
	const uint32_t background_area_end)
{
	int mpu_reg_index = static_regions_num;
    1866:	4c03      	ldr	r4, [pc, #12]	; (1874 <arm_core_mpu_configure_static_mpu_regions+0x10>)
	 * programmed on top of SRAM region configuration.
	 */
	ARG_UNUSED(background_area_base);
	ARG_UNUSED(background_area_end);

	mpu_reg_index = mpu_configure_regions(static_regions,
    1868:	2301      	movs	r3, #1
    186a:	7822      	ldrb	r2, [r4, #0]
    186c:	f7ff ffa2 	bl	17b4 <mpu_configure_regions>
		regions_num, mpu_reg_index, true);

	static_regions_num = mpu_reg_index;
    1870:	7020      	strb	r0, [r4, #0]
					       background_area_start, background_area_end) == -EINVAL) {

		__ASSERT(0, "Configuring %u static MPU regions failed\n",
			regions_num);
	}
}
    1872:	bd10      	pop	{r4, pc}
    1874:	20000b80 	.word	0x20000b80

00001878 <arm_core_mpu_configure_dynamic_mpu_regions>:
/**
 * @brief configure dynamic MPU regions.
 */
void arm_core_mpu_configure_dynamic_mpu_regions(const struct z_arm_mpu_partition
	dynamic_regions[], uint8_t regions_num)
{
    1878:	b508      	push	{r3, lr}

	/* In ARMv7-M architecture the dynamic regions are
	 * programmed on top of existing SRAM region configuration.
	 */

	mpu_reg_index = mpu_configure_regions(dynamic_regions,
    187a:	4a09      	ldr	r2, [pc, #36]	; (18a0 <arm_core_mpu_configure_dynamic_mpu_regions+0x28>)
    187c:	2300      	movs	r3, #0
    187e:	7812      	ldrb	r2, [r2, #0]
    1880:	f7ff ff98 	bl	17b4 <mpu_configure_regions>
		regions_num, mpu_reg_index, false);

	if (mpu_reg_index != -EINVAL) {
    1884:	f110 0f16 	cmn.w	r0, #22
    1888:	d002      	beq.n	1890 <arm_core_mpu_configure_dynamic_mpu_regions+0x18>
  MPU->RNR = rnr;
    188a:	4a06      	ldr	r2, [pc, #24]	; (18a4 <arm_core_mpu_configure_dynamic_mpu_regions+0x2c>)

		/* Disable the non-programmed MPU regions. */
		for (int i = mpu_reg_index; i < get_num_regions(); i++) {
    188c:	2807      	cmp	r0, #7
    188e:	dd00      	ble.n	1892 <arm_core_mpu_configure_dynamic_mpu_regions+0x1a>
		== -EINVAL) {

		__ASSERT(0, "Configuring %u dynamic MPU regions failed\n",
			regions_num);
	}
}
    1890:	bd08      	pop	{r3, pc}
    1892:	f8c2 0098 	str.w	r0, [r2, #152]	; 0x98
  MPU->RASR = 0U;
    1896:	f8c2 30a0 	str.w	r3, [r2, #160]	; 0xa0
    189a:	3001      	adds	r0, #1
    189c:	e7f6      	b.n	188c <arm_core_mpu_configure_dynamic_mpu_regions+0x14>
    189e:	bf00      	nop
    18a0:	20000b80 	.word	0x20000b80
    18a4:	e000ed00 	.word	0xe000ed00

000018a8 <z_arm_mpu_init>:
 */
int z_arm_mpu_init(void)
{
	uint32_t r_index;

	if (mpu_config.num_regions > get_num_regions()) {
    18a8:	4914      	ldr	r1, [pc, #80]	; (18fc <z_arm_mpu_init+0x54>)
    18aa:	6808      	ldr	r0, [r1, #0]
    18ac:	2808      	cmp	r0, #8
{
    18ae:	b510      	push	{r4, lr}
	if (mpu_config.num_regions > get_num_regions()) {
    18b0:	d821      	bhi.n	18f6 <z_arm_mpu_init+0x4e>
		return -1;
	}

	LOG_DBG("total region count: %d", get_num_regions());

	arm_core_mpu_disable();
    18b2:	f7ff ffcd 	bl	1850 <arm_core_mpu_disable>
    18b6:	4c12      	ldr	r4, [pc, #72]	; (1900 <z_arm_mpu_init+0x58>)
    18b8:	6849      	ldr	r1, [r1, #4]

	/* Architecture-specific configuration */
	mpu_init();

	/* Program fixed regions configured at SOC definition. */
	for (r_index = 0U; r_index < mpu_config.num_regions; r_index++) {
    18ba:	2200      	movs	r2, #0
    18bc:	4290      	cmp	r0, r2
    18be:	f101 010c 	add.w	r1, r1, #12
    18c2:	d105      	bne.n	18d0 <z_arm_mpu_init+0x28>
		region_init(r_index, &mpu_config.mpu_regions[r_index]);
	}

	/* Update the number of programmed MPU regions. */
	static_regions_num = mpu_config.num_regions;
    18c4:	4b0f      	ldr	r3, [pc, #60]	; (1904 <z_arm_mpu_init+0x5c>)
    18c6:	7018      	strb	r0, [r3, #0]


	arm_core_mpu_enable();
    18c8:	f7ff ffb6 	bl	1838 <arm_core_mpu_enable>
		(MPU->TYPE & MPU_TYPE_DREGION_Msk) >> MPU_TYPE_DREGION_Pos ==
		NUM_MPU_REGIONS,
		"Invalid number of MPU regions\n");
#endif /* CORTEX_M0PLUS || CPU_CORTEX_M3 || CPU_CORTEX_M4 */

	return 0;
    18cc:	2000      	movs	r0, #0
}
    18ce:	bd10      	pop	{r4, pc}
    18d0:	f8c4 2098 	str.w	r2, [r4, #152]	; 0x98
	MPU->RBAR = (region_conf->base & MPU_RBAR_ADDR_Msk)
    18d4:	f851 3c0c 	ldr.w	r3, [r1, #-12]
    18d8:	f023 031f 	bic.w	r3, r3, #31
				| MPU_RBAR_VALID_Msk | index;
    18dc:	4313      	orrs	r3, r2
    18de:	f043 0310 	orr.w	r3, r3, #16
	MPU->RBAR = (region_conf->base & MPU_RBAR_ADDR_Msk)
    18e2:	f8c4 309c 	str.w	r3, [r4, #156]	; 0x9c
	MPU->RASR = region_conf->attr.rasr | MPU_RASR_ENABLE_Msk;
    18e6:	f851 3c04 	ldr.w	r3, [r1, #-4]
    18ea:	f043 0301 	orr.w	r3, r3, #1
    18ee:	f8c4 30a0 	str.w	r3, [r4, #160]	; 0xa0
	for (r_index = 0U; r_index < mpu_config.num_regions; r_index++) {
    18f2:	3201      	adds	r2, #1
    18f4:	e7e2      	b.n	18bc <z_arm_mpu_init+0x14>
		return -1;
    18f6:	f04f 30ff 	mov.w	r0, #4294967295	; 0xffffffff
    18fa:	e7e8      	b.n	18ce <z_arm_mpu_init+0x26>
    18fc:	00005440 	.word	0x00005440
    1900:	e000ed00 	.word	0xe000ed00
    1904:	20000b80 	.word	0x20000b80

00001908 <__stdout_hook_install>:

static int (*_stdout_hook)(int) = _stdout_hook_default;

void __stdout_hook_install(int (*hook)(int))
{
	_stdout_hook = hook;
    1908:	4b01      	ldr	r3, [pc, #4]	; (1910 <__stdout_hook_install+0x8>)
    190a:	6018      	str	r0, [r3, #0]
}
    190c:	4770      	bx	lr
    190e:	bf00      	nop
    1910:	20000028 	.word	0x20000028

00001914 <nordicsemi_nrf52_init>:
	nrf_power_gpregret_set(NRF_POWER, (uint8_t)type);
	NVIC_SystemReset();
}

static int nordicsemi_nrf52_init(const struct device *arg)
{
    1914:	b510      	push	{r4, lr}
	__asm__ volatile(
    1916:	f04f 0320 	mov.w	r3, #32
    191a:	f3ef 8011 	mrs	r0, BASEPRI
    191e:	f383 8812 	msr	BASEPRI_MAX, r3
    1922:	f3bf 8f6f 	isb	sy

	key = irq_lock();

#ifdef CONFIG_NRF_ENABLE_ICACHE
	/* Enable the instruction cache */
	NRF_NVMC->ICACHECNF = NVMC_ICACHECNF_CACHEEN_Msk;
    1926:	4a11      	ldr	r2, [pc, #68]	; (196c <nordicsemi_nrf52_init+0x58>)
    1928:	2301      	movs	r3, #1
    192a:	f8c2 3540 	str.w	r3, [r2, #1344]	; 0x540
#endif

#if NRF_POWER_HAS_DCDCEN
NRF_STATIC_INLINE void nrf_power_dcdcen_set(NRF_POWER_Type * p_reg, bool enable)
{
    p_reg->DCDCEN = (enable ? POWER_DCDCEN_DCDCEN_Enabled : POWER_DCDCEN_DCDCEN_Disabled) <<
    192e:	f04f 4280 	mov.w	r2, #1073741824	; 0x40000000
{
    #ifndef NRF52_SERIES
        return false;
    #else
        #if defined (NRF52840_XXAA) || defined (DEVELOP_IN_NRF52840)
            uint32_t var1 = *(uint32_t *)0x10000130ul;
    1932:	f04f 5180 	mov.w	r1, #268435456	; 0x10000000
    1936:	f8c2 3578 	str.w	r3, [r2, #1400]	; 0x578
            uint32_t var2 = *(uint32_t *)0x10000134ul;
        #endif
        #if defined (NRF52840_XXAA) || defined (DEVELOP_IN_NRF52840)
            if (var1 == 0x08)
    193a:	f8d1 4130 	ldr.w	r4, [r1, #304]	; 0x130
    193e:	2c08      	cmp	r4, #8
    1940:	d108      	bne.n	1954 <nordicsemi_nrf52_init+0x40>
            uint32_t var2 = *(uint32_t *)0x10000134ul;
    1942:	f8d1 1134 	ldr.w	r1, [r1, #308]	; 0x134
            {
                switch(var2)
    1946:	2905      	cmp	r1, #5
    1948:	d804      	bhi.n	1954 <nordicsemi_nrf52_init+0x40>
#endif // defined(POWER_RAM_POWER_S0POWER_Msk)

#if NRF_POWER_HAS_DCDCEN_VDDH
NRF_STATIC_INLINE void nrf_power_dcdcen_vddh_set(NRF_POWER_Type * p_reg, bool enable)
{
    if (enable && nrf52_errata_197())
    194a:	4c09      	ldr	r4, [pc, #36]	; (1970 <nordicsemi_nrf52_init+0x5c>)
    194c:	5c61      	ldrb	r1, [r4, r1]
    194e:	b109      	cbz	r1, 1954 <nordicsemi_nrf52_init+0x40>
    {
        // Workaround for anomaly 197 "POWER: DCDC of REG0 not functional".
        *(volatile uint32_t *)0x40000638ul = 1ul;
    1950:	f8c2 3638 	str.w	r3, [r2, #1592]	; 0x638
    }
    p_reg->DCDCEN0 = (enable ? POWER_DCDCEN0_DCDCEN_Enabled : POWER_DCDCEN0_DCDCEN_Disabled) <<
    1954:	f04f 4380 	mov.w	r3, #1073741824	; 0x40000000
    1958:	2201      	movs	r2, #1
    195a:	f8c3 2580 	str.w	r2, [r3, #1408]	; 0x580
	__asm__ volatile(
    195e:	f380 8811 	msr	BASEPRI, r0
    1962:	f3bf 8f6f 	isb	sy
	NMI_INIT();

	irq_unlock(key);

	return 0;
}
    1966:	2000      	movs	r0, #0
    1968:	bd10      	pop	{r4, pc}
    196a:	bf00      	nop
    196c:	4001e000 	.word	0x4001e000
    1970:	000056a2 	.word	0x000056a2

00001974 <sys_arch_reboot>:
    *p_gpregret = val;
    1974:	f04f 4380 	mov.w	r3, #1073741824	; 0x40000000
    1978:	b2c0      	uxtb	r0, r0
    197a:	f8c3 051c 	str.w	r0, [r3, #1308]	; 0x51c
  __ASM volatile ("dsb 0xF":::"memory");
    197e:	f3bf 8f4f 	dsb	sy
__NO_RETURN __STATIC_INLINE void __NVIC_SystemReset(void)
{
  __DSB();                                                          /* Ensure all outstanding memory accesses included
                                                                       buffered write are completed before reset */
  SCB->AIRCR  = (uint32_t)((0x5FAUL << SCB_AIRCR_VECTKEY_Pos)    |
                           (SCB->AIRCR & SCB_AIRCR_PRIGROUP_Msk) |
    1982:	4905      	ldr	r1, [pc, #20]	; (1998 <sys_arch_reboot+0x24>)
    1984:	4b05      	ldr	r3, [pc, #20]	; (199c <sys_arch_reboot+0x28>)
    1986:	68ca      	ldr	r2, [r1, #12]
    1988:	f402 62e0 	and.w	r2, r2, #1792	; 0x700
    198c:	4313      	orrs	r3, r2
  SCB->AIRCR  = (uint32_t)((0x5FAUL << SCB_AIRCR_VECTKEY_Pos)    |
    198e:	60cb      	str	r3, [r1, #12]
    1990:	f3bf 8f4f 	dsb	sy
                            SCB_AIRCR_SYSRESETREQ_Msk    );         /* Keep priority group unchanged */
  __DSB();                                                          /* Ensure completion of memory access */

  for(;;)                                                           /* wait until reset */
  {
    __NOP();
    1994:	bf00      	nop
  for(;;)                                                           /* wait until reset */
    1996:	e7fd      	b.n	1994 <sys_arch_reboot+0x20>
    1998:	e000ed00 	.word	0xe000ed00
    199c:	05fa0004 	.word	0x05fa0004

000019a0 <arch_busy_wait>:

#else // NRFX_CHECK(NRFX_DELAY_DWT_BASED)

NRF_STATIC_INLINE void nrfx_coredep_delay_us(uint32_t time_us)
{
    if (time_us == 0)
    19a0:	b120      	cbz	r0, 19ac <arch_busy_wait+0xc>
    };

    typedef void (* delay_func_t)(uint32_t);
    const delay_func_t delay_cycles =
        // Set LSB to 1 to execute the code in the Thumb mode.
        (delay_func_t)((((uint32_t)delay_machine_code) | 1));
    19a2:	4b03      	ldr	r3, [pc, #12]	; (19b0 <arch_busy_wait+0x10>)
    uint32_t cycles = time_us * NRFX_DELAY_CPU_FREQ_MHZ;
    delay_cycles(cycles);
    19a4:	0180      	lsls	r0, r0, #6
    19a6:	f043 0301 	orr.w	r3, r3, #1
    19aa:	4718      	bx	r3

void arch_busy_wait(uint32_t time_us)
{
	nrfx_coredep_delay_us(time_us);
}
    19ac:	4770      	bx	lr
    19ae:	bf00      	nop
    19b0:	00005400 	.word	0x00005400

000019b4 <onoff_stop>:
}

static clock_control_subsys_t get_subsys(struct onoff_manager *mgr)
{
	struct nrf_clock_control_data *data = CLOCK_DEVICE->data;
	size_t offset = (size_t)(mgr - data->mgr);
    19b4:	4b08      	ldr	r3, [pc, #32]	; (19d8 <onoff_stop+0x24>)
	return (clock_control_subsys_t)offset;
}

static void onoff_stop(struct onoff_manager *mgr,
			onoff_notify_fn notify)
{
    19b6:	b570      	push	{r4, r5, r6, lr}
	size_t offset = (size_t)(mgr - data->mgr);
    19b8:	1ac3      	subs	r3, r0, r3
{
    19ba:	460d      	mov	r5, r1
	int res;

	res = stop(CLOCK_DEVICE, get_subsys(mgr), CTX_ONOFF);
    19bc:	4907      	ldr	r1, [pc, #28]	; (19dc <onoff_stop+0x28>)
	size_t offset = (size_t)(mgr - data->mgr);
    19be:	109b      	asrs	r3, r3, #2
{
    19c0:	4604      	mov	r4, r0
	res = stop(CLOCK_DEVICE, get_subsys(mgr), CTX_ONOFF);
    19c2:	4359      	muls	r1, r3
    19c4:	4806      	ldr	r0, [pc, #24]	; (19e0 <onoff_stop+0x2c>)
    19c6:	2240      	movs	r2, #64	; 0x40
    19c8:	f002 ff90 	bl	48ec <stop>
	notify(mgr, res);
    19cc:	462b      	mov	r3, r5
	res = stop(CLOCK_DEVICE, get_subsys(mgr), CTX_ONOFF);
    19ce:	4601      	mov	r1, r0
	notify(mgr, res);
    19d0:	4620      	mov	r0, r4
}
    19d2:	e8bd 4070 	ldmia.w	sp!, {r4, r5, r6, lr}
	notify(mgr, res);
    19d6:	4718      	bx	r3
    19d8:	20000840 	.word	0x20000840
    19dc:	b6db6db7 	.word	0xb6db6db7
    19e0:	000051e4 	.word	0x000051e4

000019e4 <onoff_start>:
	notify(mgr, 0);
}

static void onoff_start(struct onoff_manager *mgr,
			onoff_notify_fn notify)
{
    19e4:	b573      	push	{r0, r1, r4, r5, r6, lr}
	size_t offset = (size_t)(mgr - data->mgr);
    19e6:	4c0c      	ldr	r4, [pc, #48]	; (1a18 <onoff_start+0x34>)
	int err;

	err = async_start(CLOCK_DEVICE, get_subsys(mgr),
    19e8:	4a0c      	ldr	r2, [pc, #48]	; (1a1c <onoff_start+0x38>)
    19ea:	2340      	movs	r3, #64	; 0x40
	size_t offset = (size_t)(mgr - data->mgr);
    19ec:	1b04      	subs	r4, r0, r4
	err = async_start(CLOCK_DEVICE, get_subsys(mgr),
    19ee:	9300      	str	r3, [sp, #0]
{
    19f0:	460d      	mov	r5, r1
	err = async_start(CLOCK_DEVICE, get_subsys(mgr),
    19f2:	460b      	mov	r3, r1
    19f4:	490a      	ldr	r1, [pc, #40]	; (1a20 <onoff_start+0x3c>)
	size_t offset = (size_t)(mgr - data->mgr);
    19f6:	10a4      	asrs	r4, r4, #2
	err = async_start(CLOCK_DEVICE, get_subsys(mgr),
    19f8:	4361      	muls	r1, r4
{
    19fa:	4606      	mov	r6, r0
	err = async_start(CLOCK_DEVICE, get_subsys(mgr),
    19fc:	4809      	ldr	r0, [pc, #36]	; (1a24 <onoff_start+0x40>)
    19fe:	f002 ffa1 	bl	4944 <async_start>
			  onoff_started_callback, notify, CTX_ONOFF);
	if (err < 0) {
    1a02:	1e01      	subs	r1, r0, #0
    1a04:	da05      	bge.n	1a12 <onoff_start+0x2e>
		notify(mgr, err);
    1a06:	4630      	mov	r0, r6
    1a08:	462b      	mov	r3, r5
	}
}
    1a0a:	b002      	add	sp, #8
    1a0c:	e8bd 4070 	ldmia.w	sp!, {r4, r5, r6, lr}
		notify(mgr, err);
    1a10:	4718      	bx	r3
}
    1a12:	b002      	add	sp, #8
    1a14:	bd70      	pop	{r4, r5, r6, pc}
    1a16:	bf00      	nop
    1a18:	20000840 	.word	0x20000840
    1a1c:	000049b5 	.word	0x000049b5
    1a20:	b6db6db7 	.word	0xb6db6db7
    1a24:	000051e4 	.word	0x000051e4

00001a28 <clk_init>:
	static const struct onoff_transitions transitions = {
		.start = onoff_start,
		.stop = onoff_stop
	};

	IRQ_CONNECT(DT_INST_IRQN(0), DT_INST_IRQ(0, priority),
    1a28:	2200      	movs	r2, #0
{
    1a2a:	b570      	push	{r4, r5, r6, lr}
	IRQ_CONNECT(DT_INST_IRQN(0), DT_INST_IRQ(0, priority),
    1a2c:	2101      	movs	r1, #1
{
    1a2e:	4604      	mov	r4, r0
	IRQ_CONNECT(DT_INST_IRQN(0), DT_INST_IRQ(0, priority),
    1a30:	4610      	mov	r0, r2
    1a32:	f7ff fc11 	bl	1258 <z_arm_irq_priority_set>
		    nrfx_isr, nrfx_power_clock_irq_handler, 0);

	nrfx_err = nrfx_clock_init(clock_event_handler);
    1a36:	480f      	ldr	r0, [pc, #60]	; (1a74 <clk_init+0x4c>)
    1a38:	f001 f862 	bl	2b00 <nrfx_clock_init>
	if (nrfx_err != NRFX_SUCCESS) {
    1a3c:	4b0e      	ldr	r3, [pc, #56]	; (1a78 <clk_init+0x50>)
    1a3e:	4298      	cmp	r0, r3
    1a40:	d115      	bne.n	1a6e <clk_init+0x46>
		struct nrf_clock_control_data *data = dev->data;

		z_nrf_clock_calibration_init(data->mgr);
	}

	nrfx_clock_enable();
    1a42:	f003 f97b 	bl	4d3c <nrfx_clock_enable>
	struct nrf_clock_control_data *data = dev->data;
    1a46:	6926      	ldr	r6, [r4, #16]
	for (enum clock_control_nrf_type i = 0;
		i < CLOCK_CONTROL_NRF_TYPE_COUNT; i++) {
		struct nrf_clock_control_sub_data *subdata =
						get_sub_data(dev, i);

		err = onoff_manager_init(get_onoff_manager(dev, i),
    1a48:	490c      	ldr	r1, [pc, #48]	; (1a7c <clk_init+0x54>)
    1a4a:	4630      	mov	r0, r6
    1a4c:	f002 fe17 	bl	467e <onoff_manager_init>
					 &transitions);
		if (err < 0) {
    1a50:	2800      	cmp	r0, #0
    1a52:	db0b      	blt.n	1a6c <clk_init+0x44>
	struct nrf_clock_control_data *data = dev->data;
    1a54:	6924      	ldr	r4, [r4, #16]
		err = onoff_manager_init(get_onoff_manager(dev, i),
    1a56:	4909      	ldr	r1, [pc, #36]	; (1a7c <clk_init+0x54>)
			return err;
		}

		subdata->flags = CLOCK_CONTROL_STATUS_OFF;
    1a58:	2501      	movs	r5, #1
    1a5a:	6435      	str	r5, [r6, #64]	; 0x40
		err = onoff_manager_init(get_onoff_manager(dev, i),
    1a5c:	f104 001c 	add.w	r0, r4, #28
    1a60:	f002 fe0d 	bl	467e <onoff_manager_init>
		if (err < 0) {
    1a64:	2800      	cmp	r0, #0
    1a66:	db01      	blt.n	1a6c <clk_init+0x44>
		subdata->flags = CLOCK_CONTROL_STATUS_OFF;
    1a68:	64e5      	str	r5, [r4, #76]	; 0x4c
	}

	return 0;
    1a6a:	2000      	movs	r0, #0
}
    1a6c:	bd70      	pop	{r4, r5, r6, pc}
		return -EIO;
    1a6e:	f06f 0004 	mvn.w	r0, #4
    1a72:	e7fb      	b.n	1a6c <clk_init+0x44>
    1a74:	00001ab5 	.word	0x00001ab5
    1a78:	0bad0000 	.word	0x0bad0000
    1a7c:	00005488 	.word	0x00005488

00001a80 <clkstarted_handle.constprop.0>:
static void clkstarted_handle(const struct device *dev,
    1a80:	4601      	mov	r1, r0
	clock_control_cb_t callback = sub_data->cb;
    1a82:	230c      	movs	r3, #12
    1a84:	4809      	ldr	r0, [pc, #36]	; (1aac <clkstarted_handle.constprop.0+0x2c>)
    1a86:	434b      	muls	r3, r1
static void clkstarted_handle(const struct device *dev,
    1a88:	b570      	push	{r4, r5, r6, lr}
	clock_control_cb_t callback = sub_data->cb;
    1a8a:	18c4      	adds	r4, r0, r3
	void *user_data = sub_data->user_data;
    1a8c:	e9d4 560e 	ldrd	r5, r6, [r4, #56]	; 0x38
	sub_data->cb = NULL;
    1a90:	2200      	movs	r2, #0
	set_on_state(&sub_data->flags);
    1a92:	3340      	adds	r3, #64	; 0x40
	sub_data->cb = NULL;
    1a94:	63a2      	str	r2, [r4, #56]	; 0x38
	set_on_state(&sub_data->flags);
    1a96:	4418      	add	r0, r3
    1a98:	f002 ff15 	bl	48c6 <set_on_state>
	if (callback) {
    1a9c:	b12d      	cbz	r5, 1aaa <clkstarted_handle.constprop.0+0x2a>
		callback(dev, (clock_control_subsys_t)type, user_data);
    1a9e:	4632      	mov	r2, r6
    1aa0:	462b      	mov	r3, r5
    1aa2:	4803      	ldr	r0, [pc, #12]	; (1ab0 <clkstarted_handle.constprop.0+0x30>)
}
    1aa4:	e8bd 4070 	ldmia.w	sp!, {r4, r5, r6, lr}
		callback(dev, (clock_control_subsys_t)type, user_data);
    1aa8:	4718      	bx	r3
}
    1aaa:	bd70      	pop	{r4, r5, r6, pc}
    1aac:	20000840 	.word	0x20000840
    1ab0:	000051e4 	.word	0x000051e4

00001ab4 <clock_event_handler>:
	switch (event) {
    1ab4:	b110      	cbz	r0, 1abc <clock_event_handler+0x8>
    1ab6:	2801      	cmp	r0, #1
    1ab8:	d004      	beq.n	1ac4 <clock_event_handler+0x10>
    1aba:	4770      	bx	lr
		if (GET_STATUS(data->flags) == CLOCK_CONTROL_STATUS_STARTING) {
    1abc:	4b03      	ldr	r3, [pc, #12]	; (1acc <clock_event_handler+0x18>)
    1abe:	6c1b      	ldr	r3, [r3, #64]	; 0x40
    1ac0:	075b      	lsls	r3, r3, #29
    1ac2:	d101      	bne.n	1ac8 <clock_event_handler+0x14>
		clkstarted_handle(dev, CLOCK_CONTROL_NRF_TYPE_LFCLK);
    1ac4:	f7ff bfdc 	b.w	1a80 <clkstarted_handle.constprop.0>
}
    1ac8:	4770      	bx	lr
    1aca:	bf00      	nop
    1acc:	20000840 	.word	0x20000840

00001ad0 <generic_hfclk_start>:
{
    1ad0:	b508      	push	{r3, lr}
	__asm__ volatile(
    1ad2:	f04f 0320 	mov.w	r3, #32
    1ad6:	f3ef 8111 	mrs	r1, BASEPRI
    1ada:	f383 8812 	msr	BASEPRI_MAX, r3
    1ade:	f3bf 8f6f 	isb	sy
	hfclk_users |= HF_USER_GENERIC;
    1ae2:	4a12      	ldr	r2, [pc, #72]	; (1b2c <generic_hfclk_start+0x5c>)
    1ae4:	6813      	ldr	r3, [r2, #0]
    1ae6:	f043 0002 	orr.w	r0, r3, #2
	if (hfclk_users & HF_USER_BT) {
    1aea:	f013 0301 	ands.w	r3, r3, #1
	hfclk_users |= HF_USER_GENERIC;
    1aee:	6010      	str	r0, [r2, #0]
	if (hfclk_users & HF_USER_BT) {
    1af0:	d00c      	beq.n	1b0c <generic_hfclk_start+0x3c>
            break;
        case NRF_CLOCK_DOMAIN_HFCLK:
            if (p_clk_src != NULL)
            {
                (*(nrf_clock_hfclk_t *)p_clk_src) =
                    (nrf_clock_hfclk_t)((p_reg->HFCLKSTAT & CLOCK_HFCLKSTAT_SRC_Msk)
    1af2:	f04f 4280 	mov.w	r2, #1073741824	; 0x40000000
    1af6:	f8d2 340c 	ldr.w	r3, [r2, #1036]	; 0x40c
                                        >> CLOCK_HFCLKSTAT_SRC_Pos);
            }
            if ((p_reg->HFCLKSTAT & CLOCK_HFCLKSTAT_STATE_Msk)
    1afa:	f8d2 240c 	ldr.w	r2, [r2, #1036]	; 0x40c
		if (type == NRF_CLOCK_HFCLK_HIGH_ACCURACY) {
    1afe:	f013 0301 	ands.w	r3, r3, #1
    1b02:	d003      	beq.n	1b0c <generic_hfclk_start+0x3c>
			set_on_state(get_hf_flags());
    1b04:	480a      	ldr	r0, [pc, #40]	; (1b30 <generic_hfclk_start+0x60>)
    1b06:	f002 fede 	bl	48c6 <set_on_state>
			already_started = true;
    1b0a:	2301      	movs	r3, #1
	__asm__ volatile(
    1b0c:	f381 8811 	msr	BASEPRI, r1
    1b10:	f3bf 8f6f 	isb	sy
	if (already_started) {
    1b14:	b123      	cbz	r3, 1b20 <generic_hfclk_start+0x50>
}
    1b16:	e8bd 4008 	ldmia.w	sp!, {r3, lr}
		clkstarted_handle(CLOCK_DEVICE,
    1b1a:	2000      	movs	r0, #0
    1b1c:	f7ff bfb0 	b.w	1a80 <clkstarted_handle.constprop.0>
}
    1b20:	e8bd 4008 	ldmia.w	sp!, {r3, lr}
    nrfx_clock_stop(NRF_CLOCK_DOMAIN_LFCLK);
}

NRFX_STATIC_INLINE void nrfx_clock_hfclk_start(void)
{
    nrfx_clock_start(NRF_CLOCK_DOMAIN_HFCLK);
    1b24:	2001      	movs	r0, #1
    1b26:	f003 b916 	b.w	4d56 <nrfx_clock_start>
    1b2a:	bf00      	nop
    1b2c:	20000890 	.word	0x20000890
    1b30:	20000880 	.word	0x20000880

00001b34 <api_blocking_start>:
{
    1b34:	b51f      	push	{r0, r1, r2, r3, r4, lr}
	struct k_sem sem = Z_SEM_INITIALIZER(sem, 0, 1);
    1b36:	2200      	movs	r2, #0
    1b38:	2301      	movs	r3, #1
    1b3a:	e9cd 2302 	strd	r2, r3, [sp, #8]
	err = api_start(dev, subsys, blocking_start_callback, &sem);
    1b3e:	4a09      	ldr	r2, [pc, #36]	; (1b64 <api_blocking_start+0x30>)
	struct k_sem sem = Z_SEM_INITIALIZER(sem, 0, 1);
    1b40:	f8cd d000 	str.w	sp, [sp]
	err = api_start(dev, subsys, blocking_start_callback, &sem);
    1b44:	466b      	mov	r3, sp
	struct k_sem sem = Z_SEM_INITIALIZER(sem, 0, 1);
    1b46:	f8cd d004 	str.w	sp, [sp, #4]
	err = api_start(dev, subsys, blocking_start_callback, &sem);
    1b4a:	f002 ff2c 	bl	49a6 <api_start>
	if (err < 0) {
    1b4e:	2800      	cmp	r0, #0
    1b50:	db05      	blt.n	1b5e <api_blocking_start+0x2a>
		union { struct { uintptr_t lo, hi; } split; k_timeout_t val; } parm1 = { .val = timeout };
		return (int) arch_syscall_invoke3(parm0.x, parm1.split.lo, parm1.split.hi, K_SYSCALL_K_SEM_TAKE);
	}
#endif
	compiler_barrier();
	return z_impl_k_sem_take(sem, timeout);
    1b52:	f44f 4280 	mov.w	r2, #16384	; 0x4000
    1b56:	2300      	movs	r3, #0
    1b58:	4668      	mov	r0, sp
    1b5a:	f001 fe6d 	bl	3838 <z_impl_k_sem_take>
}
    1b5e:	b005      	add	sp, #20
    1b60:	f85d fb04 	ldr.w	pc, [sp], #4
    1b64:	000049d3 	.word	0x000049d3

00001b68 <generic_hfclk_stop>:
	return __atomic_fetch_and(target, value, __ATOMIC_SEQ_CST);
    1b68:	4b09      	ldr	r3, [pc, #36]	; (1b90 <generic_hfclk_stop+0x28>)
    1b6a:	f3bf 8f5b 	dmb	ish
    1b6e:	e853 2f00 	ldrex	r2, [r3]
    1b72:	f022 0102 	bic.w	r1, r2, #2
    1b76:	e843 1000 	strex	r0, r1, [r3]
    1b7a:	2800      	cmp	r0, #0
    1b7c:	d1f7      	bne.n	1b6e <generic_hfclk_stop+0x6>
    1b7e:	f3bf 8f5b 	dmb	ish
	if (atomic_and(&hfclk_users, ~HF_USER_GENERIC) & HF_USER_BT) {
    1b82:	07d3      	lsls	r3, r2, #31
    1b84:	d402      	bmi.n	1b8c <generic_hfclk_stop+0x24>
}

NRFX_STATIC_INLINE void nrfx_clock_hfclk_stop(void)
{
    nrfx_clock_stop(NRF_CLOCK_DOMAIN_HFCLK);
    1b86:	2001      	movs	r0, #1
    1b88:	f003 b922 	b.w	4dd0 <nrfx_clock_stop>
}
    1b8c:	4770      	bx	lr
    1b8e:	bf00      	nop
    1b90:	20000890 	.word	0x20000890

00001b94 <z_nrf_clock_control_lf_on>:
{
    1b94:	e92d 41f0 	stmdb	sp!, {r4, r5, r6, r7, r8, lr}
	return __atomic_exchange_n(target, value, __ATOMIC_SEQ_CST);
    1b98:	4939      	ldr	r1, [pc, #228]	; (1c80 <z_nrf_clock_control_lf_on+0xec>)
    1b9a:	f3bf 8f5b 	dmb	ish
    1b9e:	4607      	mov	r7, r0
    1ba0:	2201      	movs	r2, #1
    1ba2:	e851 3f00 	ldrex	r3, [r1]
    1ba6:	e841 2000 	strex	r0, r2, [r1]
    1baa:	2800      	cmp	r0, #0
    1bac:	d1f9      	bne.n	1ba2 <z_nrf_clock_control_lf_on+0xe>
    1bae:	f3bf 8f5b 	dmb	ish
	if (atomic_set(&on, 1) == 0) {
    1bb2:	b933      	cbnz	r3, 1bc2 <z_nrf_clock_control_lf_on+0x2e>
 */
static inline void sys_notify_init_spinwait(struct sys_notify *notify)
{
	__ASSERT_NO_MSG(notify != NULL);

	*notify = (struct sys_notify){
    1bb4:	4933      	ldr	r1, [pc, #204]	; (1c84 <z_nrf_clock_control_lf_on+0xf0>)
		err = onoff_request(mgr, &cli);
    1bb6:	4834      	ldr	r0, [pc, #208]	; (1c88 <z_nrf_clock_control_lf_on+0xf4>)
    1bb8:	604b      	str	r3, [r1, #4]
    1bba:	60cb      	str	r3, [r1, #12]
    1bbc:	608a      	str	r2, [r1, #8]
    1bbe:	f002 fd71 	bl	46a4 <onoff_request>
	switch (start_mode) {
    1bc2:	1e7b      	subs	r3, r7, #1
    1bc4:	2b01      	cmp	r3, #1
    1bc6:	d82f      	bhi.n	1c28 <z_nrf_clock_control_lf_on+0x94>
	if ((mode == CLOCK_CONTROL_NRF_LF_START_AVAILABLE) &&
    1bc8:	2f01      	cmp	r7, #1
    1bca:	d107      	bne.n	1bdc <z_nrf_clock_control_lf_on+0x48>
    return clk_src;
}

NRF_STATIC_INLINE nrf_clock_lfclk_t nrf_clock_lf_srccopy_get(NRF_CLOCK_Type const * p_reg)
{
    return (nrf_clock_lfclk_t)((p_reg->LFCLKSRCCOPY & CLOCK_LFCLKSRCCOPY_SRC_Msk)
    1bcc:	f04f 4380 	mov.w	r3, #1073741824	; 0x40000000
    1bd0:	f8d3 341c 	ldr.w	r3, [r3, #1052]	; 0x41c
    1bd4:	f003 0303 	and.w	r3, r3, #3
	    (target_type == NRF_CLOCK_LFCLK_Xtal) &&
    1bd8:	2b01      	cmp	r3, #1
    1bda:	d025      	beq.n	1c28 <z_nrf_clock_control_lf_on+0x94>
	bool isr_mode = k_is_in_isr() || k_is_pre_kernel();
    1bdc:	f003 f9c5 	bl	4f6a <k_is_in_isr>
    1be0:	4604      	mov	r4, r0
    1be2:	b918      	cbnz	r0, 1bec <z_nrf_clock_control_lf_on+0x58>
	return !z_sys_post_kernel;
    1be4:	4b29      	ldr	r3, [pc, #164]	; (1c8c <z_nrf_clock_control_lf_on+0xf8>)
	int key = isr_mode ? irq_lock() : 0;
    1be6:	781b      	ldrb	r3, [r3, #0]
    1be8:	2b00      	cmp	r3, #0
    1bea:	d141      	bne.n	1c70 <z_nrf_clock_control_lf_on+0xdc>
	__asm__ volatile(
    1bec:	f04f 0320 	mov.w	r3, #32
    1bf0:	f3ef 8611 	mrs	r6, BASEPRI
    1bf4:	f383 8812 	msr	BASEPRI_MAX, r3
    1bf8:	f3bf 8f6f 	isb	sy
    1bfc:	2401      	movs	r4, #1
    NVIC->ICPR[(((uint32_t)IRQn) >> 5UL)] = (uint32_t)(1UL << (((uint32_t)IRQn) & 0x1FUL));
    1bfe:	f8df 8090 	ldr.w	r8, [pc, #144]	; 1c90 <z_nrf_clock_control_lf_on+0xfc>
                    (nrf_clock_lfclk_t)((p_reg->LFCLKSTAT & CLOCK_LFCLKSTAT_SRC_Msk)
    1c02:	f04f 4580 	mov.w	r5, #1073741824	; 0x40000000
    1c06:	f8d5 3418 	ldr.w	r3, [r5, #1048]	; 0x418
            if ((p_reg->LFCLKSTAT & CLOCK_LFCLKSTAT_STATE_Msk)
    1c0a:	f8d5 2418 	ldr.w	r2, [r5, #1048]	; 0x418
    1c0e:	03d2      	lsls	r2, r2, #15
    1c10:	d50c      	bpl.n	1c2c <z_nrf_clock_control_lf_on+0x98>
                                        >> CLOCK_LFCLKSTAT_SRC_Pos);
    1c12:	f003 0303 	and.w	r3, r3, #3
	while (!(nrfx_clock_is_running(d, (void *)&type)
    1c16:	2b01      	cmp	r3, #1
    1c18:	d001      	beq.n	1c1e <z_nrf_clock_control_lf_on+0x8a>
		     || (mode == CLOCK_CONTROL_NRF_LF_START_AVAILABLE)))) {
    1c1a:	2f01      	cmp	r7, #1
    1c1c:	d106      	bne.n	1c2c <z_nrf_clock_control_lf_on+0x98>
	if (isr_mode) {
    1c1e:	b30c      	cbz	r4, 1c64 <z_nrf_clock_control_lf_on+0xd0>
	__asm__ volatile(
    1c20:	f386 8811 	msr	BASEPRI, r6
    1c24:	f3bf 8f6f 	isb	sy
}
    1c28:	e8bd 81f0 	ldmia.w	sp!, {r4, r5, r6, r7, r8, pc}
			if (isr_mode || !IS_ENABLED(CONFIG_MULTITHREADING)) {
    1c2c:	b1ac      	cbz	r4, 1c5a <z_nrf_clock_control_lf_on+0xc6>
 *
 * @param key Interrupt locking key obtained from irq_lock().
 */
static inline void k_cpu_atomic_idle(unsigned int key)
{
	arch_cpu_atomic_idle(key);
    1c2e:	4630      	mov	r0, r6
    1c30:	f7ff faea 	bl	1208 <arch_cpu_atomic_idle>
    return (nrf_clock_lfclk_t)(p_reg->LFCLKSRC);
    1c34:	f8d5 3518 	ldr.w	r3, [r5, #1304]	; 0x518
		if ((target_type ==  NRF_CLOCK_LFCLK_Xtal)
    1c38:	2b00      	cmp	r3, #0
    1c3a:	d1e4      	bne.n	1c06 <z_nrf_clock_control_lf_on+0x72>
    return (bool)*((volatile uint32_t *)((uint8_t *)p_reg + event));
    1c3c:	f8d5 2104 	ldr.w	r2, [r5, #260]	; 0x104
		    && nrf_clock_event_check(NRF_CLOCK,
    1c40:	2a00      	cmp	r2, #0
    1c42:	d0e0      	beq.n	1c06 <z_nrf_clock_control_lf_on+0x72>
    *((volatile uint32_t *)((uint8_t *)p_reg + (uint32_t)event)) = 0x0UL;
    1c44:	f8c5 3104 	str.w	r3, [r5, #260]	; 0x104
#ifndef NRF_DECLARE_ONLY

NRF_STATIC_INLINE void nrf_event_readback(void * p_event_reg)
{
#if NRFX_CHECK(NRFX_EVENT_READBACK_ENABLED) && !defined(NRF51)
    (void)*((volatile uint32_t *)(p_event_reg));
    1c48:	f8d5 3104 	ldr.w	r3, [r5, #260]	; 0x104
    p_reg->LFCLKSRC = (uint32_t)(source);
    1c4c:	2301      	movs	r3, #1
    1c4e:	f8c5 3518 	str.w	r3, [r5, #1304]	; 0x518
    1c52:	f8c8 3180 	str.w	r3, [r8, #384]	; 0x180
    *((volatile uint32_t *)((uint8_t *)p_reg + (uint32_t)task)) = 0x1UL;
    1c56:	60ab      	str	r3, [r5, #8]
}
    1c58:	e7d5      	b.n	1c06 <z_nrf_clock_control_lf_on+0x72>
	return z_impl_k_sleep(timeout);
    1c5a:	2100      	movs	r1, #0
    1c5c:	2021      	movs	r0, #33	; 0x21
    1c5e:	f002 f8eb 	bl	3e38 <z_impl_k_sleep>
	return k_sleep(Z_TIMEOUT_MS(ms));
    1c62:	e7e7      	b.n	1c34 <z_nrf_clock_control_lf_on+0xa0>
    p_reg->INTENSET = mask;
    1c64:	f04f 4380 	mov.w	r3, #1073741824	; 0x40000000
    1c68:	2202      	movs	r2, #2
    1c6a:	f8c3 2304 	str.w	r2, [r3, #772]	; 0x304
}
    1c6e:	e7db      	b.n	1c28 <z_nrf_clock_control_lf_on+0x94>
    p_reg->INTENCLR = mask;
    1c70:	f04f 4380 	mov.w	r3, #1073741824	; 0x40000000
    1c74:	2202      	movs	r2, #2
    1c76:	f8c3 2308 	str.w	r2, [r3, #776]	; 0x308
	int key = isr_mode ? irq_lock() : 0;
    1c7a:	4606      	mov	r6, r0
}
    1c7c:	e7bf      	b.n	1bfe <z_nrf_clock_control_lf_on+0x6a>
    1c7e:	bf00      	nop
    1c80:	20000894 	.word	0x20000894
    1c84:	20000830 	.word	0x20000830
    1c88:	2000085c 	.word	0x2000085c
    1c8c:	20000f91 	.word	0x20000f91
    1c90:	e000e100 	.word	0xe000e100

00001c94 <uart_console_init>:
 * @brief Initialize one UART as the console/debug port
 *
 * @return 0 if successful, otherwise failed.
 */
static int uart_console_init(const struct device *arg)
{
    1c94:	b508      	push	{r3, lr}

	ARG_UNUSED(arg);

	/* Claim console device */
	uart_console_dev = DEVICE_DT_GET(DT_CHOSEN(zephyr_console));
    1c96:	4b08      	ldr	r3, [pc, #32]	; (1cb8 <uart_console_init+0x24>)
    1c98:	4808      	ldr	r0, [pc, #32]	; (1cbc <uart_console_init+0x28>)
    1c9a:	6018      	str	r0, [r3, #0]
 */
__syscall bool device_is_ready(const struct device *dev);

static inline bool z_impl_device_is_ready(const struct device *dev)
{
	return z_device_is_ready(dev);
    1c9c:	f003 f8f8 	bl	4e90 <z_device_is_ready>
	if (!device_is_ready(uart_console_dev)) {
    1ca0:	b138      	cbz	r0, 1cb2 <uart_console_init+0x1e>
	__stdout_hook_install(console_out);
    1ca2:	4807      	ldr	r0, [pc, #28]	; (1cc0 <uart_console_init+0x2c>)
    1ca4:	f7ff fe30 	bl	1908 <__stdout_hook_install>
	__printk_hook_install(console_out);
    1ca8:	4805      	ldr	r0, [pc, #20]	; (1cc0 <uart_console_init+0x2c>)
    1caa:	f7fe fba7 	bl	3fc <__printk_hook_install>
		return -ENODEV;
	}

	uart_console_hook_install();

	return 0;
    1cae:	2000      	movs	r0, #0
}
    1cb0:	bd08      	pop	{r3, pc}
		return -ENODEV;
    1cb2:	f06f 0012 	mvn.w	r0, #18
    1cb6:	e7fb      	b.n	1cb0 <uart_console_init+0x1c>
    1cb8:	20000898 	.word	0x20000898
    1cbc:	00005244 	.word	0x00005244
    1cc0:	00001cc5 	.word	0x00001cc5

00001cc4 <console_out>:
	if ('\n' == c) {
    1cc4:	280a      	cmp	r0, #10
{
    1cc6:	b538      	push	{r3, r4, r5, lr}
    1cc8:	4d07      	ldr	r5, [pc, #28]	; (1ce8 <console_out+0x24>)
    1cca:	4604      	mov	r4, r0
	if ('\n' == c) {
    1ccc:	d104      	bne.n	1cd8 <console_out+0x14>
		uart_poll_out(uart_console_dev, '\r');
    1cce:	6828      	ldr	r0, [r5, #0]
					unsigned char out_char)
{
	const struct uart_driver_api *api =
		(const struct uart_driver_api *)dev->api;

	api->poll_out(dev, out_char);
    1cd0:	6883      	ldr	r3, [r0, #8]
    1cd2:	210d      	movs	r1, #13
    1cd4:	685b      	ldr	r3, [r3, #4]
    1cd6:	4798      	blx	r3
	uart_poll_out(uart_console_dev, c);
    1cd8:	6828      	ldr	r0, [r5, #0]
    1cda:	6883      	ldr	r3, [r0, #8]
    1cdc:	b2e1      	uxtb	r1, r4
    1cde:	685b      	ldr	r3, [r3, #4]
    1ce0:	4798      	blx	r3
}
    1ce2:	4620      	mov	r0, r4
    1ce4:	bd38      	pop	{r3, r4, r5, pc}
    1ce6:	bf00      	nop
    1ce8:	20000898 	.word	0x20000898

00001cec <gpio_nrfx_pin_interrupt_configure>:

static int gpio_nrfx_pin_interrupt_configure(const struct device *port,
					     gpio_pin_t pin,
					     enum gpio_int_mode mode,
					     enum gpio_int_trig trig)
{
    1cec:	b530      	push	{r4, r5, lr}
	return port->config;
    1cee:	6840      	ldr	r0, [r0, #4]
	uint32_t abs_pin = NRF_GPIO_PIN_MAP(get_port_cfg(port)->port_num, pin);
    1cf0:	7b04      	ldrb	r4, [r0, #12]
    1cf2:	f001 051f 	and.w	r5, r1, #31
	nrfx_err_t err;

	if (mode == GPIO_INT_MODE_DISABLED) {
    1cf6:	f5b2 1f00 	cmp.w	r2, #2097152	; 0x200000
	uint32_t abs_pin = NRF_GPIO_PIN_MAP(get_port_cfg(port)->port_num, pin);
    1cfa:	ea45 1544 	orr.w	r5, r5, r4, lsl #5
{
    1cfe:	b085      	sub	sp, #20
    1d00:	f04f 0400 	mov.w	r4, #0
	if (mode == GPIO_INT_MODE_DISABLED) {
    1d04:	d104      	bne.n	1d10 <gpio_nrfx_pin_interrupt_configure+0x24>
		nrfx_gpiote_trigger_disable(abs_pin);
    1d06:	4628      	mov	r0, r5
    1d08:	f001 f97c 	bl	3004 <nrfx_gpiote_trigger_disable>
		return -EIO;
	}

	nrfx_gpiote_trigger_enable(abs_pin, true);

	return 0;
    1d0c:	2000      	movs	r0, #0
    1d0e:	e032      	b.n	1d76 <gpio_nrfx_pin_interrupt_configure+0x8a>
	if (mode == GPIO_INT_MODE_LEVEL) {
    1d10:	f5b2 0f80 	cmp.w	r2, #4194304	; 0x400000
	nrfx_gpiote_trigger_config_t trigger_config = {
    1d14:	e9cd 4402 	strd	r4, r4, [sp, #8]
	if (mode == GPIO_INT_MODE_LEVEL) {
    1d18:	d12f      	bne.n	1d7a <gpio_nrfx_pin_interrupt_configure+0x8e>
		return trig == GPIO_INT_TRIG_LOW ? NRFX_GPIOTE_TRIGGER_LOW :
    1d1a:	f1b3 7f00 	cmp.w	r3, #33554432	; 0x2000000
    1d1e:	bf0c      	ite	eq
    1d20:	2304      	moveq	r3, #4
    1d22:	2305      	movne	r3, #5
	nrfx_gpiote_trigger_config_t trigger_config = {
    1d24:	f88d 3008 	strb.w	r3, [sp, #8]
	if (!(BIT(pin) & get_port_cfg(port)->edge_sense) &&
    1d28:	6883      	ldr	r3, [r0, #8]
    1d2a:	fa23 f101 	lsr.w	r1, r3, r1
    1d2e:	07c9      	lsls	r1, r1, #31
    1d30:	d42f      	bmi.n	1d92 <gpio_nrfx_pin_interrupt_configure+0xa6>
    1d32:	f1b2 7fa0 	cmp.w	r2, #20971520	; 0x1400000
    1d36:	d12c      	bne.n	1d92 <gpio_nrfx_pin_interrupt_configure+0xa6>
NRF_STATIC_INLINE uint32_t nrf_gpio_pin_port_number_extract(uint32_t * p_pin)
{
    uint32_t pin_number = *p_pin;
    *p_pin = pin_number & 0x1F;

    return pin_number >> 5;
    1d38:	096a      	lsrs	r2, r5, #5
        case 1: return NRF_P1;
    1d3a:	2a01      	cmp	r2, #1
    *p_pin = pin_number & 0x1F;
    1d3c:	f005 031f 	and.w	r3, r5, #31
        case 1: return NRF_P1;
    1d40:	4a1c      	ldr	r2, [pc, #112]	; (1db4 <gpio_nrfx_pin_interrupt_configure+0xc8>)
    return (nrf_gpio_pin_dir_t)((reg->PIN_CNF[pin_number] &
    1d42:	f503 73e0 	add.w	r3, r3, #448	; 0x1c0
        case 1: return NRF_P1;
    1d46:	bf18      	it	ne
    1d48:	f04f 42a0 	movne.w	r2, #1342177280	; 0x50000000
    return (nrf_gpio_pin_dir_t)((reg->PIN_CNF[pin_number] &
    1d4c:	f852 3023 	ldr.w	r3, [r2, r3, lsl #2]
	    (mode == GPIO_INT_MODE_EDGE) &&
    1d50:	07db      	lsls	r3, r3, #31
    1d52:	d41e      	bmi.n	1d92 <gpio_nrfx_pin_interrupt_configure+0xa6>
		err = nrfx_gpiote_channel_get(abs_pin, &ch);
    1d54:	f10d 0407 	add.w	r4, sp, #7
    1d58:	4621      	mov	r1, r4
    1d5a:	4628      	mov	r0, r5
    1d5c:	f001 f8b6 	bl	2ecc <nrfx_gpiote_channel_get>
		if (err == NRFX_ERROR_INVALID_PARAM) {
    1d60:	4b15      	ldr	r3, [pc, #84]	; (1db8 <gpio_nrfx_pin_interrupt_configure+0xcc>)
    1d62:	4298      	cmp	r0, r3
    1d64:	d114      	bne.n	1d90 <gpio_nrfx_pin_interrupt_configure+0xa4>
			err = nrfx_gpiote_channel_alloc(&ch);
    1d66:	4620      	mov	r0, r4
    1d68:	f001 f8fe 	bl	2f68 <nrfx_gpiote_channel_alloc>
			if (err != NRFX_SUCCESS) {
    1d6c:	4b13      	ldr	r3, [pc, #76]	; (1dbc <gpio_nrfx_pin_interrupt_configure+0xd0>)
    1d6e:	4298      	cmp	r0, r3
    1d70:	d00e      	beq.n	1d90 <gpio_nrfx_pin_interrupt_configure+0xa4>
				return -ENOMEM;
    1d72:	f06f 000b 	mvn.w	r0, #11
}
    1d76:	b005      	add	sp, #20
    1d78:	bd30      	pop	{r4, r5, pc}
	return trig == GPIO_INT_TRIG_BOTH ? NRFX_GPIOTE_TRIGGER_TOGGLE :
    1d7a:	f1b3 6fc0 	cmp.w	r3, #100663296	; 0x6000000
    1d7e:	d005      	beq.n	1d8c <gpio_nrfx_pin_interrupt_configure+0xa0>
    1d80:	f1b3 7f00 	cmp.w	r3, #33554432	; 0x2000000
    1d84:	bf0c      	ite	eq
    1d86:	2302      	moveq	r3, #2
    1d88:	2301      	movne	r3, #1
    1d8a:	e7cb      	b.n	1d24 <gpio_nrfx_pin_interrupt_configure+0x38>
    1d8c:	2303      	movs	r3, #3
    1d8e:	e7c9      	b.n	1d24 <gpio_nrfx_pin_interrupt_configure+0x38>
		trigger_config.p_in_channel = &ch;
    1d90:	9403      	str	r4, [sp, #12]
	err = nrfx_gpiote_input_configure(abs_pin, NULL, &trigger_config, NULL);
    1d92:	2300      	movs	r3, #0
    1d94:	4619      	mov	r1, r3
    1d96:	aa02      	add	r2, sp, #8
    1d98:	4628      	mov	r0, r5
    1d9a:	f000 ff71 	bl	2c80 <nrfx_gpiote_input_configure>
	if (err != NRFX_SUCCESS) {
    1d9e:	4b07      	ldr	r3, [pc, #28]	; (1dbc <gpio_nrfx_pin_interrupt_configure+0xd0>)
    1da0:	4298      	cmp	r0, r3
    1da2:	d104      	bne.n	1dae <gpio_nrfx_pin_interrupt_configure+0xc2>
	nrfx_gpiote_trigger_enable(abs_pin, true);
    1da4:	2101      	movs	r1, #1
    1da6:	4628      	mov	r0, r5
    1da8:	f001 f8e4 	bl	2f74 <nrfx_gpiote_trigger_enable>
    1dac:	e7ae      	b.n	1d0c <gpio_nrfx_pin_interrupt_configure+0x20>
		return -EIO;
    1dae:	f06f 0004 	mvn.w	r0, #4
    1db2:	e7e0      	b.n	1d76 <gpio_nrfx_pin_interrupt_configure+0x8a>
    1db4:	50000300 	.word	0x50000300
    1db8:	0bad0004 	.word	0x0bad0004
    1dbc:	0bad0000 	.word	0x0bad0000

00001dc0 <gpio_nrfx_init>:
}

#define GPIOTE_NODE DT_INST(0, nordic_nrf_gpiote)

static int gpio_nrfx_init(const struct device *port)
{
    1dc0:	b510      	push	{r4, lr}
	nrfx_err_t err;

	if (nrfx_gpiote_is_init()) {
    1dc2:	f001 f8c1 	bl	2f48 <nrfx_gpiote_is_init>
    1dc6:	4604      	mov	r4, r0
    1dc8:	b968      	cbnz	r0, 1de6 <gpio_nrfx_init+0x26>
		return 0;
	}

	err = nrfx_gpiote_init(0/*not used*/);
    1dca:	f001 f895 	bl	2ef8 <nrfx_gpiote_init>
	if (err != NRFX_SUCCESS) {
    1dce:	4b08      	ldr	r3, [pc, #32]	; (1df0 <gpio_nrfx_init+0x30>)
    1dd0:	4298      	cmp	r0, r3
    1dd2:	d10a      	bne.n	1dea <gpio_nrfx_init+0x2a>
		return -EIO;
	}

	nrfx_gpiote_global_callback_set(nrfx_gpio_handler, NULL);
    1dd4:	4807      	ldr	r0, [pc, #28]	; (1df4 <gpio_nrfx_init+0x34>)
    1dd6:	4621      	mov	r1, r4
    1dd8:	f001 f872 	bl	2ec0 <nrfx_gpiote_global_callback_set>

	IRQ_CONNECT(DT_IRQN(GPIOTE_NODE), DT_IRQ(GPIOTE_NODE, priority),
    1ddc:	4622      	mov	r2, r4
    1dde:	2105      	movs	r1, #5
    1de0:	2006      	movs	r0, #6
    1de2:	f7ff fa39 	bl	1258 <z_arm_irq_priority_set>
		return 0;
    1de6:	2000      	movs	r0, #0
		    nrfx_isr, nrfx_gpiote_irq_handler, 0);

	return 0;
}
    1de8:	bd10      	pop	{r4, pc}
		return -EIO;
    1dea:	f06f 0004 	mvn.w	r0, #4
    1dee:	e7fb      	b.n	1de8 <gpio_nrfx_init+0x28>
    1df0:	0bad0000 	.word	0x0bad0000
    1df4:	00001df9 	.word	0x00001df9

00001df8 <nrfx_gpio_handler>:
	DT_INST_FOREACH_STATUS_OKAY(GPIO_NRF_GET_DEV)
    1df8:	0942      	lsrs	r2, r0, #5
{
    1dfa:	b570      	push	{r4, r5, r6, lr}
    1dfc:	4603      	mov	r3, r0
	DT_INST_FOREACH_STATUS_OKAY(GPIO_NRF_GET_DEV)
    1dfe:	d002      	beq.n	1e06 <nrfx_gpio_handler+0xe>
    1e00:	2a01      	cmp	r2, #1
    1e02:	d015      	beq.n	1e30 <nrfx_gpio_handler+0x38>
}
    1e04:	bd70      	pop	{r4, r5, r6, pc}
	DT_INST_FOREACH_STATUS_OKAY(GPIO_NRF_GET_DEV)
    1e06:	4e0b      	ldr	r6, [pc, #44]	; (1e34 <nrfx_gpio_handler+0x3c>)
	gpio_fire_callbacks(list, port, BIT(pin));
    1e08:	6932      	ldr	r2, [r6, #16]
    1e0a:	6851      	ldr	r1, [r2, #4]
					const struct device *port,
					uint32_t pins)
{
	struct gpio_callback *cb, *tmp;

	SYS_SLIST_FOR_EACH_CONTAINER_SAFE(list, cb, tmp, node) {
    1e0c:	2900      	cmp	r1, #0
    1e0e:	d0f9      	beq.n	1e04 <nrfx_gpio_handler+0xc>
    *p_pin = pin_number & 0x1F;
    1e10:	f003 031f 	and.w	r3, r3, #31
    1e14:	2501      	movs	r5, #1
    1e16:	680c      	ldr	r4, [r1, #0]
    1e18:	409d      	lsls	r5, r3
		if (cb->pin_mask & pins) {
    1e1a:	688a      	ldr	r2, [r1, #8]
    1e1c:	402a      	ands	r2, r5
    1e1e:	d002      	beq.n	1e26 <nrfx_gpio_handler+0x2e>
			__ASSERT(cb->handler, "No callback handler!");
			cb->handler(port, cb, cb->pin_mask & pins);
    1e20:	684b      	ldr	r3, [r1, #4]
    1e22:	4630      	mov	r0, r6
    1e24:	4798      	blx	r3
	SYS_SLIST_FOR_EACH_CONTAINER_SAFE(list, cb, tmp, node) {
    1e26:	2c00      	cmp	r4, #0
    1e28:	d0ec      	beq.n	1e04 <nrfx_gpio_handler+0xc>
    1e2a:	4621      	mov	r1, r4
    1e2c:	6824      	ldr	r4, [r4, #0]
    1e2e:	e7f4      	b.n	1e1a <nrfx_gpio_handler+0x22>
	DT_INST_FOREACH_STATUS_OKAY(GPIO_NRF_GET_DEV)
    1e30:	4e01      	ldr	r6, [pc, #4]	; (1e38 <nrfx_gpio_handler+0x40>)
    1e32:	e7e9      	b.n	1e08 <nrfx_gpio_handler+0x10>
    1e34:	000051fc 	.word	0x000051fc
    1e38:	00005214 	.word	0x00005214

00001e3c <gpio_nrfx_pin_configure>:
{
    1e3c:	e92d 43f0 	stmdb	sp!, {r4, r5, r6, r7, r8, r9, lr}
	return port->config;
    1e40:	6847      	ldr	r7, [r0, #4]
	nrfx_gpiote_pin_t abs_pin = NRF_GPIO_PIN_MAP(cfg->port_num, pin);
    1e42:	7b3b      	ldrb	r3, [r7, #12]
    1e44:	f001 051f 	and.w	r5, r1, #31
{
    1e48:	b085      	sub	sp, #20
    1e4a:	460e      	mov	r6, r1
	nrfx_gpiote_pin_t abs_pin = NRF_GPIO_PIN_MAP(cfg->port_num, pin);
    1e4c:	ea45 1543 	orr.w	r5, r5, r3, lsl #5
	if (flags == GPIO_DISCONNECTED) {
    1e50:	4614      	mov	r4, r2
    1e52:	b9ca      	cbnz	r2, 1e88 <gpio_nrfx_pin_configure+0x4c>
	err = nrfx_gpiote_channel_get(pin, &ch);
    1e54:	a902      	add	r1, sp, #8
    1e56:	4628      	mov	r0, r5
    1e58:	f001 f838 	bl	2ecc <nrfx_gpiote_channel_get>
    1e5c:	4604      	mov	r4, r0
	err = nrfx_gpiote_pin_uninit(pin);
    1e5e:	4628      	mov	r0, r5
    1e60:	f001 f8f8 	bl	3054 <nrfx_gpiote_pin_uninit>
	if (err != NRFX_SUCCESS) {
    1e64:	4b4a      	ldr	r3, [pc, #296]	; (1f90 <gpio_nrfx_pin_configure+0x154>)
    1e66:	4298      	cmp	r0, r3
    1e68:	d004      	beq.n	1e74 <gpio_nrfx_pin_configure+0x38>
		return -EIO;
    1e6a:	f06f 0004 	mvn.w	r0, #4
}
    1e6e:	b005      	add	sp, #20
    1e70:	e8bd 83f0 	ldmia.w	sp!, {r4, r5, r6, r7, r8, r9, pc}
	if (free_ch) {
    1e74:	4284      	cmp	r4, r0
    1e76:	d105      	bne.n	1e84 <gpio_nrfx_pin_configure+0x48>
		err = nrfx_gpiote_channel_free(ch);
    1e78:	f89d 0008 	ldrb.w	r0, [sp, #8]
    1e7c:	f001 f86e 	bl	2f5c <nrfx_gpiote_channel_free>
	return (err != NRFX_SUCCESS) ? -EIO : 0;
    1e80:	42a0      	cmp	r0, r4
    1e82:	d1f2      	bne.n	1e6a <gpio_nrfx_pin_configure+0x2e>
	return (err != NRFX_SUCCESS) ? -EINVAL : 0;
    1e84:	2000      	movs	r0, #0
    1e86:	e7f2      	b.n	1e6e <gpio_nrfx_pin_configure+0x32>
	nrfx_gpiote_trigger_config_t trigger_config = {
    1e88:	f04f 0900 	mov.w	r9, #0
	err = nrfx_gpiote_channel_get(pin, &ch);
    1e8c:	f10d 0103 	add.w	r1, sp, #3
    1e90:	4630      	mov	r0, r6
	nrfx_gpiote_trigger_config_t trigger_config = {
    1e92:	e9cd 9902 	strd	r9, r9, [sp, #8]
	err = nrfx_gpiote_channel_get(pin, &ch);
    1e96:	f001 f819 	bl	2ecc <nrfx_gpiote_channel_get>
	err = nrfx_gpiote_input_configure(abs_pin, NULL, &trigger_config, NULL);
    1e9a:	464b      	mov	r3, r9
	err = nrfx_gpiote_channel_get(pin, &ch);
    1e9c:	4680      	mov	r8, r0
	err = nrfx_gpiote_input_configure(abs_pin, NULL, &trigger_config, NULL);
    1e9e:	aa02      	add	r2, sp, #8
    1ea0:	4649      	mov	r1, r9
    1ea2:	4628      	mov	r0, r5
    1ea4:	f000 feec 	bl	2c80 <nrfx_gpiote_input_configure>
	if (err != NRFX_SUCCESS) {
    1ea8:	4b39      	ldr	r3, [pc, #228]	; (1f90 <gpio_nrfx_pin_configure+0x154>)
    1eaa:	4298      	cmp	r0, r3
    1eac:	d002      	beq.n	1eb4 <gpio_nrfx_pin_configure+0x78>
	switch (flags & (NRF_GPIO_DS_LOW_MASK | NRF_GPIO_DS_HIGH_MASK |
    1eae:	f06f 0015 	mvn.w	r0, #21
    1eb2:	e7dc      	b.n	1e6e <gpio_nrfx_pin_configure+0x32>
	if (free_ch) {
    1eb4:	4580      	cmp	r8, r0
    1eb6:	d103      	bne.n	1ec0 <gpio_nrfx_pin_configure+0x84>
		err = nrfx_gpiote_channel_free(ch);
    1eb8:	f89d 0003 	ldrb.w	r0, [sp, #3]
    1ebc:	f001 f84e 	bl	2f5c <nrfx_gpiote_channel_free>
	if (flags & GPIO_OUTPUT) {
    1ec0:	03a3      	lsls	r3, r4, #14
    1ec2:	d551      	bpl.n	1f68 <gpio_nrfx_pin_configure+0x12c>
	switch (flags & (NRF_GPIO_DS_LOW_MASK | NRF_GPIO_DS_HIGH_MASK |
    1ec4:	f240 6306 	movw	r3, #1542	; 0x606
    1ec8:	4023      	ands	r3, r4
    1eca:	f240 2206 	movw	r2, #518	; 0x206
    1ece:	4293      	cmp	r3, r2
    1ed0:	d03b      	beq.n	1f4a <gpio_nrfx_pin_configure+0x10e>
    1ed2:	d80c      	bhi.n	1eee <gpio_nrfx_pin_configure+0xb2>
    1ed4:	2b06      	cmp	r3, #6
    1ed6:	d015      	beq.n	1f04 <gpio_nrfx_pin_configure+0xc8>
    1ed8:	d804      	bhi.n	1ee4 <gpio_nrfx_pin_configure+0xa8>
    1eda:	b19b      	cbz	r3, 1f04 <gpio_nrfx_pin_configure+0xc8>
    1edc:	2b02      	cmp	r3, #2
    1ede:	d1e6      	bne.n	1eae <gpio_nrfx_pin_configure+0x72>
    1ee0:	2304      	movs	r3, #4
    1ee2:	e00f      	b.n	1f04 <gpio_nrfx_pin_configure+0xc8>
    1ee4:	f5b3 7f00 	cmp.w	r3, #512	; 0x200
    1ee8:	d1e1      	bne.n	1eae <gpio_nrfx_pin_configure+0x72>
		*drive = NRF_GPIO_PIN_H0S1;
    1eea:	2301      	movs	r3, #1
    1eec:	e00a      	b.n	1f04 <gpio_nrfx_pin_configure+0xc8>
	switch (flags & (NRF_GPIO_DS_LOW_MASK | NRF_GPIO_DS_HIGH_MASK |
    1eee:	f240 4202 	movw	r2, #1026	; 0x402
    1ef2:	4293      	cmp	r3, r2
    1ef4:	d02b      	beq.n	1f4e <gpio_nrfx_pin_configure+0x112>
    1ef6:	f5b3 6fc0 	cmp.w	r3, #1536	; 0x600
    1efa:	d02a      	beq.n	1f52 <gpio_nrfx_pin_configure+0x116>
    1efc:	f5b3 6f80 	cmp.w	r3, #1024	; 0x400
    1f00:	d1d5      	bne.n	1eae <gpio_nrfx_pin_configure+0x72>
		*drive = NRF_GPIO_PIN_S0H1;
    1f02:	2302      	movs	r3, #2
		nrfx_gpiote_output_config_t output_config = {
    1f04:	f88d 3004 	strb.w	r3, [sp, #4]
				NRF_GPIO_PIN_INPUT_CONNECT :
    1f08:	f484 3380 	eor.w	r3, r4, #65536	; 0x10000
    1f0c:	f3c3 4300 	ubfx	r3, r3, #16, #1
	if (flags & GPIO_PULL_UP) {
    1f10:	06e0      	lsls	r0, r4, #27
		nrfx_gpiote_output_config_t output_config = {
    1f12:	f88d 3005 	strb.w	r3, [sp, #5]
		return NRF_GPIO_PIN_PULLDOWN;
    1f16:	bf54      	ite	pl
    1f18:	f3c4 1340 	ubfxpl	r3, r4, #5, #1
		return NRF_GPIO_PIN_PULLUP;
    1f1c:	2303      	movmi	r3, #3
		if (flags & GPIO_OUTPUT_INIT_HIGH) {
    1f1e:	0321      	lsls	r1, r4, #12
		nrfx_gpiote_output_config_t output_config = {
    1f20:	f88d 3006 	strb.w	r3, [sp, #6]
		if (flags & GPIO_OUTPUT_INIT_HIGH) {
    1f24:	d517      	bpl.n	1f56 <gpio_nrfx_pin_configure+0x11a>
			nrf_gpio_port_out_set(cfg->port, BIT(pin));
    1f26:	687b      	ldr	r3, [r7, #4]
    1f28:	2101      	movs	r1, #1
    1f2a:	fa01 f606 	lsl.w	r6, r1, r6
    p_reg->OUTSET = set_mask;
    1f2e:	f8c3 6508 	str.w	r6, [r3, #1288]	; 0x508
		err = nrfx_gpiote_output_configure(abs_pin, &output_config, NULL);
    1f32:	2200      	movs	r2, #0
    1f34:	a901      	add	r1, sp, #4
    1f36:	4628      	mov	r0, r5
    1f38:	f000 ff50 	bl	2ddc <nrfx_gpiote_output_configure>
		return (err != NRFX_SUCCESS) ? -EINVAL : 0;
    1f3c:	4b14      	ldr	r3, [pc, #80]	; (1f90 <gpio_nrfx_pin_configure+0x154>)
    1f3e:	4298      	cmp	r0, r3
    1f40:	bf14      	ite	ne
    1f42:	f06f 0015 	mvnne.w	r0, #21
    1f46:	2000      	moveq	r0, #0
    1f48:	e791      	b.n	1e6e <gpio_nrfx_pin_configure+0x32>
		*drive = NRF_GPIO_PIN_H0D1;
    1f4a:	2307      	movs	r3, #7
    1f4c:	e7da      	b.n	1f04 <gpio_nrfx_pin_configure+0xc8>
		*drive = NRF_GPIO_PIN_D0H1;
    1f4e:	2305      	movs	r3, #5
    1f50:	e7d8      	b.n	1f04 <gpio_nrfx_pin_configure+0xc8>
		*drive = NRF_GPIO_PIN_H0H1;
    1f52:	2303      	movs	r3, #3
    1f54:	e7d6      	b.n	1f04 <gpio_nrfx_pin_configure+0xc8>
		} else if (flags & GPIO_OUTPUT_INIT_LOW) {
    1f56:	0362      	lsls	r2, r4, #13
			nrf_gpio_port_out_clear(cfg->port, BIT(pin));
    1f58:	bf41      	itttt	mi
    1f5a:	687b      	ldrmi	r3, [r7, #4]
    1f5c:	2101      	movmi	r1, #1
    1f5e:	fa01 f606 	lslmi.w	r6, r1, r6
    p_reg->OUTCLR = clr_mask;
    1f62:	f8c3 650c 	strmi.w	r6, [r3, #1292]	; 0x50c
}
    1f66:	e7e4      	b.n	1f32 <gpio_nrfx_pin_configure+0xf6>
	if (flags & GPIO_PULL_UP) {
    1f68:	06e3      	lsls	r3, r4, #27
	err = nrfx_gpiote_input_configure(abs_pin, &input_config, NULL, NULL);
    1f6a:	f04f 0300 	mov.w	r3, #0
		return NRF_GPIO_PIN_PULLUP;
    1f6e:	bf54      	ite	pl
    1f70:	f3c4 1440 	ubfxpl	r4, r4, #5, #1
    1f74:	2403      	movmi	r4, #3
	err = nrfx_gpiote_input_configure(abs_pin, &input_config, NULL, NULL);
    1f76:	461a      	mov	r2, r3
    1f78:	a901      	add	r1, sp, #4
    1f7a:	4628      	mov	r0, r5
	nrfx_gpiote_input_config_t input_config = {
    1f7c:	f88d 4004 	strb.w	r4, [sp, #4]
	err = nrfx_gpiote_input_configure(abs_pin, &input_config, NULL, NULL);
    1f80:	f000 fe7e 	bl	2c80 <nrfx_gpiote_input_configure>
	return (err != NRFX_SUCCESS) ? -EINVAL : 0;
    1f84:	4b02      	ldr	r3, [pc, #8]	; (1f90 <gpio_nrfx_pin_configure+0x154>)
    1f86:	4298      	cmp	r0, r3
    1f88:	f43f af7c 	beq.w	1e84 <gpio_nrfx_pin_configure+0x48>
    1f8c:	e78f      	b.n	1eae <gpio_nrfx_pin_configure+0x72>
    1f8e:	bf00      	nop
    1f90:	0bad0000 	.word	0x0bad0000

00001f94 <uarte_nrfx_configure>:
	return 0;
}

static int uarte_nrfx_configure(const struct device *dev,
				const struct uart_config *cfg)
{
    1f94:	b5f0      	push	{r4, r5, r6, r7, lr}
	struct uarte_nrfx_data *data = dev->data;
	nrf_uarte_config_t uarte_cfg;

#if defined(UARTE_CONFIG_STOP_Msk)
	switch (cfg->stop_bits) {
    1f96:	794b      	ldrb	r3, [r1, #5]
    1f98:	2b01      	cmp	r3, #1
    1f9a:	d026      	beq.n	1fea <uarte_nrfx_configure+0x56>
    1f9c:	2b03      	cmp	r3, #3
    1f9e:	d121      	bne.n	1fe4 <uarte_nrfx_configure+0x50>
	case UART_CFG_STOP_BITS_1:
		uarte_cfg.stop = NRF_UARTE_STOP_ONE;
		break;
	case UART_CFG_STOP_BITS_2:
		uarte_cfg.stop = NRF_UARTE_STOP_TWO;
    1fa0:	2610      	movs	r6, #16
	if (cfg->stop_bits != UART_CFG_STOP_BITS_1) {
		return -ENOTSUP;
	}
#endif

	if (cfg->data_bits != UART_CFG_DATA_BITS_8) {
    1fa2:	798b      	ldrb	r3, [r1, #6]
    1fa4:	2b03      	cmp	r3, #3
    1fa6:	d11d      	bne.n	1fe4 <uarte_nrfx_configure+0x50>
		return -ENOTSUP;
	}

	switch (cfg->flow_ctrl) {
    1fa8:	79cc      	ldrb	r4, [r1, #7]
    1faa:	b10c      	cbz	r4, 1fb0 <uarte_nrfx_configure+0x1c>
    1fac:	2c01      	cmp	r4, #1
    1fae:	d119      	bne.n	1fe4 <uarte_nrfx_configure+0x50>
	}

#if defined(UARTE_CONFIG_PARITYTYPE_Msk)
	uarte_cfg.paritytype = NRF_UARTE_PARITYTYPE_EVEN;
#endif
	switch (cfg->parity) {
    1fb0:	790a      	ldrb	r2, [r1, #4]
    1fb2:	b112      	cbz	r2, 1fba <uarte_nrfx_configure+0x26>
    1fb4:	2a02      	cmp	r2, #2
    1fb6:	d115      	bne.n	1fe4 <uarte_nrfx_configure+0x50>
	case UART_CFG_PARITY_NONE:
		uarte_cfg.parity = NRF_UARTE_PARITY_EXCLUDED;
		break;
	case UART_CFG_PARITY_EVEN:
		uarte_cfg.parity = NRF_UARTE_PARITY_INCLUDED;
    1fb8:	220e      	movs	r2, #14
#endif
	default:
		return -ENOTSUP;
	}

	if (baudrate_set(dev, cfg->baudrate) != 0) {
    1fba:	680b      	ldr	r3, [r1, #0]
	return config->uarte_regs;
    1fbc:	6845      	ldr	r5, [r0, #4]
	switch (baudrate) {
    1fbe:	f5b3 4f16 	cmp.w	r3, #38400	; 0x9600
	return config->uarte_regs;
    1fc2:	682d      	ldr	r5, [r5, #0]
	switch (baudrate) {
    1fc4:	d065      	beq.n	2092 <uarte_nrfx_configure+0xfe>
    1fc6:	d82d      	bhi.n	2024 <uarte_nrfx_configure+0x90>
    1fc8:	f5b3 5f16 	cmp.w	r3, #9600	; 0x2580
    1fcc:	d064      	beq.n	2098 <uarte_nrfx_configure+0x104>
    1fce:	d816      	bhi.n	1ffe <uarte_nrfx_configure+0x6a>
    1fd0:	f5b3 6f96 	cmp.w	r3, #1200	; 0x4b0
    1fd4:	d062      	beq.n	209c <uarte_nrfx_configure+0x108>
    1fd6:	d80a      	bhi.n	1fee <uarte_nrfx_configure+0x5a>
    1fd8:	f5b3 7f96 	cmp.w	r3, #300	; 0x12c
    1fdc:	d061      	beq.n	20a2 <uarte_nrfx_configure+0x10e>
    1fde:	f5b3 7f16 	cmp.w	r3, #600	; 0x258
    1fe2:	d061      	beq.n	20a8 <uarte_nrfx_configure+0x114>
    1fe4:	f06f 0085 	mvn.w	r0, #133	; 0x85
    1fe8:	e052      	b.n	2090 <uarte_nrfx_configure+0xfc>
	switch (cfg->stop_bits) {
    1fea:	2600      	movs	r6, #0
    1fec:	e7d9      	b.n	1fa2 <uarte_nrfx_configure+0xe>
	switch (baudrate) {
    1fee:	f5b3 6f16 	cmp.w	r3, #2400	; 0x960
    1ff2:	d05c      	beq.n	20ae <uarte_nrfx_configure+0x11a>
    1ff4:	f5b3 5f96 	cmp.w	r3, #4800	; 0x12c0
    1ff8:	d1f4      	bne.n	1fe4 <uarte_nrfx_configure+0x50>
		nrf_baudrate = NRF_UARTE_BAUDRATE_4800;
    1ffa:	4b37      	ldr	r3, [pc, #220]	; (20d8 <uarte_nrfx_configure+0x144>)
    1ffc:	e03c      	b.n	2078 <uarte_nrfx_configure+0xe4>
	switch (baudrate) {
    1ffe:	f5b3 4fe1 	cmp.w	r3, #28800	; 0x7080
    2002:	d057      	beq.n	20b4 <uarte_nrfx_configure+0x120>
    2004:	d807      	bhi.n	2016 <uarte_nrfx_configure+0x82>
    2006:	f5b3 5f61 	cmp.w	r3, #14400	; 0x3840
    200a:	d055      	beq.n	20b8 <uarte_nrfx_configure+0x124>
    200c:	f5b3 4f96 	cmp.w	r3, #19200	; 0x4b00
    2010:	d1e8      	bne.n	1fe4 <uarte_nrfx_configure+0x50>
		nrf_baudrate = NRF_UARTE_BAUDRATE_19200;
    2012:	4b32      	ldr	r3, [pc, #200]	; (20dc <uarte_nrfx_configure+0x148>)
    2014:	e030      	b.n	2078 <uarte_nrfx_configure+0xe4>
	switch (baudrate) {
    2016:	f647 2712 	movw	r7, #31250	; 0x7a12
    201a:	42bb      	cmp	r3, r7
    201c:	d1e2      	bne.n	1fe4 <uarte_nrfx_configure+0x50>
		nrf_baudrate = NRF_UARTE_BAUDRATE_31250;
    201e:	f44f 0300 	mov.w	r3, #8388608	; 0x800000
    2022:	e029      	b.n	2078 <uarte_nrfx_configure+0xe4>
	switch (baudrate) {
    2024:	f5b3 3f61 	cmp.w	r3, #230400	; 0x38400
    2028:	d048      	beq.n	20bc <uarte_nrfx_configure+0x128>
    202a:	d813      	bhi.n	2054 <uarte_nrfx_configure+0xc0>
    202c:	f5b3 3f96 	cmp.w	r3, #76800	; 0x12c00
    2030:	d047      	beq.n	20c2 <uarte_nrfx_configure+0x12e>
    2032:	d809      	bhi.n	2048 <uarte_nrfx_configure+0xb4>
    2034:	f64d 27c0 	movw	r7, #56000	; 0xdac0
    2038:	42bb      	cmp	r3, r7
    203a:	d044      	beq.n	20c6 <uarte_nrfx_configure+0x132>
    203c:	f5b3 4f61 	cmp.w	r3, #57600	; 0xe100
    2040:	d1d0      	bne.n	1fe4 <uarte_nrfx_configure+0x50>
		nrf_baudrate = NRF_UARTE_BAUDRATE_57600;
    2042:	f44f 036b 	mov.w	r3, #15400960	; 0xeb0000
    2046:	e017      	b.n	2078 <uarte_nrfx_configure+0xe4>
	switch (baudrate) {
    2048:	f5b3 3fe1 	cmp.w	r3, #115200	; 0x1c200
    204c:	d1ca      	bne.n	1fe4 <uarte_nrfx_configure+0x50>
		nrf_baudrate = NRF_UARTE_BAUDRATE_115200;
    204e:	f04f 73eb 	mov.w	r3, #30801920	; 0x1d60000
    2052:	e011      	b.n	2078 <uarte_nrfx_configure+0xe4>
	switch (baudrate) {
    2054:	f5b3 2f61 	cmp.w	r3, #921600	; 0xe1000
    2058:	d038      	beq.n	20cc <uarte_nrfx_configure+0x138>
    205a:	d808      	bhi.n	206e <uarte_nrfx_configure+0xda>
    205c:	4f20      	ldr	r7, [pc, #128]	; (20e0 <uarte_nrfx_configure+0x14c>)
    205e:	42bb      	cmp	r3, r7
    2060:	d037      	beq.n	20d2 <uarte_nrfx_configure+0x13e>
    2062:	f5b3 2fe1 	cmp.w	r3, #460800	; 0x70800
    2066:	d1bd      	bne.n	1fe4 <uarte_nrfx_configure+0x50>
		nrf_baudrate = NRF_UARTE_BAUDRATE_460800;
    2068:	f04f 63e8 	mov.w	r3, #121634816	; 0x7400000
    206c:	e004      	b.n	2078 <uarte_nrfx_configure+0xe4>
	switch (baudrate) {
    206e:	4f1d      	ldr	r7, [pc, #116]	; (20e4 <uarte_nrfx_configure+0x150>)
    2070:	42bb      	cmp	r3, r7
    2072:	d1b7      	bne.n	1fe4 <uarte_nrfx_configure+0x50>
		nrf_baudrate = NRF_UARTE_BAUDRATE_1000000;
    2074:	f04f 5380 	mov.w	r3, #268435456	; 0x10000000
	struct uarte_nrfx_data *data = dev->data;
    2078:	6900      	ldr	r0, [r0, #16]
                    | (uint32_t)p_cfg->hwfc;
}

NRF_STATIC_INLINE void nrf_uarte_baudrate_set(NRF_UARTE_Type * p_reg, nrf_uarte_baudrate_t baudrate)
{
    p_reg->BAUDRATE = baudrate;
    207a:	f8c5 3524 	str.w	r3, [r5, #1316]	; 0x524
		return -ENOTSUP;
	}

	nrf_uarte_configure(get_uarte_instance(dev), &uarte_cfg);

	data->uart_config = *cfg;
    207e:	1d03      	adds	r3, r0, #4
    2080:	c903      	ldmia	r1, {r0, r1}
                    | (uint32_t)p_cfg->hwfc;
    2082:	4334      	orrs	r4, r6
    2084:	4322      	orrs	r2, r4
    p_reg->CONFIG = (uint32_t)p_cfg->parity
    2086:	f8c5 256c 	str.w	r2, [r5, #1388]	; 0x56c
    208a:	e883 0003 	stmia.w	r3, {r0, r1}

	return 0;
    208e:	2000      	movs	r0, #0
}
    2090:	bdf0      	pop	{r4, r5, r6, r7, pc}
		nrf_baudrate = NRF_UARTE_BAUDRATE_38400;
    2092:	f44f 031d 	mov.w	r3, #10289152	; 0x9d0000
    2096:	e7ef      	b.n	2078 <uarte_nrfx_configure+0xe4>
		nrf_baudrate = NRF_UARTE_BAUDRATE_9600;
    2098:	4b13      	ldr	r3, [pc, #76]	; (20e8 <uarte_nrfx_configure+0x154>)
    209a:	e7ed      	b.n	2078 <uarte_nrfx_configure+0xe4>
		nrf_baudrate = NRF_UARTE_BAUDRATE_1200;
    209c:	f44f 239e 	mov.w	r3, #323584	; 0x4f000
    20a0:	e7ea      	b.n	2078 <uarte_nrfx_configure+0xe4>
		nrf_baudrate = 0x00014000;
    20a2:	f44f 33a0 	mov.w	r3, #81920	; 0x14000
    20a6:	e7e7      	b.n	2078 <uarte_nrfx_configure+0xe4>
	switch (baudrate) {
    20a8:	f44f 331c 	mov.w	r3, #159744	; 0x27000
    20ac:	e7e4      	b.n	2078 <uarte_nrfx_configure+0xe4>
		nrf_baudrate = NRF_UARTE_BAUDRATE_2400;
    20ae:	f44f 231d 	mov.w	r3, #643072	; 0x9d000
    20b2:	e7e1      	b.n	2078 <uarte_nrfx_configure+0xe4>
		nrf_baudrate = NRF_UARTE_BAUDRATE_28800;
    20b4:	4b0d      	ldr	r3, [pc, #52]	; (20ec <uarte_nrfx_configure+0x158>)
    20b6:	e7df      	b.n	2078 <uarte_nrfx_configure+0xe4>
		nrf_baudrate = NRF_UARTE_BAUDRATE_14400;
    20b8:	4b0d      	ldr	r3, [pc, #52]	; (20f0 <uarte_nrfx_configure+0x15c>)
    20ba:	e7dd      	b.n	2078 <uarte_nrfx_configure+0xe4>
		nrf_baudrate = NRF_UARTE_BAUDRATE_230400;
    20bc:	f04f 736c 	mov.w	r3, #61865984	; 0x3b00000
    20c0:	e7da      	b.n	2078 <uarte_nrfx_configure+0xe4>
		nrf_baudrate = NRF_UARTE_BAUDRATE_76800;
    20c2:	4b0c      	ldr	r3, [pc, #48]	; (20f4 <uarte_nrfx_configure+0x160>)
    20c4:	e7d8      	b.n	2078 <uarte_nrfx_configure+0xe4>
		nrf_baudrate = NRF_UARTE_BAUDRATE_56000;
    20c6:	f44f 0365 	mov.w	r3, #15007744	; 0xe50000
    20ca:	e7d5      	b.n	2078 <uarte_nrfx_configure+0xe4>
		nrf_baudrate = NRF_UARTE_BAUDRATE_921600;
    20cc:	f04f 6370 	mov.w	r3, #251658240	; 0xf000000
    20d0:	e7d2      	b.n	2078 <uarte_nrfx_configure+0xe4>
		nrf_baudrate = NRF_UARTE_BAUDRATE_250000;
    20d2:	f04f 6380 	mov.w	r3, #67108864	; 0x4000000
    20d6:	e7cf      	b.n	2078 <uarte_nrfx_configure+0xe4>
    20d8:	0013b000 	.word	0x0013b000
    20dc:	004ea000 	.word	0x004ea000
    20e0:	0003d090 	.word	0x0003d090
    20e4:	000f4240 	.word	0x000f4240
    20e8:	00275000 	.word	0x00275000
    20ec:	0075c000 	.word	0x0075c000
    20f0:	003af000 	.word	0x003af000
    20f4:	013a9000 	.word	0x013a9000

000020f8 <uarte_instance_init.constprop.0>:
	nrfx_gppi_channels_enable(BIT(data->ppi_ch_endtx));

	return 0;
}

static int uarte_instance_init(const struct device *dev,
    20f8:	e92d 43f7 	stmdb	sp!, {r0, r1, r2, r4, r5, r6, r7, r8, r9, lr}
	const struct uarte_nrfx_config *config = dev->config;
    20fc:	f8d0 8004 	ldr.w	r8, [r0, #4]
			       uint8_t interrupts_active)
{
	int err;
	NRF_UARTE_Type *uarte = get_uarte_instance(dev);
	struct uarte_nrfx_data *data = dev->data;
    2100:	6906      	ldr	r6, [r0, #16]
	return config->uarte_regs;
    2102:	f8d8 4000 	ldr.w	r4, [r8]
	nrf_uarte_disable(uarte);

	data->dev = dev;

#ifdef CONFIG_PINCTRL
	err = pinctrl_apply_state(cfg->pcfg, PINCTRL_STATE_DEFAULT);
    2106:	f8d8 900c 	ldr.w	r9, [r8, #12]
    p_reg->ENABLE = UARTE_ENABLE_ENABLE_Disabled;
    210a:	2100      	movs	r1, #0
    210c:	f8c4 1500 	str.w	r1, [r4, #1280]	; 0x500
static int uarte_instance_init(const struct device *dev,
    2110:	4607      	mov	r7, r0
	data->dev = dev;
    2112:	6030      	str	r0, [r6, #0]
				      uint8_t id)
{
	int ret;
	const struct pinctrl_state *state;

	ret = pinctrl_lookup_state(config, id, &state);
    2114:	aa01      	add	r2, sp, #4
    2116:	4648      	mov	r0, r9
    2118:	f002 fd39 	bl	4b8e <pinctrl_lookup_state>
	if (ret < 0) {
    211c:	1e05      	subs	r5, r0, #0
    211e:	db56      	blt.n	21ce <uarte_instance_init.constprop.0+0xd6>
		return ret;
	}

	return pinctrl_apply_state_direct(config, state);
    2120:	9b01      	ldr	r3, [sp, #4]
	return pinctrl_configure_pins(state->pins, state->pin_cnt, reg);
    2122:	f8d9 2000 	ldr.w	r2, [r9]
    2126:	7919      	ldrb	r1, [r3, #4]
    2128:	6818      	ldr	r0, [r3, #0]
    212a:	f002 fd4d 	bl	4bc8 <pinctrl_configure_pins>
	if (err < 0) {
    212e:	1e05      	subs	r5, r0, #0
    2130:	db4d      	blt.n	21ce <uarte_instance_init.constprop.0+0xd6>
	}
#else
	uarte_nrfx_pins_configure(dev, false);
#endif /* CONFIG_PINCTRL */

	err = uarte_nrfx_configure(dev, &data->uart_config);
    2132:	1d31      	adds	r1, r6, #4
    2134:	4638      	mov	r0, r7
    2136:	f7ff ff2d 	bl	1f94 <uarte_nrfx_configure>
	if (err) {
    213a:	4605      	mov	r5, r0
    213c:	2800      	cmp	r0, #0
    213e:	d146      	bne.n	21ce <uarte_instance_init.constprop.0+0xd6>
		return err;
	}

	if (IS_ENABLED(CONFIG_UART_ENHANCED_POLL_OUT) &&
	    cfg->flags & UARTE_CFG_FLAG_PPI_ENDTX) {
    2140:	f8d8 3004 	ldr.w	r3, [r8, #4]
	if (IS_ENABLED(CONFIG_UART_ENHANCED_POLL_OUT) &&
    2144:	0799      	lsls	r1, r3, #30
    2146:	d519      	bpl.n	217c <uarte_instance_init.constprop.0+0x84>
	ret = gppi_channel_alloc(&data->ppi_ch_endtx);
    2148:	f106 0012 	add.w	r0, r6, #18
    214c:	f001 f87c 	bl	3248 <nrfx_ppi_channel_alloc>
	if (ret != NRFX_SUCCESS) {
    2150:	4b22      	ldr	r3, [pc, #136]	; (21dc <uarte_instance_init.constprop.0+0xe4>)
    2152:	4298      	cmp	r0, r3
    2154:	d13f      	bne.n	21d6 <uarte_instance_init.constprop.0+0xde>
	nrfx_gppi_channel_endpoints_setup(data->ppi_ch_endtx,
    2156:	7cb0      	ldrb	r0, [r6, #18]
    return (uint32_t)((uint8_t *)p_reg + (uint32_t)event);
    2158:	00c3      	lsls	r3, r0, #3
    215a:	f103 4380 	add.w	r3, r3, #1073741824	; 0x40000000
    215e:	f503 33f8 	add.w	r3, r3, #126976	; 0x1f000
    return (uint32_t)p_reg + (uint32_t)task;
    2162:	f104 020c 	add.w	r2, r4, #12
    return (uint32_t)((uint8_t *)p_reg + (uint32_t)event);
    2166:	f504 7190 	add.w	r1, r4, #288	; 0x120
NRF_STATIC_INLINE void nrf_ppi_channel_endpoint_setup(NRF_PPI_Type *    p_reg,
                                                      nrf_ppi_channel_t channel,
                                                      uint32_t          eep,
                                                      uint32_t          tep)
{
    p_reg->CH[(uint32_t) channel].EEP = eep;
    216a:	f8c3 1510 	str.w	r1, [r3, #1296]	; 0x510
    p_reg->CH[(uint32_t) channel].TEP = tep;
    216e:	f8c3 2514 	str.w	r2, [r3, #1300]	; 0x514
    p_reg->CHENSET = mask;
    2172:	4a1b      	ldr	r2, [pc, #108]	; (21e0 <uarte_instance_init.constprop.0+0xe8>)
	nrfx_gppi_channels_enable(BIT(data->ppi_ch_endtx));
    2174:	2301      	movs	r3, #1
    2176:	4083      	lsls	r3, r0
    2178:	f8c2 3504 	str.w	r3, [r2, #1284]	; 0x504
    p_reg->ENABLE = UARTE_ENABLE_ENABLE_Enabled;
    217c:	2308      	movs	r3, #8
    217e:	f8c4 3500 	str.w	r3, [r4, #1280]	; 0x500
#endif
	{
		/* Enable receiver and transmitter */
		nrf_uarte_enable(uarte);

		if (!cfg->disable_rx) {
    2182:	f898 3008 	ldrb.w	r3, [r8, #8]
    2186:	b95b      	cbnz	r3, 21a0 <uarte_instance_init.constprop.0+0xa8>
    *((volatile uint32_t *)((uint8_t *)p_reg + (uint32_t)event)) = 0x0UL;
    2188:	f8c4 3110 	str.w	r3, [r4, #272]	; 0x110
    218c:	f8d4 3110 	ldr.w	r3, [r4, #272]	; 0x110
			nrf_uarte_event_clear(uarte, NRF_UARTE_EVENT_ENDRX);

			nrf_uarte_rx_buffer_set(uarte, &data->rx_data, 1);
    2190:	f106 0311 	add.w	r3, r6, #17

NRF_STATIC_INLINE void nrf_uarte_rx_buffer_set(NRF_UARTE_Type * p_reg,
                                               uint8_t *        p_buffer,
                                               size_t           length)
{
    p_reg->RXD.PTR    = (uint32_t)p_buffer;
    2194:	f8c4 3534 	str.w	r3, [r4, #1332]	; 0x534
    p_reg->RXD.MAXCNT = length;
    2198:	2301      	movs	r3, #1
    219a:	f8c4 3538 	str.w	r3, [r4, #1336]	; 0x538
    *((volatile uint32_t *)((uint8_t *)p_reg + (uint32_t)task)) = 0x1UL;
    219e:	6023      	str	r3, [r4, #0]
			nrf_uarte_task_trigger(uarte, NRF_UARTE_TASK_STARTRX);
		}
	}

	if (!(cfg->flags & UARTE_CFG_FLAG_PPI_ENDTX)) {
    21a0:	f8d8 3004 	ldr.w	r3, [r8, #4]
    21a4:	079a      	lsls	r2, r3, #30
    p_reg->INTENSET = mask;
    21a6:	bf5c      	itt	pl
    21a8:	f44f 7280 	movpl.w	r2, #256	; 0x100
    21ac:	f8c4 2304 	strpl.w	r2, [r4, #772]	; 0x304
		nrf_uarte_int_enable(uarte, NRF_UARTE_INT_ENDTX_MASK);
	}

	if (cfg->flags & UARTE_CFG_FLAG_LOW_POWER) {
    21b0:	06db      	lsls	r3, r3, #27
    21b2:	bf44      	itt	mi
    21b4:	f44f 0380 	movmi.w	r3, #4194304	; 0x400000
    21b8:	f8c4 3304 	strmi.w	r3, [r4, #772]	; 0x304

	/* Set TXSTOPPED event by requesting fake (zero-length) transfer.
	 * Pointer to RAM variable (data->tx_buffer) is set because otherwise
	 * such operation may result in HardFault or RAM corruption.
	 */
	nrf_uarte_tx_buffer_set(uarte, &data->char_out, 0);
    21bc:	3610      	adds	r6, #16
    p_reg->TXD.MAXCNT = length;
    21be:	2300      	movs	r3, #0
    p_reg->TXD.PTR    = (uint32_t)p_buffer;
    21c0:	f8c4 6544 	str.w	r6, [r4, #1348]	; 0x544
    p_reg->TXD.MAXCNT = length;
    21c4:	f8c4 3548 	str.w	r3, [r4, #1352]	; 0x548
    *((volatile uint32_t *)((uint8_t *)p_reg + (uint32_t)task)) = 0x1UL;
    21c8:	2301      	movs	r3, #1
    21ca:	60a3      	str	r3, [r4, #8]
    21cc:	60e3      	str	r3, [r4, #12]

	/* switch off transmitter to save an energy */
	nrf_uarte_task_trigger(uarte, NRF_UARTE_TASK_STOPTX);

	return 0;
}
    21ce:	4628      	mov	r0, r5
    21d0:	b003      	add	sp, #12
    21d2:	e8bd 83f0 	ldmia.w	sp!, {r4, r5, r6, r7, r8, r9, pc}
		return -EIO;
    21d6:	f06f 0504 	mvn.w	r5, #4
    21da:	e7f8      	b.n	21ce <uarte_instance_init.constprop.0+0xd6>
    21dc:	0bad0000 	.word	0x0bad0000
    21e0:	4001f000 	.word	0x4001f000

000021e4 <uarte_nrfx_poll_out>:
{
    21e4:	b5f8      	push	{r3, r4, r5, r6, r7, lr}
	struct uarte_nrfx_data *data = dev->data;
    21e6:	6906      	ldr	r6, [r0, #16]
{
    21e8:	4605      	mov	r5, r0
    21ea:	460f      	mov	r7, r1
	bool isr_mode = k_is_in_isr() || k_is_pre_kernel();
    21ec:	f002 febd 	bl	4f6a <k_is_in_isr>
    21f0:	b910      	cbnz	r0, 21f8 <uarte_nrfx_poll_out+0x14>
	return !z_sys_post_kernel;
    21f2:	4b2c      	ldr	r3, [pc, #176]	; (22a4 <uarte_nrfx_poll_out+0xc0>)
	if (isr_mode) {
    21f4:	781b      	ldrb	r3, [r3, #0]
    21f6:	b983      	cbnz	r3, 221a <uarte_nrfx_poll_out+0x36>
	__asm__ volatile(
    21f8:	f04f 0320 	mov.w	r3, #32
    21fc:	f3ef 8411 	mrs	r4, BASEPRI
    2200:	f383 8812 	msr	BASEPRI_MAX, r3
    2204:	f3bf 8f6f 	isb	sy
			if (is_tx_ready(dev)) {
    2208:	6868      	ldr	r0, [r5, #4]
    220a:	f002 fc58 	bl	4abe <is_tx_ready.isra.0>
    220e:	bb28      	cbnz	r0, 225c <uarte_nrfx_poll_out+0x78>
	__asm__ volatile(
    2210:	f384 8811 	msr	BASEPRI, r4
    2214:	f3bf 8f6f 	isb	sy
}
    2218:	e7ee      	b.n	21f8 <uarte_nrfx_poll_out+0x14>
{
    221a:	2464      	movs	r4, #100	; 0x64
		NRFX_WAIT_FOR(is_tx_ready(dev), 100, 1, res);
    221c:	6868      	ldr	r0, [r5, #4]
    221e:	f002 fc4e 	bl	4abe <is_tx_ready.isra.0>
    2222:	b970      	cbnz	r0, 2242 <uarte_nrfx_poll_out+0x5e>
    2224:	2001      	movs	r0, #1
    2226:	f002 fd87 	bl	4d38 <nrfx_busy_wait>
    222a:	3c01      	subs	r4, #1
    222c:	d1f6      	bne.n	221c <uarte_nrfx_poll_out+0x38>
    222e:	2100      	movs	r1, #0
    2230:	2021      	movs	r0, #33	; 0x21
    2232:	f001 fe01 	bl	3e38 <z_impl_k_sleep>
	return k_sleep(Z_TIMEOUT_MS(ms));
    2236:	e7f0      	b.n	221a <uarte_nrfx_poll_out+0x36>
	__asm__ volatile(
    2238:	f384 8811 	msr	BASEPRI, r4
    223c:	f3bf 8f6f 	isb	sy
}
    2240:	e7f5      	b.n	222e <uarte_nrfx_poll_out+0x4a>
	__asm__ volatile(
    2242:	f04f 0320 	mov.w	r3, #32
    2246:	f3ef 8411 	mrs	r4, BASEPRI
    224a:	f383 8812 	msr	BASEPRI_MAX, r3
    224e:	f3bf 8f6f 	isb	sy
			if (is_tx_ready(dev)) {
    2252:	6868      	ldr	r0, [r5, #4]
    2254:	f002 fc33 	bl	4abe <is_tx_ready.isra.0>
    2258:	2800      	cmp	r0, #0
    225a:	d0ed      	beq.n	2238 <uarte_nrfx_poll_out+0x54>
	data->char_out = c;
    225c:	f806 7f10 	strb.w	r7, [r6, #16]!
	tx_start(dev, &data->char_out, 1);
    2260:	6869      	ldr	r1, [r5, #4]
	return config->uarte_regs;
    2262:	680b      	ldr	r3, [r1, #0]
    p_reg->TXD.MAXCNT = length;
    2264:	2201      	movs	r2, #1
    p_reg->TXD.PTR    = (uint32_t)p_buffer;
    2266:	f8c3 6544 	str.w	r6, [r3, #1348]	; 0x544
    p_reg->TXD.MAXCNT = length;
    226a:	f8c3 2548 	str.w	r2, [r3, #1352]	; 0x548
    *((volatile uint32_t *)((uint8_t *)p_reg + (uint32_t)event)) = 0x0UL;
    226e:	2200      	movs	r2, #0
    2270:	f8c3 2120 	str.w	r2, [r3, #288]	; 0x120
    2274:	f8d3 0120 	ldr.w	r0, [r3, #288]	; 0x120
    2278:	f8c3 2158 	str.w	r2, [r3, #344]	; 0x158
    227c:	f8d3 2158 	ldr.w	r2, [r3, #344]	; 0x158
	if (config->flags & UARTE_CFG_FLAG_LOW_POWER) {
    2280:	684a      	ldr	r2, [r1, #4]
    2282:	06d2      	lsls	r2, r2, #27
    p_reg->ENABLE = UARTE_ENABLE_ENABLE_Enabled;
    2284:	bf41      	itttt	mi
    2286:	2208      	movmi	r2, #8
    2288:	f8c3 2500 	strmi.w	r2, [r3, #1280]	; 0x500
    p_reg->INTENSET = mask;
    228c:	f44f 0280 	movmi.w	r2, #4194304	; 0x400000
    2290:	f8c3 2304 	strmi.w	r2, [r3, #772]	; 0x304
    *((volatile uint32_t *)((uint8_t *)p_reg + (uint32_t)task)) = 0x1UL;
    2294:	2201      	movs	r2, #1
    2296:	609a      	str	r2, [r3, #8]
	__asm__ volatile(
    2298:	f384 8811 	msr	BASEPRI, r4
    229c:	f3bf 8f6f 	isb	sy
}
    22a0:	bdf8      	pop	{r3, r4, r5, r6, r7, pc}
    22a2:	bf00      	nop
    22a4:	20000f91 	.word	0x20000f91

000022a8 <compare_int_lock>:
	return 0;
#endif
}

static bool compare_int_lock(int32_t chan)
{
    22a8:	b510      	push	{r4, lr}
	atomic_val_t prev = atomic_and(&int_mask, ~BIT(chan));
    22aa:	2301      	movs	r3, #1
    22ac:	4083      	lsls	r3, r0
	return __atomic_fetch_and(target, value, __ATOMIC_SEQ_CST);
    22ae:	4a11      	ldr	r2, [pc, #68]	; (22f4 <compare_int_lock+0x4c>)
    22b0:	f3bf 8f5b 	dmb	ish
    22b4:	43dc      	mvns	r4, r3
    22b6:	e852 1f00 	ldrex	r1, [r2]
    22ba:	ea01 0c04 	and.w	ip, r1, r4
    22be:	e842 ce00 	strex	lr, ip, [r2]
    22c2:	f1be 0f00 	cmp.w	lr, #0
    22c6:	d1f6      	bne.n	22b6 <compare_int_lock+0xe>
    22c8:	f3bf 8f5b 	dmb	ish

	nrf_rtc_int_disable(RTC, RTC_CHANNEL_INT_MASK(chan));
    22cc:	f44f 3280 	mov.w	r2, #65536	; 0x10000
    22d0:	fa02 f000 	lsl.w	r0, r2, r0
    p_reg->INTENSET = mask;
}

NRF_STATIC_INLINE void nrf_rtc_int_disable(NRF_RTC_Type * p_reg, uint32_t mask)
{
    p_reg->INTENCLR = mask;
    22d4:	f102 4280 	add.w	r2, r2, #1073741824	; 0x40000000
    22d8:	f502 5280 	add.w	r2, r2, #4096	; 0x1000
    22dc:	f8c2 0308 	str.w	r0, [r2, #776]	; 0x308
  __ASM volatile ("dmb 0xF":::"memory");
    22e0:	f3bf 8f5f 	dmb	sy
  __ASM volatile ("isb 0xF":::"memory");
    22e4:	f3bf 8f6f 	isb	sy

	__DMB();
	__ISB();

	return prev & BIT(chan);
    22e8:	420b      	tst	r3, r1
}
    22ea:	bf14      	ite	ne
    22ec:	2001      	movne	r0, #1
    22ee:	2000      	moveq	r0, #0
    22f0:	bd10      	pop	{r4, pc}
    22f2:	bf00      	nop
    22f4:	200008b8 	.word	0x200008b8

000022f8 <sys_clock_timeout_handler>:
static void sys_clock_timeout_handler(int32_t chan,
				      uint64_t expire_time,
				      void *user_data)
{
	uint32_t cc_value = absolute_time_to_cc(expire_time);
	uint64_t dticks = (expire_time - last_count) / CYC_PER_TICK;
    22f8:	4919      	ldr	r1, [pc, #100]	; (2360 <sys_clock_timeout_handler+0x68>)
{
    22fa:	b5f8      	push	{r3, r4, r5, r6, r7, lr}
    22fc:	4604      	mov	r4, r0
	return absolute_time & COUNTER_MAX;
    22fe:	f022 457f 	bic.w	r5, r2, #4278190080	; 0xff000000
	uint64_t dticks = (expire_time - last_count) / CYC_PER_TICK;
    2302:	6808      	ldr	r0, [r1, #0]

	last_count += dticks * CYC_PER_TICK;
    2304:	e9c1 2300 	strd	r2, r3, [r1]
	return (cc_value >= ANCHOR_RANGE_START) && (cc_value < ANCHOR_RANGE_END);
    2308:	f5a5 1300 	sub.w	r3, r5, #2097152	; 0x200000
	uint64_t dticks = (expire_time - last_count) / CYC_PER_TICK;
    230c:	1a10      	subs	r0, r2, r0
	if (in_anchor_range(cc_value)) {
    230e:	f5b3 0f40 	cmp.w	r3, #12582912	; 0xc00000
    2312:	d222      	bcs.n	235a <sys_clock_timeout_handler+0x62>
		anchor = (((uint64_t)overflow_cnt) << COUNTER_BIT_WIDTH) + cc_value;
    2314:	4b13      	ldr	r3, [pc, #76]	; (2364 <sys_clock_timeout_handler+0x6c>)
    2316:	681b      	ldr	r3, [r3, #0]
    2318:	0a1a      	lsrs	r2, r3, #8
    231a:	061b      	lsls	r3, r3, #24
    231c:	195e      	adds	r6, r3, r5
    231e:	4b12      	ldr	r3, [pc, #72]	; (2368 <sys_clock_timeout_handler+0x70>)
    2320:	f142 0700 	adc.w	r7, r2, #0
    2324:	e9c3 6700 	strd	r6, r7, [r3]
		return true;
    2328:	2601      	movs	r6, #1
		 */
		compare_set(chan, last_count + CYC_PER_TICK,
					  sys_clock_timeout_handler, NULL);
	}

	sys_clock_announce(IS_ENABLED(CONFIG_TICKLESS_KERNEL) ?
    232a:	f001 fed5 	bl	40d8 <sys_clock_announce>
    return p_reg->CC[ch];
    232e:	00a3      	lsls	r3, r4, #2
    2330:	f103 4380 	add.w	r3, r3, #1073741824	; 0x40000000
    2334:	f503 3388 	add.w	r3, r3, #69632	; 0x11000
    2338:	f8d3 2540 	ldr.w	r2, [r3, #1344]	; 0x540
			   (int32_t)dticks : (dticks > 0));

	if (cc_value == get_comparator(chan)) {
    233c:	42aa      	cmp	r2, r5
    233e:	d10b      	bne.n	2358 <sys_clock_timeout_handler+0x60>
		 * If anchor was updated we can enable same CC value to trigger
		 * interrupt after full cycle. Else set event in anchor update
		 * range. Since anchor was not updated we know that it's very
		 * far from mid point so setting is done without any protection.
		 */
		if (!anchor_updated) {
    2340:	b91e      	cbnz	r6, 234a <sys_clock_timeout_handler+0x52>
    p_reg->CC[ch] = cc_val;
    2342:	f44f 0200 	mov.w	r2, #8388608	; 0x800000
    2346:	f8c3 2540 	str.w	r2, [r3, #1344]	; 0x540
    *(__IO uint32_t *)((uint32_t)p_reg + task) = 1;
}

NRF_STATIC_INLINE void nrf_rtc_event_enable(NRF_RTC_Type * p_reg, uint32_t mask)
{
    p_reg->EVTENSET = mask;
    234a:	4b08      	ldr	r3, [pc, #32]	; (236c <sys_clock_timeout_handler+0x74>)
	nrf_rtc_event_enable(RTC, RTC_CHANNEL_INT_MASK(chan));
    234c:	f44f 3080 	mov.w	r0, #65536	; 0x10000
    2350:	fa00 f404 	lsl.w	r4, r0, r4
    2354:	f8c3 4344 	str.w	r4, [r3, #836]	; 0x344
			set_comparator(chan, COUNTER_HALF_SPAN);
		}
		event_enable(chan);
	}
}
    2358:	bdf8      	pop	{r3, r4, r5, r6, r7, pc}
	return false;
    235a:	2600      	movs	r6, #0
    235c:	e7e5      	b.n	232a <sys_clock_timeout_handler+0x32>
    235e:	bf00      	nop
    2360:	200001c0 	.word	0x200001c0
    2364:	200008bc 	.word	0x200008bc
    2368:	200001a8 	.word	0x200001a8
    236c:	40011000 	.word	0x40011000

00002370 <compare_int_unlock>:
	if (key) {
    2370:	b319      	cbz	r1, 23ba <compare_int_unlock+0x4a>
	return __atomic_fetch_or(target, value, __ATOMIC_SEQ_CST);
    2372:	f3bf 8f5b 	dmb	ish
		atomic_or(&int_mask, BIT(chan));
    2376:	2301      	movs	r3, #1
    2378:	4a10      	ldr	r2, [pc, #64]	; (23bc <compare_int_unlock+0x4c>)
    237a:	4083      	lsls	r3, r0
    237c:	e852 1f00 	ldrex	r1, [r2]
    2380:	4319      	orrs	r1, r3
    2382:	e842 1c00 	strex	ip, r1, [r2]
    2386:	f1bc 0f00 	cmp.w	ip, #0
    238a:	d1f7      	bne.n	237c <compare_int_unlock+0xc>
    238c:	f3bf 8f5b 	dmb	ish
    p_reg->INTENSET = mask;
    2390:	4a0b      	ldr	r2, [pc, #44]	; (23c0 <compare_int_unlock+0x50>)
		nrf_rtc_int_enable(RTC, RTC_CHANNEL_INT_MASK(chan));
    2392:	f44f 3380 	mov.w	r3, #65536	; 0x10000
    2396:	4083      	lsls	r3, r0
    2398:	f8c2 3304 	str.w	r3, [r2, #772]	; 0x304
	return __atomic_load_n(target, __ATOMIC_SEQ_CST);
    239c:	4b09      	ldr	r3, [pc, #36]	; (23c4 <compare_int_unlock+0x54>)
    239e:	f3bf 8f5b 	dmb	ish
    23a2:	681b      	ldr	r3, [r3, #0]
    23a4:	f3bf 8f5b 	dmb	ish
		if (atomic_get(&force_isr_mask) & BIT(chan)) {
    23a8:	fa23 f000 	lsr.w	r0, r3, r0
    23ac:	07c3      	lsls	r3, r0, #31
    NVIC->ISPR[(((uint32_t)IRQn) >> 5UL)] = (uint32_t)(1UL << (((uint32_t)IRQn) & 0x1FUL));
    23ae:	bf42      	ittt	mi
    23b0:	4b05      	ldrmi	r3, [pc, #20]	; (23c8 <compare_int_unlock+0x58>)
    23b2:	f44f 3200 	movmi.w	r2, #131072	; 0x20000
    23b6:	f8c3 2100 	strmi.w	r2, [r3, #256]	; 0x100
}
    23ba:	4770      	bx	lr
    23bc:	200008b8 	.word	0x200008b8
    23c0:	40011000 	.word	0x40011000
    23c4:	200008b4 	.word	0x200008b4
    23c8:	e000e100 	.word	0xe000e100

000023cc <z_nrf_rtc_timer_read>:
	uint64_t val = ((uint64_t)overflow_cnt) << COUNTER_BIT_WIDTH;
    23cc:	4b0d      	ldr	r3, [pc, #52]	; (2404 <z_nrf_rtc_timer_read+0x38>)
    23ce:	6818      	ldr	r0, [r3, #0]
    23d0:	0a01      	lsrs	r1, r0, #8
    23d2:	0600      	lsls	r0, r0, #24
  __ASM volatile ("dmb 0xF":::"memory");
    23d4:	f3bf 8f5f 	dmb	sy
     return p_reg->COUNTER;
    23d8:	4b0b      	ldr	r3, [pc, #44]	; (2408 <z_nrf_rtc_timer_read+0x3c>)
    23da:	f8d3 3504 	ldr.w	r3, [r3, #1284]	; 0x504
	val += cntr;
    23de:	1818      	adds	r0, r3, r0
    23e0:	f141 0100 	adc.w	r1, r1, #0
	if (cntr < OVERFLOW_RISK_RANGE_END) {
    23e4:	f5b3 1f80 	cmp.w	r3, #1048576	; 0x100000
    23e8:	d20a      	bcs.n	2400 <z_nrf_rtc_timer_read+0x34>
		if (val < anchor) {
    23ea:	4b08      	ldr	r3, [pc, #32]	; (240c <z_nrf_rtc_timer_read+0x40>)
    23ec:	e9d3 2300 	ldrd	r2, r3, [r3]
    23f0:	4290      	cmp	r0, r2
    23f2:	eb71 0303 	sbcs.w	r3, r1, r3
    23f6:	d203      	bcs.n	2400 <z_nrf_rtc_timer_read+0x34>
			val += COUNTER_SPAN;
    23f8:	f110 7080 	adds.w	r0, r0, #16777216	; 0x1000000
    23fc:	f141 0100 	adc.w	r1, r1, #0
}
    2400:	4770      	bx	lr
    2402:	bf00      	nop
    2404:	200008bc 	.word	0x200008bc
    2408:	40011000 	.word	0x40011000
    240c:	200001a8 	.word	0x200001a8

00002410 <compare_set>:
{
    2410:	e92d 4ff0 	stmdb	sp!, {r4, r5, r6, r7, r8, r9, sl, fp, lr}
    2414:	b085      	sub	sp, #20
    2416:	4616      	mov	r6, r2
    2418:	4698      	mov	r8, r3
    241a:	4605      	mov	r5, r0
	key = compare_int_lock(chan);
    241c:	f7ff ff44 	bl	22a8 <compare_int_lock>
    2420:	9000      	str	r0, [sp, #0]
	uint64_t curr_time = z_nrf_rtc_timer_read();
    2422:	f7ff ffd3 	bl	23cc <z_nrf_rtc_timer_read>
	if (curr_time < target_time) {
    2426:	42b0      	cmp	r0, r6
    2428:	eb71 0308 	sbcs.w	r3, r1, r8
    242c:	d278      	bcs.n	2520 <compare_set+0x110>
		if (target_time - curr_time > COUNTER_SPAN) {
    242e:	4b46      	ldr	r3, [pc, #280]	; (2548 <compare_set+0x138>)
    2430:	1a30      	subs	r0, r6, r0
    2432:	eb68 0101 	sbc.w	r1, r8, r1
    2436:	4298      	cmp	r0, r3
    2438:	f171 0300 	sbcs.w	r3, r1, #0
    243c:	f080 8081 	bcs.w	2542 <compare_set+0x132>
		if (target_time != cc_data[chan].target_time) {
    2440:	4b42      	ldr	r3, [pc, #264]	; (254c <compare_set+0x13c>)
    2442:	eb03 1305 	add.w	r3, r3, r5, lsl #4
    2446:	e9d3 ab02 	ldrd	sl, fp, [r3, #8]
    244a:	45d8      	cmp	r8, fp
    244c:	bf08      	it	eq
    244e:	4556      	cmpeq	r6, sl
    2450:	d051      	beq.n	24f6 <compare_set+0xe6>
    2452:	ea4f 0985 	mov.w	r9, r5, lsl #2
    2456:	f109 4980 	add.w	r9, r9, #1073741824	; 0x40000000
	nrf_rtc_event_clear(RTC, RTC_CHANNEL_EVENT_ADDR(chan));
    245a:	f105 0750 	add.w	r7, r5, #80	; 0x50
    245e:	f509 3988 	add.w	r9, r9, #69632	; 0x11000
    2462:	00bf      	lsls	r7, r7, #2
	nrf_rtc_event_enable(RTC, RTC_CHANNEL_INT_MASK(chan));
    2464:	f44f 3180 	mov.w	r1, #65536	; 0x10000
    2468:	fa01 f305 	lsl.w	r3, r1, r5
    *((volatile uint32_t *)((uint8_t *)p_reg + (uint32_t)event)) = 0;
    246c:	b2bf      	uxth	r7, r7
	return absolute_time & COUNTER_MAX;
    246e:	f026 427f 	bic.w	r2, r6, #4278190080	; 0xff000000
    2472:	f107 4780 	add.w	r7, r7, #1073741824	; 0x40000000
	nrf_rtc_event_enable(RTC, RTC_CHANNEL_INT_MASK(chan));
    2476:	9301      	str	r3, [sp, #4]
    return p_reg->CC[ch];
    2478:	f8d9 0540 	ldr.w	r0, [r9, #1344]	; 0x540
     return p_reg->COUNTER;
    247c:	4b34      	ldr	r3, [pc, #208]	; (2550 <compare_set+0x140>)
    *((volatile uint32_t *)((uint8_t *)p_reg + (uint32_t)event)) = 0;
    247e:	f507 3788 	add.w	r7, r7, #69632	; 0x11000
	uint32_t cc_val = abs_val & COUNTER_MAX;
    2482:	4614      	mov	r4, r2
     return p_reg->COUNTER;
    2484:	f8d3 1504 	ldr.w	r1, [r3, #1284]	; 0x504
	return (a - b) & COUNTER_MAX;
    2488:	1a40      	subs	r0, r0, r1
    248a:	f020 407f 	bic.w	r0, r0, #4278190080	; 0xff000000
	nrf_rtc_cc_set(RTC, chan, cyc & COUNTER_MAX);
    248e:	f021 4c7f 	bic.w	ip, r1, #4278190080	; 0xff000000
		if (counter_sub(prev_cc, now) == 1) {
    2492:	2801      	cmp	r0, #1
    p_reg->CC[ch] = cc_val;
    2494:	f8c9 c540 	str.w	ip, [r9, #1344]	; 0x540
    2498:	d107      	bne.n	24aa <compare_set+0x9a>
    249a:	e9cd 2102 	strd	r2, r1, [sp, #8]
	z_impl_k_busy_wait(usec_to_wait);
    249e:	2013      	movs	r0, #19
    24a0:	f002 fe65 	bl	516e <z_impl_k_busy_wait>
    24a4:	e9dd 2102 	ldrd	r2, r1, [sp, #8]
    24a8:	4b29      	ldr	r3, [pc, #164]	; (2550 <compare_set+0x140>)
		if (counter_sub(cc_val, now + 2) > COUNTER_HALF_SPAN) {
    24aa:	f101 0c02 	add.w	ip, r1, #2
	return (a - b) & COUNTER_MAX;
    24ae:	eba4 000c 	sub.w	r0, r4, ip
    24b2:	f020 407f 	bic.w	r0, r0, #4278190080	; 0xff000000
			cc_val = now + 2;
    24b6:	f5b0 0f00 	cmp.w	r0, #8388608	; 0x800000
    24ba:	bf88      	it	hi
    24bc:	4664      	movhi	r4, ip
    *((volatile uint32_t *)((uint8_t *)p_reg + (uint32_t)event)) = 0;
    24be:	2000      	movs	r0, #0
    24c0:	6038      	str	r0, [r7, #0]
    24c2:	6838      	ldr	r0, [r7, #0]
    p_reg->EVTENSET = mask;
    24c4:	9801      	ldr	r0, [sp, #4]
    24c6:	f8c3 0344 	str.w	r0, [r3, #836]	; 0x344
	nrf_rtc_cc_set(RTC, chan, cyc & COUNTER_MAX);
    24ca:	f024 407f 	bic.w	r0, r4, #4278190080	; 0xff000000
    p_reg->CC[ch] = cc_val;
    24ce:	f8c9 0540 	str.w	r0, [r9, #1344]	; 0x540
     return p_reg->COUNTER;
    24d2:	f8d3 0504 	ldr.w	r0, [r3, #1284]	; 0x504
		 (counter_sub(cc_val, now2 + 2) > COUNTER_HALF_SPAN));
    24d6:	4281      	cmp	r1, r0
    24d8:	d006      	beq.n	24e8 <compare_set+0xd8>
	return (a - b) & COUNTER_MAX;
    24da:	1a20      	subs	r0, r4, r0
    24dc:	3802      	subs	r0, #2
    24de:	f020 407f 	bic.w	r0, r0, #4278190080	; 0xff000000
	} while ((now2 != now) &&
    24e2:	f5b0 0f00 	cmp.w	r0, #8388608	; 0x800000
    24e6:	d819      	bhi.n	251c <compare_set+0x10c>
	return (a - b) & COUNTER_MAX;
    24e8:	1aa4      	subs	r4, r4, r2
    24ea:	f024 447f 	bic.w	r4, r4, #4278190080	; 0xff000000
			target_time += counter_sub(cc_set, cc_value);
    24ee:	eb14 0a06 	adds.w	sl, r4, r6
    24f2:	f148 0b00 	adc.w	fp, r8, #0
	cc_data[chan].target_time = target_time;
    24f6:	4915      	ldr	r1, [pc, #84]	; (254c <compare_set+0x13c>)
	cc_data[chan].callback = handler;
    24f8:	980e      	ldr	r0, [sp, #56]	; 0x38
	cc_data[chan].target_time = target_time;
    24fa:	012b      	lsls	r3, r5, #4
    24fc:	eb01 1205 	add.w	r2, r1, r5, lsl #4
    2500:	e9c2 ab02 	strd	sl, fp, [r2, #8]
	cc_data[chan].callback = handler;
    2504:	50c8      	str	r0, [r1, r3]
	cc_data[chan].user_context = user_data;
    2506:	9b0f      	ldr	r3, [sp, #60]	; 0x3c
    2508:	6053      	str	r3, [r2, #4]
	return ret;
    250a:	2400      	movs	r4, #0
	compare_int_unlock(chan, key);
    250c:	4628      	mov	r0, r5
    250e:	9900      	ldr	r1, [sp, #0]
    2510:	f7ff ff2e 	bl	2370 <compare_int_unlock>
}
    2514:	4620      	mov	r0, r4
    2516:	b005      	add	sp, #20
    2518:	e8bd 8ff0 	ldmia.w	sp!, {r4, r5, r6, r7, r8, r9, sl, fp, pc}
    251c:	4620      	mov	r0, r4
    251e:	e7b1      	b.n	2484 <compare_set+0x74>
		atomic_or(&force_isr_mask, BIT(chan));
    2520:	2301      	movs	r3, #1
	return __atomic_fetch_or(target, value, __ATOMIC_SEQ_CST);
    2522:	4a0c      	ldr	r2, [pc, #48]	; (2554 <compare_set+0x144>)
    2524:	f3bf 8f5b 	dmb	ish
    2528:	40ab      	lsls	r3, r5
    252a:	e852 1f00 	ldrex	r1, [r2]
    252e:	4319      	orrs	r1, r3
    2530:	e842 1000 	strex	r0, r1, [r2]
    2534:	2800      	cmp	r0, #0
    2536:	d1f8      	bne.n	252a <compare_set+0x11a>
    2538:	f3bf 8f5b 	dmb	ish
    253c:	46b2      	mov	sl, r6
    253e:	46c3      	mov	fp, r8
    2540:	e7d9      	b.n	24f6 <compare_set+0xe6>
			return -EINVAL;
    2542:	f06f 0415 	mvn.w	r4, #21
    2546:	e7e1      	b.n	250c <compare_set+0xfc>
    2548:	01000001 	.word	0x01000001
    254c:	200001b0 	.word	0x200001b0
    2550:	40011000 	.word	0x40011000
    2554:	200008b4 	.word	0x200008b4

00002558 <sys_clock_driver_init>:
{
	return (uint32_t)z_nrf_rtc_timer_read();
}

static int sys_clock_driver_init(const struct device *dev)
{
    2558:	b573      	push	{r0, r1, r4, r5, r6, lr}
			CLOCK_CONTROL_NRF_LF_START_STABLE);

	/* TODO: replace with counter driver to access RTC */
	nrf_rtc_prescaler_set(RTC, 0);
	for (int32_t chan = 0; chan < CHAN_COUNT; chan++) {
		cc_data[chan].target_time = TARGET_TIME_INVALID;
    255a:	4b19      	ldr	r3, [pc, #100]	; (25c0 <sys_clock_driver_init+0x68>)
    p_reg->PRESCALER = val;
    255c:	4d19      	ldr	r5, [pc, #100]	; (25c4 <sys_clock_driver_init+0x6c>)
    255e:	2400      	movs	r4, #0
    2560:	f04f 30ff 	mov.w	r0, #4294967295	; 0xffffffff
    2564:	f04f 31ff 	mov.w	r1, #4294967295	; 0xffffffff
    2568:	f8c5 4508 	str.w	r4, [r5, #1288]	; 0x508
    256c:	e9c3 0102 	strd	r0, r1, [r3, #8]
    p_reg->INTENSET = mask;
    2570:	f44f 3380 	mov.w	r3, #65536	; 0x10000
    2574:	f8c5 3304 	str.w	r3, [r5, #772]	; 0x304
    NVIC->ICPR[(((uint32_t)IRQn) >> 5UL)] = (uint32_t)(1UL << (((uint32_t)IRQn) & 0x1FUL));
    2578:	4b13      	ldr	r3, [pc, #76]	; (25c8 <sys_clock_driver_init+0x70>)
    257a:	2602      	movs	r6, #2
    257c:	f44f 3200 	mov.w	r2, #131072	; 0x20000

	nrf_rtc_int_enable(RTC, NRF_RTC_INT_OVERFLOW_MASK);

	NVIC_ClearPendingIRQ(RTC_IRQn);

	IRQ_CONNECT(RTC_IRQn, DT_IRQ(DT_NODELABEL(RTC_LABEL), priority),
    2580:	2101      	movs	r1, #1
    2582:	f8c5 6304 	str.w	r6, [r5, #772]	; 0x304
    2586:	2011      	movs	r0, #17
    2588:	f8c3 2180 	str.w	r2, [r3, #384]	; 0x180
    258c:	4622      	mov	r2, r4
    258e:	f7fe fe63 	bl	1258 <z_arm_irq_priority_set>
		    rtc_nrf_isr, 0, 0);
	irq_enable(RTC_IRQn);
    2592:	2011      	movs	r0, #17
    2594:	f7fe fe42 	bl	121c <arch_irq_enable>

	nrf_rtc_task_trigger(RTC, NRF_RTC_TASK_CLEAR);
	nrf_rtc_task_trigger(RTC, NRF_RTC_TASK_START);

	int_mask = BIT_MASK(CHAN_COUNT);
    2598:	4a0c      	ldr	r2, [pc, #48]	; (25cc <sys_clock_driver_init+0x74>)
    *(__IO uint32_t *)((uint32_t)p_reg + task) = 1;
    259a:	2301      	movs	r3, #1
    259c:	60ab      	str	r3, [r5, #8]
    259e:	602b      	str	r3, [r5, #0]
    25a0:	6013      	str	r3, [r2, #0]

	uint32_t initial_timeout = IS_ENABLED(CONFIG_TICKLESS_KERNEL) ?
		(COUNTER_HALF_SPAN - 1) :
		(counter() + CYC_PER_TICK);

	compare_set(0, initial_timeout, sys_clock_timeout_handler, NULL);
    25a2:	4b0b      	ldr	r3, [pc, #44]	; (25d0 <sys_clock_driver_init+0x78>)
    25a4:	4a0b      	ldr	r2, [pc, #44]	; (25d4 <sys_clock_driver_init+0x7c>)
    25a6:	9300      	str	r3, [sp, #0]
    25a8:	9401      	str	r4, [sp, #4]
    25aa:	2300      	movs	r3, #0
    25ac:	4620      	mov	r0, r4
    25ae:	f7ff ff2f 	bl	2410 <compare_set>

	z_nrf_clock_control_lf_on(mode);
    25b2:	4630      	mov	r0, r6
    25b4:	f7ff faee 	bl	1b94 <z_nrf_clock_control_lf_on>

	return 0;
}
    25b8:	4620      	mov	r0, r4
    25ba:	b002      	add	sp, #8
    25bc:	bd70      	pop	{r4, r5, r6, pc}
    25be:	bf00      	nop
    25c0:	200001b0 	.word	0x200001b0
    25c4:	40011000 	.word	0x40011000
    25c8:	e000e100 	.word	0xe000e100
    25cc:	200008b8 	.word	0x200008b8
    25d0:	000022f9 	.word	0x000022f9
    25d4:	007fffff 	.word	0x007fffff

000025d8 <rtc_nrf_isr>:
{
    25d8:	e92d 43f7 	stmdb	sp!, {r0, r1, r2, r4, r5, r6, r7, r8, r9, lr}
    return p_reg->INTENSET & mask;
    25dc:	4c35      	ldr	r4, [pc, #212]	; (26b4 <rtc_nrf_isr+0xdc>)
    25de:	f8d4 3304 	ldr.w	r3, [r4, #772]	; 0x304
	if (nrf_rtc_int_enable_check(RTC, NRF_RTC_INT_OVERFLOW_MASK) &&
    25e2:	079a      	lsls	r2, r3, #30
    25e4:	d50b      	bpl.n	25fe <rtc_nrf_isr+0x26>
    return (bool)*(volatile uint32_t *)((uint8_t *)p_reg + (uint32_t)event);
    25e6:	f8d4 3104 	ldr.w	r3, [r4, #260]	; 0x104
    25ea:	b143      	cbz	r3, 25fe <rtc_nrf_isr+0x26>
		overflow_cnt++;
    25ec:	4a32      	ldr	r2, [pc, #200]	; (26b8 <rtc_nrf_isr+0xe0>)
    *((volatile uint32_t *)((uint8_t *)p_reg + (uint32_t)event)) = 0;
    25ee:	2300      	movs	r3, #0
    25f0:	f8c4 3104 	str.w	r3, [r4, #260]	; 0x104
    25f4:	f8d4 3104 	ldr.w	r3, [r4, #260]	; 0x104
    25f8:	6813      	ldr	r3, [r2, #0]
    25fa:	3301      	adds	r3, #1
    25fc:	6013      	str	r3, [r2, #0]
	__asm__ volatile(
    25fe:	f04f 0320 	mov.w	r3, #32
    2602:	f3ef 8211 	mrs	r2, BASEPRI
    2606:	f383 8812 	msr	BASEPRI_MAX, r3
    260a:	f3bf 8f6f 	isb	sy
    return p_reg->INTENSET & mask;
    260e:	f8d4 3304 	ldr.w	r3, [r4, #772]	; 0x304
	if (nrf_rtc_int_enable_check(RTC, RTC_CHANNEL_INT_MASK(chan))) {
    2612:	03db      	lsls	r3, r3, #15
    2614:	d512      	bpl.n	263c <rtc_nrf_isr+0x64>
	return __atomic_fetch_and(target, value, __ATOMIC_SEQ_CST);
    2616:	f3bf 8f5b 	dmb	ish
    261a:	4b28      	ldr	r3, [pc, #160]	; (26bc <rtc_nrf_isr+0xe4>)
    261c:	e853 1f00 	ldrex	r1, [r3]
    2620:	f021 0001 	bic.w	r0, r1, #1
    2624:	e843 0600 	strex	r6, r0, [r3]
    2628:	2e00      	cmp	r6, #0
    262a:	d1f7      	bne.n	261c <rtc_nrf_isr+0x44>
    262c:	f3bf 8f5b 	dmb	ish
		result = atomic_and(&force_isr_mask, ~BIT(chan)) ||
    2630:	2900      	cmp	r1, #0
    2632:	d136      	bne.n	26a2 <rtc_nrf_isr+0xca>
    return (bool)*(volatile uint32_t *)((uint8_t *)p_reg + (uint32_t)event);
    2634:	f8d4 3140 	ldr.w	r3, [r4, #320]	; 0x140
		if (result) {
    2638:	2b00      	cmp	r3, #0
    263a:	d132      	bne.n	26a2 <rtc_nrf_isr+0xca>
{
    263c:	2300      	movs	r3, #0
	__asm__ volatile(
    263e:	f382 8811 	msr	BASEPRI, r2
    2642:	f3bf 8f6f 	isb	sy
	if (channel_processing_check_and_clear(chan)) {
    2646:	b34b      	cbz	r3, 269c <rtc_nrf_isr+0xc4>
		curr_time = z_nrf_rtc_timer_read();
    2648:	f7ff fec0 	bl	23cc <z_nrf_rtc_timer_read>
	__asm__ volatile(
    264c:	f04f 0320 	mov.w	r3, #32
    2650:	f3ef 8c11 	mrs	ip, BASEPRI
    2654:	f383 8812 	msr	BASEPRI_MAX, r3
    2658:	f3bf 8f6f 	isb	sy
		expire_time = cc_data[chan].target_time;
    265c:	4b18      	ldr	r3, [pc, #96]	; (26c0 <rtc_nrf_isr+0xe8>)
    265e:	e9d3 6702 	ldrd	r6, r7, [r3, #8]
		if (curr_time >= expire_time) {
    2662:	42b0      	cmp	r0, r6
    2664:	eb71 0207 	sbcs.w	r2, r1, r7
    2668:	f04f 0200 	mov.w	r2, #0
    266c:	d320      	bcc.n	26b0 <rtc_nrf_isr+0xd8>
			cc_data[chan].target_time = TARGET_TIME_INVALID;
    266e:	f04f 38ff 	mov.w	r8, #4294967295	; 0xffffffff
    2672:	f04f 39ff 	mov.w	r9, #4294967295	; 0xffffffff
			user_context = cc_data[chan].user_context;
    2676:	e9d3 1500 	ldrd	r1, r5, [r3]
			cc_data[chan].target_time = TARGET_TIME_INVALID;
    267a:	e9c3 8902 	strd	r8, r9, [r3, #8]
			cc_data[chan].callback = NULL;
    267e:	601a      	str	r2, [r3, #0]
}

NRF_STATIC_INLINE void nrf_rtc_event_disable(NRF_RTC_Type * p_reg, uint32_t mask)
{
    p_reg->EVTENCLR = mask;
    2680:	f44f 3380 	mov.w	r3, #65536	; 0x10000
    2684:	f8c4 3348 	str.w	r3, [r4, #840]	; 0x348
	__asm__ volatile(
    2688:	f38c 8811 	msr	BASEPRI, ip
    268c:	f3bf 8f6f 	isb	sy
		if (handler) {
    2690:	b121      	cbz	r1, 269c <rtc_nrf_isr+0xc4>
			handler(chan, expire_time, user_context);
    2692:	9500      	str	r5, [sp, #0]
    2694:	4632      	mov	r2, r6
    2696:	463b      	mov	r3, r7
    2698:	2000      	movs	r0, #0
    269a:	4788      	blx	r1
}
    269c:	b003      	add	sp, #12
    269e:	e8bd 83f0 	ldmia.w	sp!, {r4, r5, r6, r7, r8, r9, pc}
    *((volatile uint32_t *)((uint8_t *)p_reg + (uint32_t)event)) = 0;
    26a2:	2300      	movs	r3, #0
    26a4:	f8c4 3140 	str.w	r3, [r4, #320]	; 0x140
    26a8:	f8d4 3140 	ldr.w	r3, [r4, #320]	; 0x140
		result = atomic_and(&force_isr_mask, ~BIT(chan)) ||
    26ac:	2301      	movs	r3, #1
}
    26ae:	e7c6      	b.n	263e <rtc_nrf_isr+0x66>
		z_nrf_rtc_timer_compare_handler_t handler = NULL;
    26b0:	4611      	mov	r1, r2
    26b2:	e7e9      	b.n	2688 <rtc_nrf_isr+0xb0>
    26b4:	40011000 	.word	0x40011000
    26b8:	200008bc 	.word	0x200008bc
    26bc:	200008b4 	.word	0x200008b4
    26c0:	200001b0 	.word	0x200001b0

000026c4 <sys_clock_set_timeout>:
	ticks = (ticks == K_TICKS_FOREVER) ? MAX_TICKS : ticks;
    26c4:	1c43      	adds	r3, r0, #1
{
    26c6:	b513      	push	{r0, r1, r4, lr}
	ticks = (ticks == K_TICKS_FOREVER) ? MAX_TICKS : ticks;
    26c8:	d021      	beq.n	270e <sys_clock_set_timeout+0x4a>
	ticks = CLAMP(ticks - 1, 0, (int32_t)MAX_TICKS);
    26ca:	2801      	cmp	r0, #1
    26cc:	dd21      	ble.n	2712 <sys_clock_set_timeout+0x4e>
    26ce:	f5b0 0f00 	cmp.w	r0, #8388608	; 0x800000
    26d2:	da20      	bge.n	2716 <sys_clock_set_timeout+0x52>
    26d4:	1e44      	subs	r4, r0, #1
	uint32_t unannounced = z_nrf_rtc_timer_read() - last_count;
    26d6:	f7ff fe79 	bl	23cc <z_nrf_rtc_timer_read>
    26da:	4b10      	ldr	r3, [pc, #64]	; (271c <sys_clock_set_timeout+0x58>)
    26dc:	e9d3 1300 	ldrd	r1, r3, [r3]
    26e0:	1a40      	subs	r0, r0, r1
		ticks = 0;
    26e2:	f5b0 0f00 	cmp.w	r0, #8388608	; 0x800000
    26e6:	bf28      	it	cs
    26e8:	2400      	movcs	r4, #0
	cyc = ticks * CYC_PER_TICK + 1 + unannounced;
    26ea:	3001      	adds	r0, #1
    26ec:	1902      	adds	r2, r0, r4
	uint64_t target_time = cyc + last_count;
    26ee:	480c      	ldr	r0, [pc, #48]	; (2720 <sys_clock_set_timeout+0x5c>)
    26f0:	4282      	cmp	r2, r0
    26f2:	bf28      	it	cs
    26f4:	4602      	movcs	r2, r0
    26f6:	1852      	adds	r2, r2, r1
    26f8:	f04f 0000 	mov.w	r0, #0
	compare_set(0, target_time, sys_clock_timeout_handler, NULL);
    26fc:	4909      	ldr	r1, [pc, #36]	; (2724 <sys_clock_set_timeout+0x60>)
    26fe:	9001      	str	r0, [sp, #4]
    2700:	9100      	str	r1, [sp, #0]
    2702:	f143 0300 	adc.w	r3, r3, #0
    2706:	f7ff fe83 	bl	2410 <compare_set>
}
    270a:	b002      	add	sp, #8
    270c:	bd10      	pop	{r4, pc}
	ticks = (ticks == K_TICKS_FOREVER) ? MAX_TICKS : ticks;
    270e:	4804      	ldr	r0, [pc, #16]	; (2720 <sys_clock_set_timeout+0x5c>)
    2710:	e7e0      	b.n	26d4 <sys_clock_set_timeout+0x10>
	ticks = CLAMP(ticks - 1, 0, (int32_t)MAX_TICKS);
    2712:	2400      	movs	r4, #0
    2714:	e7df      	b.n	26d6 <sys_clock_set_timeout+0x12>
    2716:	4c02      	ldr	r4, [pc, #8]	; (2720 <sys_clock_set_timeout+0x5c>)
    2718:	e7dd      	b.n	26d6 <sys_clock_set_timeout+0x12>
    271a:	bf00      	nop
    271c:	200001c0 	.word	0x200001c0
    2720:	007fffff 	.word	0x007fffff
    2724:	000022f9 	.word	0x000022f9

00002728 <sys_clock_elapsed>:
{
    2728:	b508      	push	{r3, lr}
	return (z_nrf_rtc_timer_read() - last_count) / CYC_PER_TICK;
    272a:	f7ff fe4f 	bl	23cc <z_nrf_rtc_timer_read>
    272e:	4b02      	ldr	r3, [pc, #8]	; (2738 <sys_clock_elapsed+0x10>)
    2730:	681b      	ldr	r3, [r3, #0]
}
    2732:	1ac0      	subs	r0, r0, r3
    2734:	bd08      	pop	{r3, pc}
    2736:	bf00      	nop
    2738:	200001c0 	.word	0x200001c0

0000273c <nrf_gpio_pin_clear>:
    *p_pin = pin_number & 0x1F;
    273c:	f000 011f 	and.w	r1, r0, #31
    return pin_number >> 5;
    2740:	0940      	lsrs	r0, r0, #5
        case 1: return NRF_P1;
    2742:	2801      	cmp	r0, #1
    2744:	4b04      	ldr	r3, [pc, #16]	; (2758 <nrf_gpio_pin_clear+0x1c>)
    nrf_gpio_port_out_clear(reg, 1UL << pin_number);
    2746:	f04f 0201 	mov.w	r2, #1
        case 1: return NRF_P1;
    274a:	bf18      	it	ne
    274c:	f04f 43a0 	movne.w	r3, #1342177280	; 0x50000000
    nrf_gpio_port_out_clear(reg, 1UL << pin_number);
    2750:	408a      	lsls	r2, r1
    p_reg->OUTCLR = clr_mask;
    2752:	f8c3 250c 	str.w	r2, [r3, #1292]	; 0x50c
}
    2756:	4770      	bx	lr
    2758:	50000300 	.word	0x50000300

0000275c <nrf_pin_configure>:
__unused static void nrf_pin_configure(pinctrl_soc_pin_t pin,
				       nrf_gpio_pin_dir_t dir,
				       nrf_gpio_pin_input_t input)
{
	/* force input direction and disconnected buffer for low power */
	if (NRF_GET_LP(pin) == NRF_LP_ENABLE) {
    275c:	f400 5380 	and.w	r3, r0, #4096	; 0x1000
		dir = NRF_GPIO_PIN_DIR_INPUT;
		input = NRF_GPIO_PIN_INPUT_DISCONNECT;
    2760:	2b00      	cmp	r3, #0
{
    2762:	b530      	push	{r4, r5, lr}
		input = NRF_GPIO_PIN_INPUT_DISCONNECT;
    2764:	bf07      	ittee	eq
    2766:	4614      	moveq	r4, r2
    2768:	460d      	moveq	r5, r1
    276a:	2401      	movne	r4, #1
    276c:	2500      	movne	r5, #0
	}

	nrf_gpio_cfg(NRF_GET_PIN(pin), dir, input, NRF_GET_PULL(pin),
    276e:	f3c0 1281 	ubfx	r2, r0, #6, #2
    *p_pin = pin_number & 0x1F;
    2772:	f000 011f 	and.w	r1, r0, #31
        case 1: return NRF_P1;
    2776:	f010 0f20 	tst.w	r0, #32
           ((uint32_t)drive << GPIO_PIN_CNF_DRIVE_Pos) |
    277a:	f400 6070 	and.w	r0, r0, #3840	; 0xf00
           ((uint32_t)pull << GPIO_PIN_CNF_PULL_Pos)   |
    277e:	ea40 0282 	orr.w	r2, r0, r2, lsl #2
        case 1: return NRF_P1;
    2782:	4b06      	ldr	r3, [pc, #24]	; (279c <nrf_pin_configure+0x40>)
           ((uint32_t)pull << GPIO_PIN_CNF_PULL_Pos)   |
    2784:	ea42 0205 	orr.w	r2, r2, r5
        case 1: return NRF_P1;
    2788:	bf08      	it	eq
    278a:	f04f 43a0 	moveq.w	r3, #1342177280	; 0x50000000
    reg->PIN_CNF[pin_number] = cnf;
    278e:	f501 71e0 	add.w	r1, r1, #448	; 0x1c0
           ((uint32_t)pull << GPIO_PIN_CNF_PULL_Pos)   |
    2792:	ea42 0244 	orr.w	r2, r2, r4, lsl #1
    reg->PIN_CNF[pin_number] = cnf;
    2796:	f843 2021 	str.w	r2, [r3, r1, lsl #2]
		     NRF_GET_DRIVE(pin), NRF_GPIO_PIN_NOSENSE);
}
    279a:	bd30      	pop	{r4, r5, pc}
    279c:	50000300 	.word	0x50000300

000027a0 <nrf_gpio_pin_set>:
    *p_pin = pin_number & 0x1F;
    27a0:	f000 011f 	and.w	r1, r0, #31
    return pin_number >> 5;
    27a4:	0940      	lsrs	r0, r0, #5
        case 1: return NRF_P1;
    27a6:	2801      	cmp	r0, #1
    27a8:	4b04      	ldr	r3, [pc, #16]	; (27bc <nrf_gpio_pin_set+0x1c>)
    nrf_gpio_port_out_set(reg, 1UL << pin_number);
    27aa:	f04f 0201 	mov.w	r2, #1
        case 1: return NRF_P1;
    27ae:	bf18      	it	ne
    27b0:	f04f 43a0 	movne.w	r3, #1342177280	; 0x50000000
    nrf_gpio_port_out_set(reg, 1UL << pin_number);
    27b4:	408a      	lsls	r2, r1
    p_reg->OUTSET = set_mask;
    27b6:	f8c3 2508 	str.w	r2, [r3, #1288]	; 0x508
}
    27ba:	4770      	bx	lr
    27bc:	50000300 	.word	0x50000300

000027c0 <nrf52_errata_103>:
            uint32_t var1 = *(uint32_t *)0x10000130ul;
    27c0:	f04f 5380 	mov.w	r3, #268435456	; 0x10000000
            if (var1 == 0x08)
    27c4:	f8d3 2130 	ldr.w	r2, [r3, #304]	; 0x130
    27c8:	2a08      	cmp	r2, #8
    27ca:	d106      	bne.n	27da <nrf52_errata_103+0x1a>
            uint32_t var2 = *(uint32_t *)0x10000134ul;
    27cc:	f8d3 3134 	ldr.w	r3, [r3, #308]	; 0x134
                switch(var2)
    27d0:	2b05      	cmp	r3, #5
    27d2:	d802      	bhi.n	27da <nrf52_errata_103+0x1a>
    27d4:	4a02      	ldr	r2, [pc, #8]	; (27e0 <nrf52_errata_103+0x20>)
    27d6:	5cd0      	ldrb	r0, [r2, r3]
    27d8:	4770      	bx	lr
        return false;
    27da:	2000      	movs	r0, #0
}
    27dc:	4770      	bx	lr
    27de:	bf00      	nop
    27e0:	000056d0 	.word	0x000056d0

000027e4 <nvmc_wait>:

/* -- NVMC utility functions -- */
/* Waits until NVMC is done with the current pending action */
void nvmc_wait(void)
{
    while (NRF_NVMC->READY == NVMC_READY_READY_Busy){}
    27e4:	4a02      	ldr	r2, [pc, #8]	; (27f0 <nvmc_wait+0xc>)
    27e6:	f8d2 3400 	ldr.w	r3, [r2, #1024]	; 0x400
    27ea:	2b00      	cmp	r3, #0
    27ec:	d0fb      	beq.n	27e6 <nvmc_wait+0x2>
}
    27ee:	4770      	bx	lr
    27f0:	4001e000 	.word	0x4001e000

000027f4 <SystemInit>:
{
    SystemCoreClock = __SYSTEM_CLOCK_64M;
}

void SystemInit(void)
{
    27f4:	b510      	push	{r4, lr}
    #endif

    #if NRF52_ERRATA_36_ENABLE_WORKAROUND
        /* Workaround for Errata 36 "CLOCK: Some registers are not reset when expected" found at the Errata document
           for your device located at https://infocenter.nordicsemi.com/index.jsp  */
        if (nrf52_errata_36()){
    27f6:	f002 fa95 	bl	4d24 <nrf52_errata_136>
    27fa:	b140      	cbz	r0, 280e <SystemInit+0x1a>
            NRF_CLOCK->EVENTS_DONE = 0;
    27fc:	f04f 4380 	mov.w	r3, #1073741824	; 0x40000000
    2800:	2200      	movs	r2, #0
    2802:	f8c3 210c 	str.w	r2, [r3, #268]	; 0x10c
            NRF_CLOCK->EVENTS_CTTO = 0;
    2806:	f8c3 2110 	str.w	r2, [r3, #272]	; 0x110
            NRF_CLOCK->CTIV = 0;
    280a:	f8c3 2538 	str.w	r2, [r3, #1336]	; 0x538
    #endif

    #if NRF52_ERRATA_66_ENABLE_WORKAROUND
        /* Workaround for Errata 66 "TEMP: Linearity specification not met with default settings" found at the Errata document
           for your device located at https://infocenter.nordicsemi.com/index.jsp  */
        if (nrf52_errata_66()){
    280e:	f002 fa89 	bl	4d24 <nrf52_errata_136>
    2812:	2800      	cmp	r0, #0
    2814:	d046      	beq.n	28a4 <SystemInit+0xb0>
            NRF_TEMP->A0 = NRF_FICR->TEMP.A0;
    2816:	f04f 5280 	mov.w	r2, #268435456	; 0x10000000
    281a:	4b60      	ldr	r3, [pc, #384]	; (299c <SystemInit+0x1a8>)
    281c:	f8d2 1404 	ldr.w	r1, [r2, #1028]	; 0x404
    2820:	f8c3 1520 	str.w	r1, [r3, #1312]	; 0x520
            NRF_TEMP->A1 = NRF_FICR->TEMP.A1;
    2824:	f8d2 1408 	ldr.w	r1, [r2, #1032]	; 0x408
    2828:	f8c3 1524 	str.w	r1, [r3, #1316]	; 0x524
            NRF_TEMP->A2 = NRF_FICR->TEMP.A2;
    282c:	f8d2 140c 	ldr.w	r1, [r2, #1036]	; 0x40c
    2830:	f8c3 1528 	str.w	r1, [r3, #1320]	; 0x528
            NRF_TEMP->A3 = NRF_FICR->TEMP.A3;
    2834:	f8d2 1410 	ldr.w	r1, [r2, #1040]	; 0x410
    2838:	f8c3 152c 	str.w	r1, [r3, #1324]	; 0x52c
            NRF_TEMP->A4 = NRF_FICR->TEMP.A4;
    283c:	f8d2 1414 	ldr.w	r1, [r2, #1044]	; 0x414
    2840:	f8c3 1530 	str.w	r1, [r3, #1328]	; 0x530
            NRF_TEMP->A5 = NRF_FICR->TEMP.A5;
    2844:	f8d2 1418 	ldr.w	r1, [r2, #1048]	; 0x418
    2848:	f8c3 1534 	str.w	r1, [r3, #1332]	; 0x534
            NRF_TEMP->B0 = NRF_FICR->TEMP.B0;
    284c:	f8d2 141c 	ldr.w	r1, [r2, #1052]	; 0x41c
    2850:	f8c3 1540 	str.w	r1, [r3, #1344]	; 0x540
            NRF_TEMP->B1 = NRF_FICR->TEMP.B1;
    2854:	f8d2 1420 	ldr.w	r1, [r2, #1056]	; 0x420
    2858:	f8c3 1544 	str.w	r1, [r3, #1348]	; 0x544
            NRF_TEMP->B2 = NRF_FICR->TEMP.B2;
    285c:	f8d2 1424 	ldr.w	r1, [r2, #1060]	; 0x424
    2860:	f8c3 1548 	str.w	r1, [r3, #1352]	; 0x548
            NRF_TEMP->B3 = NRF_FICR->TEMP.B3;
    2864:	f8d2 1428 	ldr.w	r1, [r2, #1064]	; 0x428
    2868:	f8c3 154c 	str.w	r1, [r3, #1356]	; 0x54c
            NRF_TEMP->B4 = NRF_FICR->TEMP.B4;
    286c:	f8d2 142c 	ldr.w	r1, [r2, #1068]	; 0x42c
    2870:	f8c3 1550 	str.w	r1, [r3, #1360]	; 0x550
            NRF_TEMP->B5 = NRF_FICR->TEMP.B5;
    2874:	f8d2 1430 	ldr.w	r1, [r2, #1072]	; 0x430
    2878:	f8c3 1554 	str.w	r1, [r3, #1364]	; 0x554
            NRF_TEMP->T0 = NRF_FICR->TEMP.T0;
    287c:	f8d2 1434 	ldr.w	r1, [r2, #1076]	; 0x434
    2880:	f8c3 1560 	str.w	r1, [r3, #1376]	; 0x560
            NRF_TEMP->T1 = NRF_FICR->TEMP.T1;
    2884:	f8d2 1438 	ldr.w	r1, [r2, #1080]	; 0x438
    2888:	f8c3 1564 	str.w	r1, [r3, #1380]	; 0x564
            NRF_TEMP->T2 = NRF_FICR->TEMP.T2;
    288c:	f8d2 143c 	ldr.w	r1, [r2, #1084]	; 0x43c
    2890:	f8c3 1568 	str.w	r1, [r3, #1384]	; 0x568
            NRF_TEMP->T3 = NRF_FICR->TEMP.T3;
    2894:	f8d2 1440 	ldr.w	r1, [r2, #1088]	; 0x440
    2898:	f8c3 156c 	str.w	r1, [r3, #1388]	; 0x56c
            NRF_TEMP->T4 = NRF_FICR->TEMP.T4;
    289c:	f8d2 2444 	ldr.w	r2, [r2, #1092]	; 0x444
    28a0:	f8c3 2570 	str.w	r2, [r3, #1392]	; 0x570
    #endif

    #if NRF52_ERRATA_98_ENABLE_WORKAROUND
        /* Workaround for Errata 98 "NFCT: Not able to communicate with the peer" found at the Errata document
           for your device located at https://infocenter.nordicsemi.com/index.jsp  */
        if (nrf52_errata_98()){
    28a4:	f7ff ff8c 	bl	27c0 <nrf52_errata_103>
    28a8:	b118      	cbz	r0, 28b2 <SystemInit+0xbe>
            *(volatile uint32_t *)0x4000568Cul = 0x00038148ul;
    28aa:	4b3d      	ldr	r3, [pc, #244]	; (29a0 <SystemInit+0x1ac>)
    28ac:	4a3d      	ldr	r2, [pc, #244]	; (29a4 <SystemInit+0x1b0>)
    28ae:	f8c3 268c 	str.w	r2, [r3, #1676]	; 0x68c
    #endif

    #if NRF52_ERRATA_103_ENABLE_WORKAROUND && defined(CCM_MAXPACKETSIZE_MAXPACKETSIZE_Pos)
        /* Workaround for Errata 103 "CCM: Wrong reset value of CCM MAXPACKETSIZE" found at the Errata document
           for your device located at https://infocenter.nordicsemi.com/index.jsp  */
        if (nrf52_errata_103()){
    28b2:	f7ff ff85 	bl	27c0 <nrf52_errata_103>
    28b6:	b118      	cbz	r0, 28c0 <SystemInit+0xcc>
            NRF_CCM->MAXPACKETSIZE = 0xFBul;
    28b8:	4b3b      	ldr	r3, [pc, #236]	; (29a8 <SystemInit+0x1b4>)
    28ba:	22fb      	movs	r2, #251	; 0xfb
    28bc:	f8c3 2518 	str.w	r2, [r3, #1304]	; 0x518
    #endif

    #if NRF52_ERRATA_115_ENABLE_WORKAROUND
        /* Workaround for Errata 115 "RAM: RAM content cannot be trusted upon waking up from System ON Idle or System OFF mode" found at the Errata document
           for your device located at https://infocenter.nordicsemi.com/index.jsp  */
        if (nrf52_errata_115()){
    28c0:	f7ff ff7e 	bl	27c0 <nrf52_errata_103>
    28c4:	b170      	cbz	r0, 28e4 <SystemInit+0xf0>
            *(volatile uint32_t *)0x40000EE4 = (*(volatile uint32_t *)0x40000EE4 & 0xFFFFFFF0) | (*(uint32_t *)0x10000258 & 0x0000000F);
    28c6:	f04f 4180 	mov.w	r1, #1073741824	; 0x40000000
    28ca:	f04f 5380 	mov.w	r3, #268435456	; 0x10000000
    28ce:	f8d1 2ee4 	ldr.w	r2, [r1, #3812]	; 0xee4
    28d2:	f8d3 3258 	ldr.w	r3, [r3, #600]	; 0x258
    28d6:	f022 020f 	bic.w	r2, r2, #15
    28da:	f003 030f 	and.w	r3, r3, #15
    28de:	4313      	orrs	r3, r2
    28e0:	f8c1 3ee4 	str.w	r3, [r1, #3812]	; 0xee4
    #endif

    #if NRF52_ERRATA_120_ENABLE_WORKAROUND
        /* Workaround for Errata 120 "QSPI: Data read or written is corrupted" found at the Errata document
           for your device located at https://infocenter.nordicsemi.com/index.jsp  */
        if (nrf52_errata_120()){
    28e4:	f7ff ff6c 	bl	27c0 <nrf52_errata_103>
    28e8:	b120      	cbz	r0, 28f4 <SystemInit+0x100>
            *(volatile uint32_t *)0x40029640ul = 0x200ul;
    28ea:	4b30      	ldr	r3, [pc, #192]	; (29ac <SystemInit+0x1b8>)
    28ec:	f44f 7200 	mov.w	r2, #512	; 0x200
    28f0:	f8c3 2640 	str.w	r2, [r3, #1600]	; 0x640
    #endif

    #if NRF52_ERRATA_136_ENABLE_WORKAROUND
        /* Workaround for Errata 136 "System: Bits in RESETREAS are set when they should not be" found at the Errata document
           for your device located at https://infocenter.nordicsemi.com/index.jsp  */
        if (nrf52_errata_136()){
    28f4:	f002 fa16 	bl	4d24 <nrf52_errata_136>
    28f8:	b148      	cbz	r0, 290e <SystemInit+0x11a>
            if (NRF_POWER->RESETREAS & POWER_RESETREAS_RESETPIN_Msk){
    28fa:	f04f 4380 	mov.w	r3, #1073741824	; 0x40000000
    28fe:	f8d3 2400 	ldr.w	r2, [r3, #1024]	; 0x400
    2902:	07d2      	lsls	r2, r2, #31
                NRF_POWER->RESETREAS =  ~POWER_RESETREAS_RESETPIN_Msk;
    2904:	bf44      	itt	mi
    2906:	f06f 0201 	mvnmi.w	r2, #1
    290a:	f8c3 2400 	strmi.w	r2, [r3, #1024]	; 0x400
         || defined (NRF52820_XXAA) || defined (DEVELOP_IN_NRF52820)\
         || defined (NRF52832_XXAA) || defined (DEVELOP_IN_NRF52832)\
         || defined (NRF52832_XXAB) || defined (DEVELOP_IN_NRF52832)\
         || defined (NRF52833_XXAA) || defined (DEVELOP_IN_NRF52833)\
         || defined (NRF52840_XXAA) || defined (DEVELOP_IN_NRF52840)
            uint32_t var1 = *(uint32_t *)0x10000130ul;
    290e:	f04f 5380 	mov.w	r3, #268435456	; 0x10000000
                        return true;
                }
            }
        #endif
        #if defined (NRF52840_XXAA) || defined (DEVELOP_IN_NRF52840)
            if (var1 == 0x08)
    2912:	f8d3 2130 	ldr.w	r2, [r3, #304]	; 0x130
    2916:	2a08      	cmp	r2, #8
    2918:	d10e      	bne.n	2938 <SystemInit+0x144>
            uint32_t var2 = *(uint32_t *)0x10000134ul;
    291a:	f8d3 3134 	ldr.w	r3, [r3, #308]	; 0x134
            {
                switch(var2)
    291e:	2b05      	cmp	r3, #5
    2920:	d802      	bhi.n	2928 <SystemInit+0x134>
            {
                /* Prevent processor from unlocking APPROTECT soft branch after this point. */
                NRF_APPROTECT->FORCEPROTECT = APPROTECT_FORCEPROTECT_FORCEPROTECT_Force;
            }
        #else
            if (nrf52_configuration_249())
    2922:	4a23      	ldr	r2, [pc, #140]	; (29b0 <SystemInit+0x1bc>)
    2924:	5cd3      	ldrb	r3, [r2, r3]
    2926:	b13b      	cbz	r3, 2938 <SystemInit+0x144>
            {
                /* Load APPROTECT soft branch from UICR.
                   If UICR->APPROTECT is disabled, POWER->APPROTECT will be disabled. */
                NRF_APPROTECT->DISABLE = NRF_UICR->APPROTECT;
    2928:	f04f 2310 	mov.w	r3, #268439552	; 0x10001000
    292c:	f8d3 2208 	ldr.w	r2, [r3, #520]	; 0x208
    2930:	f04f 4380 	mov.w	r3, #1073741824	; 0x40000000
    2934:	f8c3 2558 	str.w	r2, [r3, #1368]	; 0x558

    /* Configure GPIO pads as pPin Reset pin if Pin Reset capabilities desired. If CONFIG_GPIO_AS_PINRESET is not
      defined, pin reset will not be available. One GPIO (see Product Specification to see which one) will then be
      reserved for PinReset and not available as normal GPIO. */
    #if defined (CONFIG_GPIO_AS_PINRESET)
        if (((NRF_UICR->PSELRESET[0] & UICR_PSELRESET_CONNECT_Msk) != (UICR_PSELRESET_CONNECT_Connected << UICR_PSELRESET_CONNECT_Pos)) ||
    2938:	f04f 2310 	mov.w	r3, #268439552	; 0x10001000
    293c:	f8d3 2200 	ldr.w	r2, [r3, #512]	; 0x200
    2940:	2a00      	cmp	r2, #0
    2942:	db03      	blt.n	294c <SystemInit+0x158>
            ((NRF_UICR->PSELRESET[1] & UICR_PSELRESET_CONNECT_Msk) != (UICR_PSELRESET_CONNECT_Connected << UICR_PSELRESET_CONNECT_Pos))){
    2944:	f8d3 3204 	ldr.w	r3, [r3, #516]	; 0x204
        if (((NRF_UICR->PSELRESET[0] & UICR_PSELRESET_CONNECT_Msk) != (UICR_PSELRESET_CONNECT_Connected << UICR_PSELRESET_CONNECT_Pos)) ||
    2948:	2b00      	cmp	r3, #0
    294a:	da22      	bge.n	2992 <SystemInit+0x19e>
    NRF_NVMC->CONFIG = mode << NVMC_CONFIG_WEN_Pos;
    294c:	4919      	ldr	r1, [pc, #100]	; (29b4 <SystemInit+0x1c0>)
    294e:	2301      	movs	r3, #1
            nvmc_config(NVMC_CONFIG_WEN_Wen);
            NRF_UICR->PSELRESET[0] = RESET_PIN;
    2950:	f04f 2010 	mov.w	r0, #268439552	; 0x10001000
    NRF_NVMC->CONFIG = mode << NVMC_CONFIG_WEN_Pos;
    2954:	f8c1 3504 	str.w	r3, [r1, #1284]	; 0x504
            NRF_UICR->PSELRESET[0] = RESET_PIN;
    2958:	2412      	movs	r4, #18
    nvmc_wait();
    295a:	f7ff ff43 	bl	27e4 <nvmc_wait>
            NRF_UICR->PSELRESET[0] = RESET_PIN;
    295e:	f8c0 4200 	str.w	r4, [r0, #512]	; 0x200
            nvmc_wait();
    2962:	f7ff ff3f 	bl	27e4 <nvmc_wait>
            NRF_UICR->PSELRESET[1] = RESET_PIN;
    2966:	f8c0 4204 	str.w	r4, [r0, #516]	; 0x204
            nvmc_wait();
    296a:	f7ff ff3b 	bl	27e4 <nvmc_wait>
    NRF_NVMC->CONFIG = mode << NVMC_CONFIG_WEN_Pos;
    296e:	2300      	movs	r3, #0
    2970:	f8c1 3504 	str.w	r3, [r1, #1284]	; 0x504
    nvmc_wait();
    2974:	f7ff ff36 	bl	27e4 <nvmc_wait>
  __ASM volatile ("dsb 0xF":::"memory");
    2978:	f3bf 8f4f 	dsb	sy
                           (SCB->AIRCR & SCB_AIRCR_PRIGROUP_Msk) |
    297c:	490e      	ldr	r1, [pc, #56]	; (29b8 <SystemInit+0x1c4>)
    297e:	4b0f      	ldr	r3, [pc, #60]	; (29bc <SystemInit+0x1c8>)
    2980:	68ca      	ldr	r2, [r1, #12]
    2982:	f402 62e0 	and.w	r2, r2, #1792	; 0x700
    2986:	4313      	orrs	r3, r2
  SCB->AIRCR  = (uint32_t)((0x5FAUL << SCB_AIRCR_VECTKEY_Pos)    |
    2988:	60cb      	str	r3, [r1, #12]
    298a:	f3bf 8f4f 	dsb	sy
    __NOP();
    298e:	bf00      	nop
  for(;;)                                                           /* wait until reset */
    2990:	e7fd      	b.n	298e <SystemInit+0x19a>
    SystemCoreClock = __SYSTEM_CLOCK_64M;
    2992:	4b0b      	ldr	r3, [pc, #44]	; (29c0 <SystemInit+0x1cc>)
    2994:	4a0b      	ldr	r2, [pc, #44]	; (29c4 <SystemInit+0x1d0>)
    2996:	601a      	str	r2, [r3, #0]
            NVIC_SystemReset();
        }
    #endif

    SystemCoreClockUpdate();
}
    2998:	bd10      	pop	{r4, pc}
    299a:	bf00      	nop
    299c:	4000c000 	.word	0x4000c000
    29a0:	40005000 	.word	0x40005000
    29a4:	00038148 	.word	0x00038148
    29a8:	4000f000 	.word	0x4000f000
    29ac:	40029000 	.word	0x40029000
    29b0:	000056ca 	.word	0x000056ca
    29b4:	4001e000 	.word	0x4001e000
    29b8:	e000ed00 	.word	0xe000ed00
    29bc:	05fa0004 	.word	0x05fa0004
    29c0:	20000054 	.word	0x20000054
    29c4:	03d09000 	.word	0x03d09000

000029c8 <nrfx_flag32_alloc>:
{
    return (mask & NRFX_BIT(bitpos)) ? false : true;
}

nrfx_err_t nrfx_flag32_alloc(nrfx_atomic_t * p_mask, uint8_t *p_flag)
{
    29c8:	b570      	push	{r4, r5, r6, lr}
        idx = 31 - NRF_CLZ(prev_mask);
        if (idx < 0) {
            return NRFX_ERROR_NO_MEM;
        }

        new_mask = prev_mask & ~NRFX_BIT(idx);
    29ca:	2501      	movs	r5, #1
        prev_mask = *p_mask;
    29cc:	6802      	ldr	r2, [r0, #0]
        idx = 31 - NRF_CLZ(prev_mask);
    29ce:	fab2 f382 	clz	r3, r2
    29d2:	f1c3 031f 	rsb	r3, r3, #31
        if (idx < 0) {
    29d6:	1c5e      	adds	r6, r3, #1
        idx = 31 - NRF_CLZ(prev_mask);
    29d8:	b2dc      	uxtb	r4, r3
        if (idx < 0) {
    29da:	d014      	beq.n	2a06 <nrfx_flag32_alloc+0x3e>
	return __atomic_compare_exchange_n(target, &old_value, new_value,
    29dc:	f3bf 8f5b 	dmb	ish
        new_mask = prev_mask & ~NRFX_BIT(idx);
    29e0:	fa05 f303 	lsl.w	r3, r5, r3
    29e4:	ea22 0303 	bic.w	r3, r2, r3
    29e8:	e850 6f00 	ldrex	r6, [r0]
    29ec:	4296      	cmp	r6, r2
    29ee:	d104      	bne.n	29fa <nrfx_flag32_alloc+0x32>
    29f0:	e840 3c00 	strex	ip, r3, [r0]
    29f4:	f1bc 0f00 	cmp.w	ip, #0
    29f8:	d1f6      	bne.n	29e8 <nrfx_flag32_alloc+0x20>
    29fa:	f3bf 8f5b 	dmb	ish
    } while (!NRFX_ATOMIC_CAS(p_mask, prev_mask, new_mask));
    29fe:	d1e5      	bne.n	29cc <nrfx_flag32_alloc+0x4>

    *p_flag = idx;

    return NRFX_SUCCESS;
    2a00:	4802      	ldr	r0, [pc, #8]	; (2a0c <nrfx_flag32_alloc+0x44>)
    *p_flag = idx;
    2a02:	700c      	strb	r4, [r1, #0]
}
    2a04:	bd70      	pop	{r4, r5, r6, pc}
            return NRFX_ERROR_NO_MEM;
    2a06:	4802      	ldr	r0, [pc, #8]	; (2a10 <nrfx_flag32_alloc+0x48>)
    2a08:	e7fc      	b.n	2a04 <nrfx_flag32_alloc+0x3c>
    2a0a:	bf00      	nop
    2a0c:	0bad0000 	.word	0x0bad0000
    2a10:	0bad0002 	.word	0x0bad0002

00002a14 <nrfx_flag32_free>:

nrfx_err_t nrfx_flag32_free(nrfx_atomic_t * p_mask, uint8_t flag)
{
    uint32_t new_mask, prev_mask;

    if ((NRFX_BIT(flag) & *p_mask))
    2a14:	6803      	ldr	r3, [r0, #0]
    2a16:	40cb      	lsrs	r3, r1
    2a18:	07db      	lsls	r3, r3, #31
{
    2a1a:	b510      	push	{r4, lr}
    if ((NRFX_BIT(flag) & *p_mask))
    2a1c:	d415      	bmi.n	2a4a <nrfx_flag32_free+0x36>
        return NRFX_ERROR_INVALID_PARAM;
    }

    do {
        prev_mask = *p_mask;
        new_mask = prev_mask | NRFX_BIT(flag);
    2a1e:	2301      	movs	r3, #1
    2a20:	fa03 f101 	lsl.w	r1, r3, r1
        prev_mask = *p_mask;
    2a24:	6803      	ldr	r3, [r0, #0]
    2a26:	f3bf 8f5b 	dmb	ish
        new_mask = prev_mask | NRFX_BIT(flag);
    2a2a:	ea41 0203 	orr.w	r2, r1, r3
    2a2e:	e850 4f00 	ldrex	r4, [r0]
    2a32:	429c      	cmp	r4, r3
    2a34:	d104      	bne.n	2a40 <nrfx_flag32_free+0x2c>
    2a36:	e840 2c00 	strex	ip, r2, [r0]
    2a3a:	f1bc 0f00 	cmp.w	ip, #0
    2a3e:	d1f6      	bne.n	2a2e <nrfx_flag32_free+0x1a>
    2a40:	f3bf 8f5b 	dmb	ish
    } while (!NRFX_ATOMIC_CAS(p_mask, prev_mask, new_mask));
    2a44:	d1ee      	bne.n	2a24 <nrfx_flag32_free+0x10>

    return NRFX_SUCCESS;
    2a46:	4802      	ldr	r0, [pc, #8]	; (2a50 <nrfx_flag32_free+0x3c>)
}
    2a48:	bd10      	pop	{r4, pc}
        return NRFX_ERROR_INVALID_PARAM;
    2a4a:	4802      	ldr	r0, [pc, #8]	; (2a54 <nrfx_flag32_free+0x40>)
    2a4c:	e7fc      	b.n	2a48 <nrfx_flag32_free+0x34>
    2a4e:	bf00      	nop
    2a50:	0bad0000 	.word	0x0bad0000
    2a54:	0bad0004 	.word	0x0bad0004

00002a58 <clock_stop>:
    CoreDebug->DEMCR = core_debug;
}
#endif // NRFX_CHECK(USE_WORKAROUND_FOR_ANOMALY_132)

static void clock_stop(nrf_clock_domain_t domain)
{
    2a58:	b5f7      	push	{r0, r1, r2, r4, r5, r6, r7, lr}
    switch (domain)
    2a5a:	4604      	mov	r4, r0
    2a5c:	b118      	cbz	r0, 2a66 <clock_stop+0xe>
    2a5e:	2801      	cmp	r0, #1
    2a60:	d029      	beq.n	2ab6 <clock_stop+0x5e>
    if (domain == NRF_CLOCK_DOMAIN_HFCLK)
    {
            m_clock_cb.hfclk_started = false;
    }
#endif
}
    2a62:	b003      	add	sp, #12
    2a64:	bdf0      	pop	{r4, r5, r6, r7, pc}
    p_reg->INTENCLR = mask;
    2a66:	f04f 4380 	mov.w	r3, #1073741824	; 0x40000000
    2a6a:	2202      	movs	r2, #2
    2a6c:	f8c3 2308 	str.w	r2, [r3, #776]	; 0x308
    *((volatile uint32_t *)((uint8_t *)p_reg + (uint32_t)event)) = 0x0UL;
    2a70:	f8c3 0104 	str.w	r0, [r3, #260]	; 0x104
    2a74:	f8d3 2104 	ldr.w	r2, [r3, #260]	; 0x104
    *((volatile uint32_t *)((uint8_t *)p_reg + (uint32_t)task)) = 0x1UL;
    2a78:	2201      	movs	r2, #1
    2a7a:	60da      	str	r2, [r3, #12]
    nrf_clock_hfclk_t clk_src = NRF_CLOCK_HFCLK_HIGH_ACCURACY;
    2a7c:	2301      	movs	r3, #1
    nrf_clock_hfclk_t *p_clk_src = (domain == NRF_CLOCK_DOMAIN_HFCLK) ? &clk_src : NULL;
    2a7e:	429c      	cmp	r4, r3
    nrf_clock_hfclk_t clk_src = NRF_CLOCK_HFCLK_HIGH_ACCURACY;
    2a80:	f88d 3007 	strb.w	r3, [sp, #7]
    nrf_clock_hfclk_t *p_clk_src = (domain == NRF_CLOCK_DOMAIN_HFCLK) ? &clk_src : NULL;
    2a84:	bf14      	ite	ne
    2a86:	2500      	movne	r5, #0
    2a88:	f10d 0507 	addeq.w	r5, sp, #7
    2a8c:	f242 7710 	movw	r7, #10000	; 0x2710
            if ((p_reg->LFCLKSTAT & CLOCK_LFCLKSTAT_STATE_Msk)
    2a90:	f04f 4680 	mov.w	r6, #1073741824	; 0x40000000
    switch (domain)
    2a94:	b1d4      	cbz	r4, 2acc <clock_stop+0x74>
    2a96:	2c01      	cmp	r4, #1
    2a98:	d1e3      	bne.n	2a62 <clock_stop+0xa>
            if (p_clk_src != NULL)
    2a9a:	b125      	cbz	r5, 2aa6 <clock_stop+0x4e>
                    (nrf_clock_hfclk_t)((p_reg->HFCLKSTAT & CLOCK_HFCLKSTAT_SRC_Msk)
    2a9c:	f8d6 340c 	ldr.w	r3, [r6, #1036]	; 0x40c
    2aa0:	f003 0301 	and.w	r3, r3, #1
                (*(nrf_clock_hfclk_t *)p_clk_src) =
    2aa4:	702b      	strb	r3, [r5, #0]
            if ((p_reg->HFCLKSTAT & CLOCK_HFCLKSTAT_STATE_Msk)
    2aa6:	f8d6 340c 	ldr.w	r3, [r6, #1036]	; 0x40c
    2aaa:	03db      	lsls	r3, r3, #15
    2aac:	d418      	bmi.n	2ae0 <clock_stop+0x88>
            m_clock_cb.hfclk_started = false;
    2aae:	4b13      	ldr	r3, [pc, #76]	; (2afc <clock_stop+0xa4>)
    2ab0:	2200      	movs	r2, #0
    2ab2:	715a      	strb	r2, [r3, #5]
    2ab4:	e7d5      	b.n	2a62 <clock_stop+0xa>
    p_reg->INTENCLR = mask;
    2ab6:	f04f 4380 	mov.w	r3, #1073741824	; 0x40000000
    *((volatile uint32_t *)((uint8_t *)p_reg + (uint32_t)event)) = 0x0UL;
    2aba:	2200      	movs	r2, #0
    p_reg->INTENCLR = mask;
    2abc:	f8c3 0308 	str.w	r0, [r3, #776]	; 0x308
    *((volatile uint32_t *)((uint8_t *)p_reg + (uint32_t)event)) = 0x0UL;
    2ac0:	f8c3 2100 	str.w	r2, [r3, #256]	; 0x100
    2ac4:	f8d3 2100 	ldr.w	r2, [r3, #256]	; 0x100
    *((volatile uint32_t *)((uint8_t *)p_reg + (uint32_t)task)) = 0x1UL;
    2ac8:	6058      	str	r0, [r3, #4]
}
    2aca:	e7d7      	b.n	2a7c <clock_stop+0x24>
            if (p_clk_src != NULL)
    2acc:	b125      	cbz	r5, 2ad8 <clock_stop+0x80>
                    (nrf_clock_lfclk_t)((p_reg->LFCLKSTAT & CLOCK_LFCLKSTAT_SRC_Msk)
    2ace:	f8d6 3418 	ldr.w	r3, [r6, #1048]	; 0x418
                                        >> CLOCK_LFCLKSTAT_SRC_Pos);
    2ad2:	f003 0303 	and.w	r3, r3, #3
                (*(nrf_clock_lfclk_t *)p_clk_src) =
    2ad6:	602b      	str	r3, [r5, #0]
            if ((p_reg->LFCLKSTAT & CLOCK_LFCLKSTAT_STATE_Msk)
    2ad8:	f8d6 3418 	ldr.w	r3, [r6, #1048]	; 0x418
    2adc:	03da      	lsls	r2, r3, #15
    2ade:	d5c0      	bpl.n	2a62 <clock_stop+0xa>
    NRFX_WAIT_FOR((!nrfx_clock_is_running(domain, p_clk_src) ||
    2ae0:	b92d      	cbnz	r5, 2aee <clock_stop+0x96>
    2ae2:	2001      	movs	r0, #1
    2ae4:	f002 f928 	bl	4d38 <nrfx_busy_wait>
    2ae8:	3f01      	subs	r7, #1
    2aea:	d1d3      	bne.n	2a94 <clock_stop+0x3c>
    2aec:	e003      	b.n	2af6 <clock_stop+0x9e>
    2aee:	f89d 3007 	ldrb.w	r3, [sp, #7]
    2af2:	2b01      	cmp	r3, #1
    2af4:	d0f5      	beq.n	2ae2 <clock_stop+0x8a>
    if (domain == NRF_CLOCK_DOMAIN_HFCLK)
    2af6:	2c01      	cmp	r4, #1
    2af8:	d0d9      	beq.n	2aae <clock_stop+0x56>
    2afa:	e7b2      	b.n	2a62 <clock_stop+0xa>
    2afc:	200008c0 	.word	0x200008c0

00002b00 <nrfx_clock_init>:
nrfx_err_t nrfx_clock_init(nrfx_clock_event_handler_t event_handler)
{
    NRFX_ASSERT(event_handler);

    nrfx_err_t err_code = NRFX_SUCCESS;
    if (m_clock_cb.module_initialized)
    2b00:	4b04      	ldr	r3, [pc, #16]	; (2b14 <nrfx_clock_init+0x14>)
    2b02:	791a      	ldrb	r2, [r3, #4]
    2b04:	b922      	cbnz	r2, 2b10 <nrfx_clock_init+0x10>
    {
#if NRFX_CHECK(NRFX_CLOCK_CONFIG_LF_CAL_ENABLED)
        m_clock_cb.cal_state = CAL_STATE_IDLE;
#endif
        m_clock_cb.event_handler = event_handler;
        m_clock_cb.module_initialized = true;
    2b06:	2201      	movs	r2, #1
        m_clock_cb.event_handler = event_handler;
    2b08:	6018      	str	r0, [r3, #0]
        m_clock_cb.module_initialized = true;
    2b0a:	809a      	strh	r2, [r3, #4]
    nrfx_err_t err_code = NRFX_SUCCESS;
    2b0c:	4802      	ldr	r0, [pc, #8]	; (2b18 <nrfx_clock_init+0x18>)
    2b0e:	4770      	bx	lr
        err_code = NRFX_ERROR_ALREADY_INITIALIZED;
    2b10:	4802      	ldr	r0, [pc, #8]	; (2b1c <nrfx_clock_init+0x1c>)
#endif
    }

    NRFX_LOG_INFO("Function: %s, error code: %s.", __func__, NRFX_LOG_ERROR_STRING_GET(err_code));
    return err_code;
}
    2b12:	4770      	bx	lr
    2b14:	200008c0 	.word	0x200008c0
    2b18:	0bad0000 	.word	0x0bad0000
    2b1c:	0bad000c 	.word	0x0bad000c

00002b20 <nrfx_power_clock_irq_handler>:
    return (bool)*((volatile uint32_t *)((uint8_t *)p_reg + event));
    2b20:	f04f 4380 	mov.w	r3, #1073741824	; 0x40000000
    }
}
#endif

void nrfx_clock_irq_handler(void)
{
    2b24:	b510      	push	{r4, lr}
    2b26:	f8d3 2100 	ldr.w	r2, [r3, #256]	; 0x100
    if (nrf_clock_event_check(NRF_CLOCK, NRF_CLOCK_EVENT_HFCLKSTARTED))
    2b2a:	b16a      	cbz	r2, 2b48 <nrfx_power_clock_irq_handler+0x28>
    *((volatile uint32_t *)((uint8_t *)p_reg + (uint32_t)event)) = 0x0UL;
    2b2c:	2200      	movs	r2, #0
    2b2e:	f8c3 2100 	str.w	r2, [r3, #256]	; 0x100
    2b32:	f8d3 2100 	ldr.w	r2, [r3, #256]	; 0x100
    p_reg->INTENCLR = mask;
    2b36:	2201      	movs	r2, #1
    2b38:	f8c3 2308 	str.w	r2, [r3, #776]	; 0x308
        nrf_clock_event_clear(NRF_CLOCK, NRF_CLOCK_EVENT_HFCLKSTARTED);
        NRFX_LOG_DEBUG("Event: NRF_CLOCK_EVENT_HFCLKSTARTED");
        nrf_clock_int_disable(NRF_CLOCK, NRF_CLOCK_INT_HF_STARTED_MASK);

#if NRFX_CHECK(USE_WORKAROUND_FOR_ANOMALY_201)
        if (!m_clock_cb.hfclk_started)
    2b3c:	4b11      	ldr	r3, [pc, #68]	; (2b84 <nrfx_power_clock_irq_handler+0x64>)
    2b3e:	7958      	ldrb	r0, [r3, #5]
    2b40:	b910      	cbnz	r0, 2b48 <nrfx_power_clock_irq_handler+0x28>
        {
            m_clock_cb.hfclk_started = true;
    2b42:	715a      	strb	r2, [r3, #5]
            m_clock_cb.event_handler(NRFX_CLOCK_EVT_HFCLK_STARTED);
    2b44:	681b      	ldr	r3, [r3, #0]
    2b46:	4798      	blx	r3
    return (bool)*((volatile uint32_t *)((uint8_t *)p_reg + event));
    2b48:	f04f 4380 	mov.w	r3, #1073741824	; 0x40000000
    2b4c:	f8d3 2104 	ldr.w	r2, [r3, #260]	; 0x104
        }
#else
        m_clock_cb.event_handler(NRFX_CLOCK_EVT_HFCLK_STARTED);
#endif
    }
    if (nrf_clock_event_check(NRF_CLOCK, NRF_CLOCK_EVENT_LFCLKSTARTED))
    2b50:	b172      	cbz	r2, 2b70 <nrfx_power_clock_irq_handler+0x50>
    *((volatile uint32_t *)((uint8_t *)p_reg + (uint32_t)event)) = 0x0UL;
    2b52:	2200      	movs	r2, #0
    2b54:	f8c3 2104 	str.w	r2, [r3, #260]	; 0x104
    2b58:	f8d3 2104 	ldr.w	r2, [r3, #260]	; 0x104
                    (nrf_clock_lfclk_t)((p_reg->LFCLKSTAT & CLOCK_LFCLKSTAT_SRC_Msk)
    2b5c:	f8d3 2418 	ldr.w	r2, [r3, #1048]	; 0x418
            if ((p_reg->LFCLKSTAT & CLOCK_LFCLKSTAT_STATE_Msk)
    2b60:	f8d3 1418 	ldr.w	r1, [r3, #1048]	; 0x418
        NRFX_LOG_DEBUG("Event: NRF_CLOCK_EVENT_LFCLKSTARTED");

#if NRFX_CHECK(NRFX_CLOCK_CONFIG_LFXO_TWO_STAGE_ENABLED)
        nrf_clock_lfclk_t lfclksrc;
        (void)nrf_clock_is_running(NRF_CLOCK, NRF_CLOCK_DOMAIN_LFCLK, &lfclksrc);
        if (lfclksrc == NRF_CLOCK_LFCLK_RC)
    2b64:	0792      	lsls	r2, r2, #30
    2b66:	d104      	bne.n	2b72 <nrfx_power_clock_irq_handler+0x52>
    p_reg->LFCLKSRC = (uint32_t)(source);
    2b68:	2201      	movs	r2, #1
    2b6a:	f8c3 2518 	str.w	r2, [r3, #1304]	; 0x518
    *((volatile uint32_t *)((uint8_t *)p_reg + (uint32_t)task)) = 0x1UL;
    2b6e:	609a      	str	r2, [r3, #8]
        nrf_clock_int_disable(NRF_CLOCK, NRF_CLOCK_INT_HF192M_STARTED_MASK);

        m_clock_cb.event_handler(NRFX_CLOCK_EVT_HFCLK192M_STARTED);
    }
#endif
}
    2b70:	bd10      	pop	{r4, pc}
    p_reg->INTENCLR = mask;
    2b72:	2202      	movs	r2, #2
    2b74:	f8c3 2308 	str.w	r2, [r3, #776]	; 0x308
            m_clock_cb.event_handler(NRFX_CLOCK_EVT_LFCLK_STARTED);
    2b78:	4b02      	ldr	r3, [pc, #8]	; (2b84 <nrfx_power_clock_irq_handler+0x64>)
}
    2b7a:	e8bd 4010 	ldmia.w	sp!, {r4, lr}
            m_clock_cb.event_handler(NRFX_CLOCK_EVT_LFCLK_STARTED);
    2b7e:	681b      	ldr	r3, [r3, #0]
    2b80:	2001      	movs	r0, #1
    2b82:	4718      	bx	r3
    2b84:	200008c0 	.word	0x200008c0

00002b88 <nrf_gpio_pin_port_decode>:
    uint32_t pin_number = *p_pin;
    2b88:	6803      	ldr	r3, [r0, #0]
    *p_pin = pin_number & 0x1F;
    2b8a:	f003 021f 	and.w	r2, r3, #31
    return pin_number >> 5;
    2b8e:	095b      	lsrs	r3, r3, #5
        case 1: return NRF_P1;
    2b90:	2b01      	cmp	r3, #1
    *p_pin = pin_number & 0x1F;
    2b92:	6002      	str	r2, [r0, #0]
}
    2b94:	4802      	ldr	r0, [pc, #8]	; (2ba0 <nrf_gpio_pin_port_decode+0x18>)
    2b96:	bf18      	it	ne
    2b98:	f04f 40a0 	movne.w	r0, #1342177280	; 0x50000000
    2b9c:	4770      	bx	lr
    2b9e:	bf00      	nop
    2ba0:	50000300 	.word	0x50000300

00002ba4 <pin_in_use_by_te>:
 *
 * @return True if pin uses GPIOTE task/event.
 */
static bool pin_in_use_by_te(uint32_t pin)
{
    return m_cb.pin_flags[pin] & PIN_FLAG_TE_USED;
    2ba4:	4b03      	ldr	r3, [pc, #12]	; (2bb4 <pin_in_use_by_te+0x10>)
    2ba6:	3008      	adds	r0, #8
    2ba8:	f833 0010 	ldrh.w	r0, [r3, r0, lsl #1]
}
    2bac:	f3c0 1040 	ubfx	r0, r0, #5, #1
    2bb0:	4770      	bx	lr
    2bb2:	bf00      	nop
    2bb4:	20000058 	.word	0x20000058

00002bb8 <call_handler>:
    nrf_gpiote_event_t event = nrfx_gpiote_in_event_get(pin);
    return nrf_gpiote_event_address_get(NRF_GPIOTE, event);
}

static void call_handler(nrfx_gpiote_pin_t pin, nrfx_gpiote_trigger_t trigger)
{
    2bb8:	b570      	push	{r4, r5, r6, lr}
    int32_t handler_id = PIN_GET_HANDLER_ID(m_cb.pin_flags[pin]);
    2bba:	f100 0308 	add.w	r3, r0, #8
    2bbe:	4c0c      	ldr	r4, [pc, #48]	; (2bf0 <call_handler+0x38>)
    2bc0:	f834 3013 	ldrh.w	r3, [r4, r3, lsl #1]
    2bc4:	05da      	lsls	r2, r3, #23
{
    2bc6:	4605      	mov	r5, r0
    2bc8:	460e      	mov	r6, r1
    int32_t handler_id = PIN_GET_HANDLER_ID(m_cb.pin_flags[pin]);
    2bca:	d507      	bpl.n	2bdc <call_handler+0x24>
    2bcc:	f3c3 2343 	ubfx	r3, r3, #9, #4
    nrfx_gpiote_handler_config_t const * handler = channel_handler_get(pin);

    if (handler)
    {
        handler->handler(pin, trigger, handler->p_context);
    2bd0:	eb04 02c3 	add.w	r2, r4, r3, lsl #3
    2bd4:	f854 3033 	ldr.w	r3, [r4, r3, lsl #3]
    2bd8:	6852      	ldr	r2, [r2, #4]
    2bda:	4798      	blx	r3
    }
    if (m_cb.global_handler.handler)
    2bdc:	68a3      	ldr	r3, [r4, #8]
    2bde:	b12b      	cbz	r3, 2bec <call_handler+0x34>
    {
        m_cb.global_handler.handler(pin, trigger, m_cb.global_handler.p_context);
    2be0:	68e2      	ldr	r2, [r4, #12]
    2be2:	4631      	mov	r1, r6
    2be4:	4628      	mov	r0, r5
    }
}
    2be6:	e8bd 4070 	ldmia.w	sp!, {r4, r5, r6, lr}
        m_cb.global_handler.handler(pin, trigger, m_cb.global_handler.p_context);
    2bea:	4718      	bx	r3
}
    2bec:	bd70      	pop	{r4, r5, r6, pc}
    2bee:	bf00      	nop
    2bf0:	20000058 	.word	0x20000058

00002bf4 <release_handler>:
    int32_t handler_id = PIN_GET_HANDLER_ID(m_cb.pin_flags[pin]);
    2bf4:	4a12      	ldr	r2, [pc, #72]	; (2c40 <release_handler+0x4c>)
    2bf6:	3008      	adds	r0, #8
{
    2bf8:	b410      	push	{r4}
    int32_t handler_id = PIN_GET_HANDLER_ID(m_cb.pin_flags[pin]);
    2bfa:	f832 3010 	ldrh.w	r3, [r2, r0, lsl #1]
    2bfe:	05d9      	lsls	r1, r3, #23
    2c00:	d51b      	bpl.n	2c3a <release_handler+0x46>
    2c02:	f3c3 2143 	ubfx	r1, r3, #9, #4
    m_cb.pin_flags[pin] &= ~PIN_HANDLER_MASK;
    2c06:	f423 53f8 	bic.w	r3, r3, #7936	; 0x1f00
    2c0a:	f822 3010 	strh.w	r3, [r2, r0, lsl #1]
    for (uint32_t i = 0; i < MAX_PIN_NUMBER; i++)
    2c0e:	f102 0410 	add.w	r4, r2, #16
    2c12:	2000      	movs	r0, #0
        if (PIN_GET_HANDLER_ID(m_cb.pin_flags[i]) == handler_id)
    2c14:	f834 3b02 	ldrh.w	r3, [r4], #2
    2c18:	f413 7f80 	tst.w	r3, #256	; 0x100
    2c1c:	d003      	beq.n	2c26 <release_handler+0x32>
    2c1e:	f3c3 2343 	ubfx	r3, r3, #9, #4
    2c22:	4299      	cmp	r1, r3
    2c24:	d009      	beq.n	2c3a <release_handler+0x46>
    for (uint32_t i = 0; i < MAX_PIN_NUMBER; i++)
    2c26:	3001      	adds	r0, #1
    2c28:	2830      	cmp	r0, #48	; 0x30
    2c2a:	d1f3      	bne.n	2c14 <release_handler+0x20>
        m_cb.handlers[handler_id].handler = NULL;
    2c2c:	2300      	movs	r3, #0
    2c2e:	f842 3031 	str.w	r3, [r2, r1, lsl #3]
        nrfx_err_t err = nrfx_flag32_free(&m_cb.available_evt_handlers, handler_id);
    2c32:	4804      	ldr	r0, [pc, #16]	; (2c44 <release_handler+0x50>)
}
    2c34:	bc10      	pop	{r4}
        nrfx_err_t err = nrfx_flag32_free(&m_cb.available_evt_handlers, handler_id);
    2c36:	f7ff beed 	b.w	2a14 <nrfx_flag32_free>
}
    2c3a:	bc10      	pop	{r4}
    2c3c:	4770      	bx	lr
    2c3e:	bf00      	nop
    2c40:	20000058 	.word	0x20000058
    2c44:	200000cc 	.word	0x200000cc

00002c48 <pin_handler_trigger_uninit>:
{
    2c48:	b538      	push	{r3, r4, r5, lr}
    2c4a:	4602      	mov	r2, r0
    if (pin_in_use_by_te(pin))
    2c4c:	f7ff ffaa 	bl	2ba4 <pin_in_use_by_te>
    2c50:	4c09      	ldr	r4, [pc, #36]	; (2c78 <pin_handler_trigger_uninit+0x30>)
    2c52:	f102 0508 	add.w	r5, r2, #8
    2c56:	b140      	cbz	r0, 2c6a <pin_handler_trigger_uninit+0x22>
    return PIN_GET_TE_ID(m_cb.pin_flags[pin]);
    2c58:	f834 3015 	ldrh.w	r3, [r4, r5, lsl #1]
                         ((init_val << GPIOTE_CONFIG_OUTINIT_Pos) & GPIOTE_CONFIG_OUTINIT_Msk);
}

NRF_STATIC_INLINE void nrf_gpiote_te_default(NRF_GPIOTE_Type * p_reg, uint32_t idx)
{
    p_reg->CONFIG[idx] = 0;
    2c5c:	4907      	ldr	r1, [pc, #28]	; (2c7c <pin_handler_trigger_uninit+0x34>)
        nrf_gpiote_te_default(NRF_GPIOTE, pin_te_get(pin));
    2c5e:	0b5b      	lsrs	r3, r3, #13
    2c60:	f503 73a2 	add.w	r3, r3, #324	; 0x144
    2c64:	2000      	movs	r0, #0
    2c66:	f841 0023 	str.w	r0, [r1, r3, lsl #2]
    release_handler(pin);
    2c6a:	4610      	mov	r0, r2
    2c6c:	f7ff ffc2 	bl	2bf4 <release_handler>
    m_cb.pin_flags[pin] = PIN_FLAG_NOT_USED;
    2c70:	2300      	movs	r3, #0
    2c72:	f824 3015 	strh.w	r3, [r4, r5, lsl #1]
}
    2c76:	bd38      	pop	{r3, r4, r5, pc}
    2c78:	20000058 	.word	0x20000058
    2c7c:	40006000 	.word	0x40006000

00002c80 <nrfx_gpiote_input_configure>:
{
    2c80:	e92d 41ff 	stmdb	sp!, {r0, r1, r2, r3, r4, r5, r6, r7, r8, lr}
    2c84:	4604      	mov	r4, r0
    2c86:	4617      	mov	r7, r2
    2c88:	461d      	mov	r5, r3
    if (p_input_config)
    2c8a:	b321      	cbz	r1, 2cd6 <nrfx_gpiote_input_configure+0x56>
    return PIN_FLAG_IS_OUTPUT(m_cb.pin_flags[pin]);
    2c8c:	4e4e      	ldr	r6, [pc, #312]	; (2dc8 <nrfx_gpiote_input_configure+0x148>)
    2c8e:	f100 0808 	add.w	r8, r0, #8
    return pin_is_output(pin) && pin_in_use_by_te(pin);
    2c92:	f836 3018 	ldrh.w	r3, [r6, r8, lsl #1]
    2c96:	079b      	lsls	r3, r3, #30
    2c98:	d506      	bpl.n	2ca8 <nrfx_gpiote_input_configure+0x28>
    2c9a:	f7ff ff83 	bl	2ba4 <pin_in_use_by_te>
        if (pin_is_task_output(pin))
    2c9e:	b118      	cbz	r0, 2ca8 <nrfx_gpiote_input_configure+0x28>
                return NRFX_ERROR_INVALID_PARAM;
    2ca0:	484a      	ldr	r0, [pc, #296]	; (2dcc <nrfx_gpiote_input_configure+0x14c>)
}
    2ca2:	b004      	add	sp, #16
    2ca4:	e8bd 81f0 	ldmia.w	sp!, {r4, r5, r6, r7, r8, pc}
        nrf_gpio_pin_dir_t dir = NRF_GPIO_PIN_DIR_INPUT;
    2ca8:	2300      	movs	r3, #0
        nrf_gpio_reconfigure(pin, &dir, &input_connect, &p_input_config->pull, NULL, NULL);
    2caa:	e9cd 3300 	strd	r3, r3, [sp]
        nrf_gpio_pin_dir_t dir = NRF_GPIO_PIN_DIR_INPUT;
    2cae:	f88d 300e 	strb.w	r3, [sp, #14]
        nrf_gpio_pin_input_t input_connect = NRF_GPIO_PIN_INPUT_CONNECT;
    2cb2:	f88d 300f 	strb.w	r3, [sp, #15]
        nrf_gpio_reconfigure(pin, &dir, &input_connect, &p_input_config->pull, NULL, NULL);
    2cb6:	f10d 020f 	add.w	r2, sp, #15
    2cba:	460b      	mov	r3, r1
    2cbc:	4620      	mov	r0, r4
    2cbe:	f10d 010e 	add.w	r1, sp, #14
    2cc2:	f002 f887 	bl	4dd4 <nrf_gpio_reconfigure>
        m_cb.pin_flags[pin] &= ~PIN_FLAG_OUTPUT;
    2cc6:	f836 3018 	ldrh.w	r3, [r6, r8, lsl #1]
    2cca:	f023 0302 	bic.w	r3, r3, #2
        m_cb.pin_flags[pin] |= PIN_FLAG_IN_USE;
    2cce:	f043 0301 	orr.w	r3, r3, #1
    2cd2:	f826 3018 	strh.w	r3, [r6, r8, lsl #1]
    if (p_trigger_config)
    2cd6:	b197      	cbz	r7, 2cfe <nrfx_gpiote_input_configure+0x7e>
    return PIN_FLAG_IS_OUTPUT(m_cb.pin_flags[pin]);
    2cd8:	4b3b      	ldr	r3, [pc, #236]	; (2dc8 <nrfx_gpiote_input_configure+0x148>)
        nrfx_gpiote_trigger_t trigger = p_trigger_config->trigger;
    2cda:	783e      	ldrb	r6, [r7, #0]
        bool use_evt = p_trigger_config->p_in_channel ? true : false;
    2cdc:	687a      	ldr	r2, [r7, #4]
    return PIN_FLAG_IS_OUTPUT(m_cb.pin_flags[pin]);
    2cde:	f104 0008 	add.w	r0, r4, #8
    2ce2:	f833 1010 	ldrh.w	r1, [r3, r0, lsl #1]
        if (pin_is_output(pin))
    2ce6:	078f      	lsls	r7, r1, #30
    2ce8:	d50c      	bpl.n	2d04 <nrfx_gpiote_input_configure+0x84>
            if (use_evt)
    2cea:	2a00      	cmp	r2, #0
    2cec:	d1d8      	bne.n	2ca0 <nrfx_gpiote_input_configure+0x20>
        m_cb.pin_flags[pin] &= ~PIN_FLAG_TRIG_MODE_MASK;
    2cee:	f833 2010 	ldrh.w	r2, [r3, r0, lsl #1]
    2cf2:	f022 021c 	bic.w	r2, r2, #28
        m_cb.pin_flags[pin] |= PIN_FLAG_TRIG_MODE_SET(trigger);
    2cf6:	ea42 0286 	orr.w	r2, r2, r6, lsl #2
    2cfa:	f823 2010 	strh.w	r2, [r3, r0, lsl #1]
    if (p_handler_config)
    2cfe:	bbcd      	cbnz	r5, 2d74 <nrfx_gpiote_input_configure+0xf4>
    return NRFX_SUCCESS;
    2d00:	4833      	ldr	r0, [pc, #204]	; (2dd0 <nrfx_gpiote_input_configure+0x150>)
    2d02:	e7ce      	b.n	2ca2 <nrfx_gpiote_input_configure+0x22>
            m_cb.pin_flags[pin] &= ~(PIN_TE_ID_MASK | PIN_FLAG_TE_USED);
    2d04:	f021 0120 	bic.w	r1, r1, #32
    2d08:	04c9      	lsls	r1, r1, #19
    2d0a:	0cc9      	lsrs	r1, r1, #19
    2d0c:	f823 1010 	strh.w	r1, [r3, r0, lsl #1]
            if (use_evt)
    2d10:	2a00      	cmp	r2, #0
    2d12:	d0ec      	beq.n	2cee <nrfx_gpiote_input_configure+0x6e>
                if (!edge)
    2d14:	2e03      	cmp	r6, #3
    2d16:	d8c3      	bhi.n	2ca0 <nrfx_gpiote_input_configure+0x20>
                uint8_t ch = *p_trigger_config->p_in_channel;
    2d18:	7817      	ldrb	r7, [r2, #0]
                if (trigger == NRFX_GPIOTE_TRIGGER_NONE)
    2d1a:	b92e      	cbnz	r6, 2d28 <nrfx_gpiote_input_configure+0xa8>
    2d1c:	4a2d      	ldr	r2, [pc, #180]	; (2dd4 <nrfx_gpiote_input_configure+0x154>)
    2d1e:	f507 71a2 	add.w	r1, r7, #324	; 0x144
    2d22:	f842 6021 	str.w	r6, [r2, r1, lsl #2]
#if defined(NRF9160_XXAA) || defined(NRF5340_XXAA)
    p_reg->CONFIG[idx] = 0;
#endif
}
    2d26:	e7e2      	b.n	2cee <nrfx_gpiote_input_configure+0x6e>
   p_reg->CONFIG[idx] &= ~GPIOTE_CONFIG_MODE_Msk;
    2d28:	00ba      	lsls	r2, r7, #2
    2d2a:	f102 4280 	add.w	r2, r2, #1073741824	; 0x40000000
    2d2e:	f502 42c0 	add.w	r2, r2, #24576	; 0x6000
                    m_cb.pin_flags[pin] |= PIN_FLAG_TE_ID(ch);
    2d32:	ea41 3147 	orr.w	r1, r1, r7, lsl #13
    2d36:	f8d2 c510 	ldr.w	ip, [r2, #1296]	; 0x510
    2d3a:	f02c 0c03 	bic.w	ip, ip, #3
    2d3e:	f8c2 c510 	str.w	ip, [r2, #1296]	; 0x510
  p_reg->CONFIG[idx] &= ~(GPIOTE_CONFIG_PORT_PIN_Msk | GPIOTE_CONFIG_POLARITY_Msk);
    2d42:	f8d2 c510 	ldr.w	ip, [r2, #1296]	; 0x510
    2d46:	f42c 3c4f 	bic.w	ip, ip, #211968	; 0x33c00
    2d4a:	f42c 7c40 	bic.w	ip, ip, #768	; 0x300
    2d4e:	f8c2 c510 	str.w	ip, [r2, #1296]	; 0x510
  p_reg->CONFIG[idx] |= ((pin << GPIOTE_CONFIG_PSEL_Pos) & GPIOTE_CONFIG_PORT_PIN_Msk) |
    2d52:	f8d2 e510 	ldr.w	lr, [r2, #1296]	; 0x510
    2d56:	ea4f 2c04 	mov.w	ip, r4, lsl #8
    2d5a:	f40c 5c7c 	and.w	ip, ip, #16128	; 0x3f00
    2d5e:	ea4e 4e06 	orr.w	lr, lr, r6, lsl #16
    2d62:	ea4c 0c0e 	orr.w	ip, ip, lr
    2d66:	f041 0120 	orr.w	r1, r1, #32
    2d6a:	f823 1010 	strh.w	r1, [r3, r0, lsl #1]
    2d6e:	f8c2 c510 	str.w	ip, [r2, #1296]	; 0x510
    2d72:	e7bc      	b.n	2cee <nrfx_gpiote_input_configure+0x6e>
        err = pin_handler_set(pin, p_handler_config->handler, p_handler_config->p_context);
    2d74:	e9d5 6700 	ldrd	r6, r7, [r5]
    release_handler(pin);
    2d78:	4620      	mov	r0, r4
    2d7a:	f7ff ff3b 	bl	2bf4 <release_handler>
    if (!handler)
    2d7e:	2e00      	cmp	r6, #0
    2d80:	d0be      	beq.n	2d00 <nrfx_gpiote_input_configure+0x80>
        if ((m_cb.handlers[i].handler == handler) && (m_cb.handlers[i].p_context == p_context))
    2d82:	4d11      	ldr	r5, [pc, #68]	; (2dc8 <nrfx_gpiote_input_configure+0x148>)
    2d84:	682b      	ldr	r3, [r5, #0]
    2d86:	429e      	cmp	r6, r3
    2d88:	d104      	bne.n	2d94 <nrfx_gpiote_input_configure+0x114>
    2d8a:	686b      	ldr	r3, [r5, #4]
    2d8c:	429f      	cmp	r7, r3
    2d8e:	d101      	bne.n	2d94 <nrfx_gpiote_input_configure+0x114>
    2d90:	2200      	movs	r2, #0
    2d92:	e00a      	b.n	2daa <nrfx_gpiote_input_configure+0x12a>
        err = nrfx_flag32_alloc(&m_cb.available_evt_handlers, &id);
    2d94:	4810      	ldr	r0, [pc, #64]	; (2dd8 <nrfx_gpiote_input_configure+0x158>)
    2d96:	f10d 010f 	add.w	r1, sp, #15
    2d9a:	f7ff fe15 	bl	29c8 <nrfx_flag32_alloc>
        if (err != NRFX_SUCCESS)
    2d9e:	4b0c      	ldr	r3, [pc, #48]	; (2dd0 <nrfx_gpiote_input_configure+0x150>)
    2da0:	4298      	cmp	r0, r3
    2da2:	f47f af7e 	bne.w	2ca2 <nrfx_gpiote_input_configure+0x22>
        handler_id = (int32_t)id;
    2da6:	f89d 200f 	ldrb.w	r2, [sp, #15]
    m_cb.handlers[handler_id].handler = handler;
    2daa:	f845 6032 	str.w	r6, [r5, r2, lsl #3]
    m_cb.handlers[handler_id].p_context = p_context;
    2dae:	eb05 03c2 	add.w	r3, r5, r2, lsl #3
    m_cb.pin_flags[pin] |= PIN_FLAG_HANDLER(handler_id);
    2db2:	3408      	adds	r4, #8
    m_cb.handlers[handler_id].p_context = p_context;
    2db4:	605f      	str	r7, [r3, #4]
    m_cb.pin_flags[pin] |= PIN_FLAG_HANDLER(handler_id);
    2db6:	f835 3014 	ldrh.w	r3, [r5, r4, lsl #1]
    2dba:	ea43 2342 	orr.w	r3, r3, r2, lsl #9
    2dbe:	f443 7380 	orr.w	r3, r3, #256	; 0x100
    2dc2:	f825 3014 	strh.w	r3, [r5, r4, lsl #1]
    2dc6:	e79b      	b.n	2d00 <nrfx_gpiote_input_configure+0x80>
    2dc8:	20000058 	.word	0x20000058
    2dcc:	0bad0004 	.word	0x0bad0004
    2dd0:	0bad0000 	.word	0x0bad0000
    2dd4:	40006000 	.word	0x40006000
    2dd8:	200000cc 	.word	0x200000cc

00002ddc <nrfx_gpiote_output_configure>:
{
    2ddc:	b5f0      	push	{r4, r5, r6, r7, lr}
    2dde:	4604      	mov	r4, r0
    2de0:	b085      	sub	sp, #20
    2de2:	4615      	mov	r5, r2
    if (p_config)
    2de4:	b319      	cbz	r1, 2e2e <nrfx_gpiote_output_configure+0x52>
    return PIN_FLAG_IS_OUTPUT(m_cb.pin_flags[pin]);
    2de6:	4e33      	ldr	r6, [pc, #204]	; (2eb4 <nrfx_gpiote_output_configure+0xd8>)
    2de8:	f100 0708 	add.w	r7, r0, #8
    2dec:	f836 2017 	ldrh.w	r2, [r6, r7, lsl #1]
        if (pin_is_input(pin) && pin_in_use_by_te(pin))
    2df0:	0793      	lsls	r3, r2, #30
    2df2:	d403      	bmi.n	2dfc <nrfx_gpiote_output_configure+0x20>
    2df4:	f7ff fed6 	bl	2ba4 <pin_in_use_by_te>
    2df8:	2800      	cmp	r0, #0
    2dfa:	d158      	bne.n	2eae <nrfx_gpiote_output_configure+0xd2>
        if (pin_has_trigger(pin) && (p_config->input_connect == NRF_GPIO_PIN_INPUT_DISCONNECT))
    2dfc:	f012 0f1c 	tst.w	r2, #28
    2e00:	d002      	beq.n	2e08 <nrfx_gpiote_output_configure+0x2c>
    2e02:	784b      	ldrb	r3, [r1, #1]
    2e04:	2b01      	cmp	r3, #1
    2e06:	d052      	beq.n	2eae <nrfx_gpiote_output_configure+0xd2>
        nrf_gpio_pin_dir_t dir = NRF_GPIO_PIN_DIR_OUTPUT;
    2e08:	2301      	movs	r3, #1
    2e0a:	f88d 300f 	strb.w	r3, [sp, #15]
        nrf_gpio_reconfigure(pin, &dir, &p_config->input_connect, &p_config->pull,
    2e0e:	2300      	movs	r3, #0
    2e10:	e9cd 1300 	strd	r1, r3, [sp]
    2e14:	1c4a      	adds	r2, r1, #1
    2e16:	1c8b      	adds	r3, r1, #2
    2e18:	4620      	mov	r0, r4
    2e1a:	f10d 010f 	add.w	r1, sp, #15
    2e1e:	f001 ffd9 	bl	4dd4 <nrf_gpio_reconfigure>
        m_cb.pin_flags[pin] |= PIN_FLAG_IN_USE | PIN_FLAG_OUTPUT;
    2e22:	f836 3017 	ldrh.w	r3, [r6, r7, lsl #1]
    2e26:	f043 0303 	orr.w	r3, r3, #3
    2e2a:	f826 3017 	strh.w	r3, [r6, r7, lsl #1]
    if (p_task_config)
    2e2e:	b915      	cbnz	r5, 2e36 <nrfx_gpiote_output_configure+0x5a>
    return NRFX_SUCCESS;
    2e30:	4821      	ldr	r0, [pc, #132]	; (2eb8 <nrfx_gpiote_output_configure+0xdc>)
}
    2e32:	b005      	add	sp, #20
    2e34:	bdf0      	pop	{r4, r5, r6, r7, pc}
    return PIN_FLAG_IS_OUTPUT(m_cb.pin_flags[pin]);
    2e36:	4e1f      	ldr	r6, [pc, #124]	; (2eb4 <nrfx_gpiote_output_configure+0xd8>)
    2e38:	f104 0708 	add.w	r7, r4, #8
    2e3c:	f836 0017 	ldrh.w	r0, [r6, r7, lsl #1]
        if (pin_is_input(pin))
    2e40:	0783      	lsls	r3, r0, #30
    2e42:	d534      	bpl.n	2eae <nrfx_gpiote_output_configure+0xd2>
        uint32_t ch = p_task_config->task_ch;
    2e44:	f895 c000 	ldrb.w	ip, [r5]
    p_reg->CONFIG[idx] = 0;
    2e48:	4661      	mov	r1, ip
    2e4a:	0089      	lsls	r1, r1, #2
        m_cb.pin_flags[pin] &= ~(PIN_FLAG_TE_USED | PIN_TE_ID_MASK);
    2e4c:	f020 0020 	bic.w	r0, r0, #32
    2e50:	f101 4180 	add.w	r1, r1, #1073741824	; 0x40000000
    2e54:	04c0      	lsls	r0, r0, #19
    2e56:	f501 41c0 	add.w	r1, r1, #24576	; 0x6000
    2e5a:	0cc0      	lsrs	r0, r0, #19
    2e5c:	f826 0017 	strh.w	r0, [r6, r7, lsl #1]
    2e60:	2300      	movs	r3, #0
    2e62:	f8c1 3510 	str.w	r3, [r1, #1296]	; 0x510
        if (p_task_config->polarity != NRF_GPIOTE_POLARITY_NONE)
    2e66:	786a      	ldrb	r2, [r5, #1]
    2e68:	2a00      	cmp	r2, #0
    2e6a:	d0e1      	beq.n	2e30 <nrfx_gpiote_output_configure+0x54>
  p_reg->CONFIG[idx] &= ~(GPIOTE_CONFIG_PORT_PIN_Msk |
    2e6c:	f8d1 3510 	ldr.w	r3, [r1, #1296]	; 0x510
            nrf_gpiote_task_configure(NRF_GPIOTE, ch, pin,
    2e70:	78ad      	ldrb	r5, [r5, #2]
    2e72:	f423 1399 	bic.w	r3, r3, #1253376	; 0x132000
    2e76:	f423 53f8 	bic.w	r3, r3, #7936	; 0x1f00
    2e7a:	f8c1 3510 	str.w	r3, [r1, #1296]	; 0x510
  p_reg->CONFIG[idx] |= ((pin << GPIOTE_CONFIG_PSEL_Pos) & GPIOTE_CONFIG_PORT_PIN_Msk) |
    2e7e:	f8d1 e510 	ldr.w	lr, [r1, #1296]	; 0x510
    2e82:	0223      	lsls	r3, r4, #8
    2e84:	f403 537c 	and.w	r3, r3, #16128	; 0x3f00
                        ((polarity << GPIOTE_CONFIG_POLARITY_Pos) & GPIOTE_CONFIG_POLARITY_Msk) |
    2e88:	0412      	lsls	r2, r2, #16
    2e8a:	f402 3240 	and.w	r2, r2, #196608	; 0x30000
  p_reg->CONFIG[idx] |= ((pin << GPIOTE_CONFIG_PSEL_Pos) & GPIOTE_CONFIG_PORT_PIN_Msk) |
    2e8e:	ea43 030e 	orr.w	r3, r3, lr
    2e92:	4313      	orrs	r3, r2
                        ((init_val << GPIOTE_CONFIG_OUTINIT_Pos) & GPIOTE_CONFIG_OUTINIT_Msk);
    2e94:	052a      	lsls	r2, r5, #20
    2e96:	f402 1280 	and.w	r2, r2, #1048576	; 0x100000
            m_cb.pin_flags[pin] |= PIN_FLAG_TE_ID(ch);
    2e9a:	ea40 304c 	orr.w	r0, r0, ip, lsl #13
  p_reg->CONFIG[idx] |= ((pin << GPIOTE_CONFIG_PSEL_Pos) & GPIOTE_CONFIG_PORT_PIN_Msk) |
    2e9e:	4313      	orrs	r3, r2
    2ea0:	f040 0020 	orr.w	r0, r0, #32
    2ea4:	f826 0017 	strh.w	r0, [r6, r7, lsl #1]
    2ea8:	f8c1 3510 	str.w	r3, [r1, #1296]	; 0x510
    2eac:	e7c0      	b.n	2e30 <nrfx_gpiote_output_configure+0x54>
            return NRFX_ERROR_INVALID_PARAM;
    2eae:	4803      	ldr	r0, [pc, #12]	; (2ebc <nrfx_gpiote_output_configure+0xe0>)
    2eb0:	e7bf      	b.n	2e32 <nrfx_gpiote_output_configure+0x56>
    2eb2:	bf00      	nop
    2eb4:	20000058 	.word	0x20000058
    2eb8:	0bad0000 	.word	0x0bad0000
    2ebc:	0bad0004 	.word	0x0bad0004

00002ec0 <nrfx_gpiote_global_callback_set>:
    m_cb.global_handler.handler = handler;
    2ec0:	4b01      	ldr	r3, [pc, #4]	; (2ec8 <nrfx_gpiote_global_callback_set+0x8>)
    m_cb.global_handler.p_context = p_context;
    2ec2:	e9c3 0102 	strd	r0, r1, [r3, #8]
}
    2ec6:	4770      	bx	lr
    2ec8:	20000058 	.word	0x20000058

00002ecc <nrfx_gpiote_channel_get>:
{
    2ecc:	b508      	push	{r3, lr}
    2ece:	4602      	mov	r2, r0
    if (pin_in_use_by_te(pin))
    2ed0:	f7ff fe68 	bl	2ba4 <pin_in_use_by_te>
    2ed4:	b138      	cbz	r0, 2ee6 <nrfx_gpiote_channel_get+0x1a>
        *p_channel = PIN_GET_TE_ID(m_cb.pin_flags[pin]);
    2ed6:	4b05      	ldr	r3, [pc, #20]	; (2eec <nrfx_gpiote_channel_get+0x20>)
        return NRFX_SUCCESS;
    2ed8:	4805      	ldr	r0, [pc, #20]	; (2ef0 <nrfx_gpiote_channel_get+0x24>)
        *p_channel = PIN_GET_TE_ID(m_cb.pin_flags[pin]);
    2eda:	3208      	adds	r2, #8
    2edc:	f833 3012 	ldrh.w	r3, [r3, r2, lsl #1]
    2ee0:	0b5b      	lsrs	r3, r3, #13
    2ee2:	700b      	strb	r3, [r1, #0]
}
    2ee4:	bd08      	pop	{r3, pc}
        return NRFX_ERROR_INVALID_PARAM;
    2ee6:	4803      	ldr	r0, [pc, #12]	; (2ef4 <nrfx_gpiote_channel_get+0x28>)
    2ee8:	e7fc      	b.n	2ee4 <nrfx_gpiote_channel_get+0x18>
    2eea:	bf00      	nop
    2eec:	20000058 	.word	0x20000058
    2ef0:	0bad0000 	.word	0x0bad0000
    2ef4:	0bad0004 	.word	0x0bad0004

00002ef8 <nrfx_gpiote_init>:
{
    2ef8:	b538      	push	{r3, r4, r5, lr}
    if (m_cb.state != NRFX_DRV_STATE_UNINITIALIZED)
    2efa:	4c0f      	ldr	r4, [pc, #60]	; (2f38 <nrfx_gpiote_init+0x40>)
    2efc:	f894 5078 	ldrb.w	r5, [r4, #120]	; 0x78
    2f00:	b9bd      	cbnz	r5, 2f32 <nrfx_gpiote_init+0x3a>
    memset(m_cb.pin_flags, 0, sizeof(m_cb.pin_flags));
    2f02:	2260      	movs	r2, #96	; 0x60
    2f04:	4629      	mov	r1, r5
    2f06:	f104 0010 	add.w	r0, r4, #16
    2f0a:	f001 fcb5 	bl	4878 <memset>
    NRFX_IRQ_ENABLE(nrfx_get_irq_number(NRF_GPIOTE));
    2f0e:	2006      	movs	r0, #6
    2f10:	f7fe f984 	bl	121c <arch_irq_enable>
    *((volatile uint32_t *)nrf_gpiote_event_address_get(p_reg, event)) = 0;
    2f14:	4b09      	ldr	r3, [pc, #36]	; (2f3c <nrfx_gpiote_init+0x44>)
    return err_code;
    2f16:	480a      	ldr	r0, [pc, #40]	; (2f40 <nrfx_gpiote_init+0x48>)
    2f18:	f8c3 517c 	str.w	r5, [r3, #380]	; 0x17c
    2f1c:	f8d3 217c 	ldr.w	r2, [r3, #380]	; 0x17c
    p_reg->INTENSET = mask;
    2f20:	f04f 4200 	mov.w	r2, #2147483648	; 0x80000000
    2f24:	f8c3 2304 	str.w	r2, [r3, #772]	; 0x304
    m_cb.state = NRFX_DRV_STATE_INITIALIZED;
    2f28:	2301      	movs	r3, #1
    2f2a:	f884 3078 	strb.w	r3, [r4, #120]	; 0x78
    m_cb.available_evt_handlers = NRFX_BIT_MASK(NRFX_GPIOTE_CONFIG_NUM_OF_EVT_HANDLERS);
    2f2e:	6763      	str	r3, [r4, #116]	; 0x74
}
    2f30:	bd38      	pop	{r3, r4, r5, pc}
        return err_code;
    2f32:	4804      	ldr	r0, [pc, #16]	; (2f44 <nrfx_gpiote_init+0x4c>)
    2f34:	e7fc      	b.n	2f30 <nrfx_gpiote_init+0x38>
    2f36:	bf00      	nop
    2f38:	20000058 	.word	0x20000058
    2f3c:	40006000 	.word	0x40006000
    2f40:	0bad0000 	.word	0x0bad0000
    2f44:	0bad0005 	.word	0x0bad0005

00002f48 <nrfx_gpiote_is_init>:
    return (m_cb.state != NRFX_DRV_STATE_UNINITIALIZED) ? true : false;
    2f48:	4b03      	ldr	r3, [pc, #12]	; (2f58 <nrfx_gpiote_is_init+0x10>)
    2f4a:	f893 0078 	ldrb.w	r0, [r3, #120]	; 0x78
}
    2f4e:	3800      	subs	r0, #0
    2f50:	bf18      	it	ne
    2f52:	2001      	movne	r0, #1
    2f54:	4770      	bx	lr
    2f56:	bf00      	nop
    2f58:	20000058 	.word	0x20000058

00002f5c <nrfx_gpiote_channel_free>:
{
    2f5c:	4601      	mov	r1, r0
    return nrfx_flag32_free(&m_cb.available_channels_mask, channel);
    2f5e:	4801      	ldr	r0, [pc, #4]	; (2f64 <nrfx_gpiote_channel_free+0x8>)
    2f60:	f7ff bd58 	b.w	2a14 <nrfx_flag32_free>
    2f64:	200000c8 	.word	0x200000c8

00002f68 <nrfx_gpiote_channel_alloc>:
{
    2f68:	4601      	mov	r1, r0
    return nrfx_flag32_alloc(&m_cb.available_channels_mask, p_channel);
    2f6a:	4801      	ldr	r0, [pc, #4]	; (2f70 <nrfx_gpiote_channel_alloc+0x8>)
    2f6c:	f7ff bd2c 	b.w	29c8 <nrfx_flag32_alloc>
    2f70:	200000c8 	.word	0x200000c8

00002f74 <nrfx_gpiote_trigger_enable>:
{
    2f74:	b537      	push	{r0, r1, r2, r4, r5, lr}
    2f76:	4604      	mov	r4, r0
    if (pin_in_use_by_te(pin) && pin_is_input(pin))
    2f78:	f7ff fe14 	bl	2ba4 <pin_in_use_by_te>
    return PIN_FLAG_IS_OUTPUT(m_cb.pin_flags[pin]);
    2f7c:	f104 0208 	add.w	r2, r4, #8
    2f80:	4b1e      	ldr	r3, [pc, #120]	; (2ffc <nrfx_gpiote_trigger_enable+0x88>)
    2f82:	f833 3012 	ldrh.w	r3, [r3, r2, lsl #1]
    if (pin_in_use_by_te(pin) && pin_is_input(pin))
    2f86:	b1e8      	cbz	r0, 2fc4 <nrfx_gpiote_trigger_enable+0x50>
    2f88:	f013 0502 	ands.w	r5, r3, #2
    2f8c:	d11a      	bne.n	2fc4 <nrfx_gpiote_trigger_enable+0x50>
    return PIN_GET_TE_ID(m_cb.pin_flags[pin]);
    2f8e:	0b5b      	lsrs	r3, r3, #13
#endif

NRF_STATIC_INLINE nrf_gpiote_event_t nrf_gpiote_in_event_get(uint8_t index)
{
    NRFX_ASSERT(index < GPIOTE_CH_NUM);
    return (nrf_gpiote_event_t)NRFX_OFFSETOF(NRF_GPIOTE_Type, EVENTS_IN[index]);
    2f90:	009a      	lsls	r2, r3, #2
    return ((uint32_t)p_reg + event);
    2f92:	f102 4080 	add.w	r0, r2, #1073741824	; 0x40000000
    2f96:	f500 40c2 	add.w	r0, r0, #24832	; 0x6100
    2f9a:	f102 4280 	add.w	r2, r2, #1073741824	; 0x40000000
    2f9e:	f502 42c0 	add.w	r2, r2, #24576	; 0x6000
    *((volatile uint32_t *)nrf_gpiote_event_address_get(p_reg, event)) = 0;
    2fa2:	6005      	str	r5, [r0, #0]
    2fa4:	6800      	ldr	r0, [r0, #0]
   p_reg->CONFIG[idx] |= GPIOTE_CONFIG_MODE_Event;
    2fa6:	f8d2 0510 	ldr.w	r0, [r2, #1296]	; 0x510
    2faa:	f040 0001 	orr.w	r0, r0, #1
    2fae:	f8c2 0510 	str.w	r0, [r2, #1296]	; 0x510
        if (int_enable)
    2fb2:	b129      	cbz	r1, 2fc0 <nrfx_gpiote_trigger_enable+0x4c>
            nrf_gpiote_int_enable(NRF_GPIOTE, NRFX_BIT(ch));
    2fb4:	2201      	movs	r2, #1
    2fb6:	fa02 f303 	lsl.w	r3, r2, r3
    p_reg->INTENSET = mask;
    2fba:	4a11      	ldr	r2, [pc, #68]	; (3000 <nrfx_gpiote_trigger_enable+0x8c>)
    2fbc:	f8c2 3304 	str.w	r3, [r2, #772]	; 0x304
}
    2fc0:	b003      	add	sp, #12
    2fc2:	bd30      	pop	{r4, r5, pc}
    nrfx_gpiote_trigger_t trigger = PIN_FLAG_TRIG_MODE_GET(m_cb.pin_flags[pin]);
    2fc4:	f3c3 0382 	ubfx	r3, r3, #2, #3
    if (trigger == NRFX_GPIOTE_TRIGGER_LOW)
    2fc8:	2b04      	cmp	r3, #4
    2fca:	d012      	beq.n	2ff2 <nrfx_gpiote_trigger_enable+0x7e>
    else if (trigger == NRFX_GPIOTE_TRIGGER_HIGH)
    2fcc:	2b05      	cmp	r3, #5
    2fce:	d012      	beq.n	2ff6 <nrfx_gpiote_trigger_enable+0x82>
    NRF_GPIO_Type * reg = nrf_gpio_pin_port_decode(&pin_number);
    2fd0:	a801      	add	r0, sp, #4
    2fd2:	9401      	str	r4, [sp, #4]
    2fd4:	f7ff fdd8 	bl	2b88 <nrf_gpio_pin_port_decode>
    return ((nrf_gpio_port_in_read(reg) >> pin_number) & 1UL);
    2fd8:	9b01      	ldr	r3, [sp, #4]
    return p_reg->IN;
    2fda:	f8d0 1510 	ldr.w	r1, [r0, #1296]	; 0x510
    return ((nrf_gpio_port_in_read(reg) >> pin_number) & 1UL);
    2fde:	40d9      	lsrs	r1, r3
    2fe0:	f001 0101 	and.w	r1, r1, #1
        sense = nrf_gpio_pin_read(pin) ? NRF_GPIO_PIN_SENSE_LOW : NRF_GPIO_PIN_SENSE_HIGH;
    2fe4:	3102      	adds	r1, #2
        nrf_gpio_cfg_sense_set(pin, get_initial_sense(pin));
    2fe6:	4620      	mov	r0, r4
}
    2fe8:	b003      	add	sp, #12
    2fea:	e8bd 4030 	ldmia.w	sp!, {r4, r5, lr}
        nrf_gpio_cfg_sense_set(pin, get_initial_sense(pin));
    2fee:	f001 bf38 	b.w	4e62 <nrf_gpio_cfg_sense_set>
        sense = NRF_GPIO_PIN_SENSE_LOW;
    2ff2:	2103      	movs	r1, #3
    2ff4:	e7f7      	b.n	2fe6 <nrfx_gpiote_trigger_enable+0x72>
        sense = NRF_GPIO_PIN_SENSE_HIGH;
    2ff6:	2102      	movs	r1, #2
    2ff8:	e7f5      	b.n	2fe6 <nrfx_gpiote_trigger_enable+0x72>
    2ffa:	bf00      	nop
    2ffc:	20000058 	.word	0x20000058
    3000:	40006000 	.word	0x40006000

00003004 <nrfx_gpiote_trigger_disable>:
{
    3004:	b508      	push	{r3, lr}
    3006:	4602      	mov	r2, r0
    if (pin_in_use_by_te(pin) && pin_is_input(pin))
    3008:	f7ff fdcc 	bl	2ba4 <pin_in_use_by_te>
    300c:	b1c0      	cbz	r0, 3040 <nrfx_gpiote_trigger_disable+0x3c>
    return PIN_FLAG_IS_OUTPUT(m_cb.pin_flags[pin]);
    300e:	f102 0108 	add.w	r1, r2, #8
    3012:	4b0e      	ldr	r3, [pc, #56]	; (304c <nrfx_gpiote_trigger_disable+0x48>)
    3014:	f833 3011 	ldrh.w	r3, [r3, r1, lsl #1]
    if (pin_in_use_by_te(pin) && pin_is_input(pin))
    3018:	0799      	lsls	r1, r3, #30
    301a:	d411      	bmi.n	3040 <nrfx_gpiote_trigger_disable+0x3c>
    return PIN_GET_TE_ID(m_cb.pin_flags[pin]);
    301c:	0b5b      	lsrs	r3, r3, #13
        nrf_gpiote_int_disable(NRF_GPIOTE, NRFX_BIT(ch));
    301e:	2201      	movs	r2, #1
    3020:	409a      	lsls	r2, r3
    p_reg->INTENCLR = mask;
    3022:	009b      	lsls	r3, r3, #2
    3024:	490a      	ldr	r1, [pc, #40]	; (3050 <nrfx_gpiote_trigger_disable+0x4c>)
    3026:	f103 4380 	add.w	r3, r3, #1073741824	; 0x40000000
    302a:	f503 43c0 	add.w	r3, r3, #24576	; 0x6000
    302e:	f8c1 2308 	str.w	r2, [r1, #776]	; 0x308
   p_reg->CONFIG[idx] &= ~GPIOTE_CONFIG_MODE_Msk;
    3032:	f8d3 2510 	ldr.w	r2, [r3, #1296]	; 0x510
    3036:	f022 0203 	bic.w	r2, r2, #3
    303a:	f8c3 2510 	str.w	r2, [r3, #1296]	; 0x510
}
    303e:	bd08      	pop	{r3, pc}
    3040:	e8bd 4008 	ldmia.w	sp!, {r3, lr}
        nrf_gpio_cfg_sense_set(pin, NRF_GPIO_PIN_NOSENSE);
    3044:	2100      	movs	r1, #0
    3046:	4610      	mov	r0, r2
    3048:	f001 bf0b 	b.w	4e62 <nrf_gpio_cfg_sense_set>
    304c:	20000058 	.word	0x20000058
    3050:	40006000 	.word	0x40006000

00003054 <nrfx_gpiote_pin_uninit>:
    return m_cb.pin_flags[pin] & PIN_FLAG_IN_USE;
    3054:	4b0e      	ldr	r3, [pc, #56]	; (3090 <nrfx_gpiote_pin_uninit+0x3c>)
    3056:	f100 0208 	add.w	r2, r0, #8
{
    305a:	b513      	push	{r0, r1, r4, lr}
    return m_cb.pin_flags[pin] & PIN_FLAG_IN_USE;
    305c:	f833 3012 	ldrh.w	r3, [r3, r2, lsl #1]
    if (!pin_in_use(pin))
    3060:	07db      	lsls	r3, r3, #31
{
    3062:	4604      	mov	r4, r0
    if (!pin_in_use(pin))
    3064:	d511      	bpl.n	308a <nrfx_gpiote_pin_uninit+0x36>
    nrfx_gpiote_trigger_disable(pin);
    3066:	f7ff ffcd 	bl	3004 <nrfx_gpiote_trigger_disable>
    pin_handler_trigger_uninit(pin);
    306a:	4620      	mov	r0, r4
    306c:	f7ff fdec 	bl	2c48 <pin_handler_trigger_uninit>
    NRF_GPIO_Type * reg = nrf_gpio_pin_port_decode(&pin_number);
    3070:	a801      	add	r0, sp, #4
    3072:	9401      	str	r4, [sp, #4]
    3074:	f7ff fd88 	bl	2b88 <nrf_gpio_pin_port_decode>
    reg->PIN_CNF[pin_number] = cnf;
    3078:	9b01      	ldr	r3, [sp, #4]
    307a:	f503 73e0 	add.w	r3, r3, #448	; 0x1c0
    307e:	2202      	movs	r2, #2
    3080:	f840 2023 	str.w	r2, [r0, r3, lsl #2]
    nrf_gpio_cfg(
    3084:	4803      	ldr	r0, [pc, #12]	; (3094 <nrfx_gpiote_pin_uninit+0x40>)
}
    3086:	b002      	add	sp, #8
    3088:	bd10      	pop	{r4, pc}
        return NRFX_ERROR_INVALID_PARAM;
    308a:	4803      	ldr	r0, [pc, #12]	; (3098 <nrfx_gpiote_pin_uninit+0x44>)
    308c:	e7fb      	b.n	3086 <nrfx_gpiote_pin_uninit+0x32>
    308e:	bf00      	nop
    3090:	20000058 	.word	0x20000058
    3094:	0bad0000 	.word	0x0bad0000
    3098:	0bad0004 	.word	0x0bad0004

0000309c <nrfx_gpiote_irq_handler>:
        call_handler(pin, gpiote_polarity_to_trigger(polarity));
    }
}

void nrfx_gpiote_irq_handler(void)
{
    309c:	e92d 4ff0 	stmdb	sp!, {r4, r5, r6, r7, r8, r9, sl, fp, lr}
    30a0:	4b64      	ldr	r3, [pc, #400]	; (3234 <nrfx_gpiote_irq_handler+0x198>)
    return p_reg->INTENSET & mask;
    30a2:	4865      	ldr	r0, [pc, #404]	; (3238 <nrfx_gpiote_irq_handler+0x19c>)
    uint32_t i;
    nrf_gpiote_event_t event = NRF_GPIOTE_EVENT_IN_0;
    uint32_t mask = (uint32_t)NRF_GPIOTE_INT_IN0_MASK;

    /* collect status of all GPIOTE pin events. Processing is done once all are collected and cleared.*/
    for (i = 0; i < GPIOTE_CH_NUM; i++)
    30a4:	4965      	ldr	r1, [pc, #404]	; (323c <nrfx_gpiote_irq_handler+0x1a0>)
    uint32_t status = 0;
    30a6:	2600      	movs	r6, #0
{
    30a8:	b087      	sub	sp, #28
    uint32_t mask = (uint32_t)NRF_GPIOTE_INT_IN0_MASK;
    30aa:	2201      	movs	r2, #1
    *((volatile uint32_t *)nrf_gpiote_event_address_get(p_reg, event)) = 0;
    30ac:	4634      	mov	r4, r6
    return (bool)*(volatile uint32_t *)((uint8_t *)p_reg + (uint32_t)event);
    30ae:	681d      	ldr	r5, [r3, #0]
    {
        if (nrf_gpiote_event_check(NRF_GPIOTE, event) &&
    30b0:	b135      	cbz	r5, 30c0 <nrfx_gpiote_irq_handler+0x24>
    return p_reg->INTENSET & mask;
    30b2:	f8d0 5304 	ldr.w	r5, [r0, #772]	; 0x304
    30b6:	4215      	tst	r5, r2
    *((volatile uint32_t *)nrf_gpiote_event_address_get(p_reg, event)) = 0;
    30b8:	bf1e      	ittt	ne
    30ba:	601c      	strne	r4, [r3, #0]
    30bc:	681d      	ldrne	r5, [r3, #0]
            nrf_gpiote_int_enable_check(NRF_GPIOTE, mask))
        {
            nrf_gpiote_event_clear(NRF_GPIOTE, event);
            status |= mask;
    30be:	4316      	orrne	r6, r2
    for (i = 0; i < GPIOTE_CH_NUM; i++)
    30c0:	3304      	adds	r3, #4
    30c2:	428b      	cmp	r3, r1
        }
        mask <<= 1;
    30c4:	ea4f 0242 	mov.w	r2, r2, lsl #1
    for (i = 0; i < GPIOTE_CH_NUM; i++)
    30c8:	d1f1      	bne.n	30ae <nrfx_gpiote_irq_handler+0x12>
    return (bool)*(volatile uint32_t *)((uint8_t *)p_reg + (uint32_t)event);
    30ca:	f8df 816c 	ldr.w	r8, [pc, #364]	; 3238 <nrfx_gpiote_irq_handler+0x19c>
    30ce:	f8d8 317c 	ldr.w	r3, [r8, #380]	; 0x17c
         * in ascending order. */
        event = (nrf_gpiote_event_t)((uint32_t)event + sizeof(uint32_t));
    }

    /* handle PORT event */
    if (nrf_gpiote_event_check(NRF_GPIOTE, NRF_GPIOTE_EVENT_PORT))
    30d2:	2b00      	cmp	r3, #0
    30d4:	f000 8091 	beq.w	31fa <nrfx_gpiote_irq_handler+0x15e>
        *p_masks = gpio_regs[i]->LATCH;
    30d8:	f04f 43a0 	mov.w	r3, #1342177280	; 0x50000000
    30dc:	f8d3 2520 	ldr.w	r2, [r3, #1312]	; 0x520
    30e0:	9204      	str	r2, [sp, #16]
        gpio_regs[i]->LATCH = *p_masks;
    30e2:	f8c3 2520 	str.w	r2, [r3, #1312]	; 0x520
        *p_masks = gpio_regs[i]->LATCH;
    30e6:	f8d3 2820 	ldr.w	r2, [r3, #2080]	; 0x820
    30ea:	9205      	str	r2, [sp, #20]
        gpio_regs[i]->LATCH = *p_masks;
    30ec:	f8c3 2820 	str.w	r2, [r3, #2080]	; 0x820
        for (uint32_t i = 0; i < GPIO_COUNT; i++)
    30f0:	2700      	movs	r7, #0
            while (latch[i])
    30f2:	f10d 0910 	add.w	r9, sp, #16
    30f6:	017b      	lsls	r3, r7, #5
    30f8:	9300      	str	r3, [sp, #0]
__STATIC_INLINE void nrf_bitmask_bit_clear(uint32_t bit, void * p_mask)
{
    uint8_t * p_mask8 = (uint8_t *)p_mask;
    uint32_t byte_idx = BITMASK_BYTE_GET(bit);
    bit = BITMASK_RELBIT_GET(bit);
    p_mask8[byte_idx] &= ~(1 << bit);
    30fa:	f04f 0a01 	mov.w	sl, #1
    30fe:	e049      	b.n	3194 <nrfx_gpiote_irq_handler+0xf8>
                pin += 32 * i;
    3100:	9b00      	ldr	r3, [sp, #0]
                nrfx_gpiote_trigger_t trigger = PIN_FLAG_TRIG_MODE_GET(m_cb.pin_flags[pin]);
    3102:	4a4f      	ldr	r2, [pc, #316]	; (3240 <nrfx_gpiote_irq_handler+0x1a4>)
                uint32_t pin = NRF_CTZ(latch[i]);
    3104:	fa94 f4a4 	rbit	r4, r4
    3108:	fab4 f484 	clz	r4, r4
                pin += 32 * i;
    310c:	441c      	add	r4, r3
                nrfx_gpiote_trigger_t trigger = PIN_FLAG_TRIG_MODE_GET(m_cb.pin_flags[pin]);
    310e:	f104 0308 	add.w	r3, r4, #8
    uint32_t byte_idx = BITMASK_BYTE_GET(bit);
    3112:	08e0      	lsrs	r0, r4, #3
    3114:	f832 3013 	ldrh.w	r3, [r2, r3, lsl #1]
    3118:	9403      	str	r4, [sp, #12]
    bit = BITMASK_RELBIT_GET(bit);
    311a:	f004 0207 	and.w	r2, r4, #7
    p_mask8[byte_idx] &= ~(1 << bit);
    311e:	fa0a fc02 	lsl.w	ip, sl, r2
    3122:	f819 2000 	ldrb.w	r2, [r9, r0]
    3126:	ea22 020c 	bic.w	r2, r2, ip
    312a:	f809 2000 	strb.w	r2, [r9, r0]
    NRF_GPIO_Type * reg = nrf_gpio_pin_port_decode(&pin_number);
    312e:	a803      	add	r0, sp, #12
    3130:	f3c3 0582 	ubfx	r5, r3, #2, #3
    3134:	0899      	lsrs	r1, r3, #2
    3136:	f7ff fd27 	bl	2b88 <nrf_gpio_pin_port_decode>
    return (nrf_gpio_pin_sense_t)((reg->PIN_CNF[pin_number] &
    313a:	9a03      	ldr	r2, [sp, #12]
    313c:	f502 72e0 	add.w	r2, r2, #448	; 0x1c0
    if (is_level(trigger))
    3140:	074b      	lsls	r3, r1, #29
    3142:	f850 2022 	ldr.w	r2, [r0, r2, lsl #2]
                nrfx_gpiote_trigger_t trigger = PIN_FLAG_TRIG_MODE_GET(m_cb.pin_flags[pin]);
    3146:	46ab      	mov	fp, r5
                                   GPIO_PIN_CNF_SENSE_Msk) >> GPIO_PIN_CNF_SENSE_Pos);
    3148:	f3c2 4201 	ubfx	r2, r2, #16, #2
    if (is_level(trigger))
    314c:	d529      	bpl.n	31a2 <nrfx_gpiote_irq_handler+0x106>
        call_handler(pin, trigger);
    314e:	4620      	mov	r0, r4
    3150:	4659      	mov	r1, fp
    return (nrf_gpio_pin_sense_t)((reg->PIN_CNF[pin_number] &
    3152:	b2d5      	uxtb	r5, r2
    3154:	f7ff fd30 	bl	2bb8 <call_handler>
    NRF_GPIO_Type * reg = nrf_gpio_pin_port_decode(&pin_number);
    3158:	a803      	add	r0, sp, #12
    315a:	9403      	str	r4, [sp, #12]
    315c:	f7ff fd14 	bl	2b88 <nrf_gpio_pin_port_decode>
    return (nrf_gpio_pin_sense_t)((reg->PIN_CNF[pin_number] &
    3160:	9b03      	ldr	r3, [sp, #12]
    3162:	f503 73e0 	add.w	r3, r3, #448	; 0x1c0
    3166:	f850 3023 	ldr.w	r3, [r0, r3, lsl #2]
        if (nrf_gpio_pin_sense_get(pin) == sense)
    316a:	f3c3 4301 	ubfx	r3, r3, #16, #2
    316e:	429d      	cmp	r5, r3
    3170:	d107      	bne.n	3182 <nrfx_gpiote_irq_handler+0xe6>
            nrf_gpio_cfg_sense_set(pin, NRF_GPIO_PIN_NOSENSE);
    3172:	2100      	movs	r1, #0
    3174:	4620      	mov	r0, r4
    3176:	f001 fe74 	bl	4e62 <nrf_gpio_cfg_sense_set>
            nrf_gpio_cfg_sense_set(pin, sense);
    317a:	4629      	mov	r1, r5
    317c:	4620      	mov	r0, r4
    317e:	f001 fe70 	bl	4e62 <nrf_gpio_cfg_sense_set>
    NRF_GPIO_Type * reg = nrf_gpio_pin_port_decode(&pin_number);
    3182:	a803      	add	r0, sp, #12
    3184:	9403      	str	r4, [sp, #12]
    3186:	f7ff fcff 	bl	2b88 <nrf_gpio_pin_port_decode>
    reg->LATCH = (1 << pin_number);
    318a:	9b03      	ldr	r3, [sp, #12]
    318c:	fa0a f303 	lsl.w	r3, sl, r3
    3190:	f8c0 3520 	str.w	r3, [r0, #1312]	; 0x520
            while (latch[i])
    3194:	f859 4027 	ldr.w	r4, [r9, r7, lsl #2]
    3198:	2c00      	cmp	r4, #0
    319a:	d1b1      	bne.n	3100 <nrfx_gpiote_irq_handler+0x64>
        for (uint32_t i = 0; i < GPIO_COUNT; i++)
    319c:	b9cf      	cbnz	r7, 31d2 <nrfx_gpiote_irq_handler+0x136>
    319e:	2701      	movs	r7, #1
    31a0:	e7a9      	b.n	30f6 <nrfx_gpiote_irq_handler+0x5a>
                NRF_GPIO_PIN_SENSE_LOW : NRF_GPIO_PIN_SENSE_HIGH;
    31a2:	2a02      	cmp	r2, #2
        nrf_gpio_cfg_sense_set(pin, next_sense);
    31a4:	bf0c      	ite	eq
    31a6:	2103      	moveq	r1, #3
    31a8:	2102      	movne	r1, #2
    31aa:	4620      	mov	r0, r4
                NRF_GPIO_PIN_SENSE_LOW : NRF_GPIO_PIN_SENSE_HIGH;
    31ac:	9201      	str	r2, [sp, #4]
        nrf_gpio_cfg_sense_set(pin, next_sense);
    31ae:	f001 fe58 	bl	4e62 <nrf_gpio_cfg_sense_set>
        if ((trigger == NRFX_GPIOTE_TRIGGER_TOGGLE) ||
    31b2:	2d03      	cmp	r5, #3
    31b4:	d004      	beq.n	31c0 <nrfx_gpiote_irq_handler+0x124>
    31b6:	9a01      	ldr	r2, [sp, #4]
    31b8:	2a02      	cmp	r2, #2
    31ba:	d106      	bne.n	31ca <nrfx_gpiote_irq_handler+0x12e>
            (sense == NRF_GPIO_PIN_SENSE_HIGH && trigger == NRFX_GPIOTE_TRIGGER_LOTOHI) ||
    31bc:	2d01      	cmp	r5, #1
            (sense == NRF_GPIO_PIN_SENSE_LOW && trigger == NRFX_GPIOTE_TRIGGER_HITOLO))
    31be:	d1e0      	bne.n	3182 <nrfx_gpiote_irq_handler+0xe6>
            call_handler(pin, trigger);
    31c0:	4659      	mov	r1, fp
    31c2:	4620      	mov	r0, r4
    31c4:	f7ff fcf8 	bl	2bb8 <call_handler>
    31c8:	e7db      	b.n	3182 <nrfx_gpiote_irq_handler+0xe6>
            (sense == NRF_GPIO_PIN_SENSE_HIGH && trigger == NRFX_GPIOTE_TRIGGER_LOTOHI) ||
    31ca:	2a03      	cmp	r2, #3
    31cc:	d1d9      	bne.n	3182 <nrfx_gpiote_irq_handler+0xe6>
            (sense == NRF_GPIO_PIN_SENSE_LOW && trigger == NRFX_GPIOTE_TRIGGER_HITOLO))
    31ce:	2d02      	cmp	r5, #2
    31d0:	e7f5      	b.n	31be <nrfx_gpiote_irq_handler+0x122>
    *((volatile uint32_t *)nrf_gpiote_event_address_get(p_reg, event)) = 0;
    31d2:	f8c8 417c 	str.w	r4, [r8, #380]	; 0x17c
    31d6:	f8d8 317c 	ldr.w	r3, [r8, #380]	; 0x17c
        *p_masks = gpio_regs[i]->LATCH;
    31da:	491a      	ldr	r1, [pc, #104]	; (3244 <nrfx_gpiote_irq_handler+0x1a8>)
    31dc:	f04f 43a0 	mov.w	r3, #1342177280	; 0x50000000
    31e0:	f8d3 2520 	ldr.w	r2, [r3, #1312]	; 0x520
    31e4:	9204      	str	r2, [sp, #16]
        gpio_regs[i]->LATCH = *p_masks;
    31e6:	f8c3 2520 	str.w	r2, [r3, #1312]	; 0x520
        *p_masks = gpio_regs[i]->LATCH;
    31ea:	f8d1 3520 	ldr.w	r3, [r1, #1312]	; 0x520
    31ee:	9305      	str	r3, [sp, #20]
        gpio_regs[i]->LATCH = *p_masks;
    31f0:	f8c1 3520 	str.w	r3, [r1, #1312]	; 0x520
        if (latch[port_idx])
    31f4:	4313      	orrs	r3, r2
    31f6:	f47f af7b 	bne.w	30f0 <nrfx_gpiote_irq_handler+0x54>
        mask &= ~NRFX_BIT(ch);
    31fa:	2401      	movs	r4, #1
    while (mask)
    31fc:	b916      	cbnz	r6, 3204 <nrfx_gpiote_irq_handler+0x168>
        port_event_handle();
    }

    /* Process pin events. */
    gpiote_evt_handle(status);
}
    31fe:	b007      	add	sp, #28
    3200:	e8bd 8ff0 	ldmia.w	sp!, {r4, r5, r6, r7, r8, r9, sl, fp, pc}
        uint32_t ch = NRF_CTZ(mask);
    3204:	fa96 f3a6 	rbit	r3, r6
    3208:	fab3 f383 	clz	r3, r3
        mask &= ~NRFX_BIT(ch);
    320c:	fa04 f203 	lsl.w	r2, r4, r3
    3210:	009b      	lsls	r3, r3, #2
    3212:	f103 4380 	add.w	r3, r3, #1073741824	; 0x40000000
    3216:	f503 43c0 	add.w	r3, r3, #24576	; 0x6000
    321a:	ea26 0602 	bic.w	r6, r6, r2
    return ((p_reg->CONFIG[idx] & GPIOTE_CONFIG_PORT_PIN_Msk) >> GPIOTE_CONFIG_PSEL_Pos);
    321e:	f8d3 0510 	ldr.w	r0, [r3, #1296]	; 0x510
    return (nrf_gpiote_polarity_t)((p_reg->CONFIG[idx] & GPIOTE_CONFIG_POLARITY_Msk) >>
    3222:	f8d3 1510 	ldr.w	r1, [r3, #1296]	; 0x510
        call_handler(pin, gpiote_polarity_to_trigger(polarity));
    3226:	f3c0 2005 	ubfx	r0, r0, #8, #6
    322a:	f3c1 4101 	ubfx	r1, r1, #16, #2
    322e:	f7ff fcc3 	bl	2bb8 <call_handler>
    3232:	e7e3      	b.n	31fc <nrfx_gpiote_irq_handler+0x160>
    3234:	40006100 	.word	0x40006100
    3238:	40006000 	.word	0x40006000
    323c:	40006120 	.word	0x40006120
    3240:	20000058 	.word	0x20000058
    3244:	50000300 	.word	0x50000300

00003248 <nrfx_ppi_channel_alloc>:
    nrfx_flag32_init(&m_groups_allocated, NRFX_PPI_ALL_APP_GROUPS_MASK);
}


nrfx_err_t nrfx_ppi_channel_alloc(nrf_ppi_channel_t * p_channel)
{
    3248:	4601      	mov	r1, r0
    return nrfx_flag32_alloc(&m_channels_allocated, (uint8_t *)p_channel);
    324a:	4801      	ldr	r0, [pc, #4]	; (3250 <nrfx_ppi_channel_alloc+0x8>)
    324c:	f7ff bbbc 	b.w	29c8 <nrfx_flag32_alloc>
    3250:	200000d4 	.word	0x200000d4

00003254 <_DoInit>:
                      _DoInit();                                                                     \
                    }                                                                                \
                  } while (0);                                                                       \
                }

static void _DoInit(void) {
    3254:	b510      	push	{r4, lr}
  volatile SEGGER_RTT_CB* p;   // Volatile to make sure that compiler cannot change the order of accesses to the control block
  //
  // Initialize control block
  //
  p                     = (volatile SEGGER_RTT_CB*)((char*)&_SEGGER_RTT + SEGGER_RTT_UNCACHED_OFF);  // Access control block uncached so that nothing in the cache ever becomes dirty and all changes are visible in HW directly
  p->MaxNumUpBuffers    = SEGGER_RTT_MAX_NUM_UP_BUFFERS;
    3256:	4c14      	ldr	r4, [pc, #80]	; (32a8 <_DoInit+0x54>)
  p->MaxNumDownBuffers  = SEGGER_RTT_MAX_NUM_DOWN_BUFFERS;
  //
  // Initialize up buffer 0
  //
  p->aUp[0].sName         = "Terminal";
    3258:	4a14      	ldr	r2, [pc, #80]	; (32ac <_DoInit+0x58>)
  //
  // Finish initialization of the control block.
  // Copy Id string in three steps to make sure "SEGGER RTT" is not found
  // in initializer memory (usually flash) by J-Link
  //
  STRCPY((char*)&p->acID[7], "RTT");
    325a:	4915      	ldr	r1, [pc, #84]	; (32b0 <_DoInit+0x5c>)
  p->MaxNumUpBuffers    = SEGGER_RTT_MAX_NUM_UP_BUFFERS;
    325c:	2303      	movs	r3, #3
    325e:	6123      	str	r3, [r4, #16]
  p->MaxNumDownBuffers  = SEGGER_RTT_MAX_NUM_DOWN_BUFFERS;
    3260:	6163      	str	r3, [r4, #20]
  p->aUp[0].pBuffer       = _acUpBuffer;
    3262:	4b14      	ldr	r3, [pc, #80]	; (32b4 <_DoInit+0x60>)
  p->aUp[0].sName         = "Terminal";
    3264:	61a2      	str	r2, [r4, #24]
  p->aUp[0].pBuffer       = _acUpBuffer;
    3266:	61e3      	str	r3, [r4, #28]
  p->aUp[0].SizeOfBuffer  = BUFFER_SIZE_UP;
    3268:	f44f 6380 	mov.w	r3, #1024	; 0x400
    326c:	6223      	str	r3, [r4, #32]
  p->aUp[0].RdOff         = 0u;
    326e:	2300      	movs	r3, #0
    3270:	62a3      	str	r3, [r4, #40]	; 0x28
  p->aUp[0].WrOff         = 0u;
    3272:	6263      	str	r3, [r4, #36]	; 0x24
  p->aUp[0].Flags         = SEGGER_RTT_MODE_DEFAULT;
    3274:	62e3      	str	r3, [r4, #44]	; 0x2c
  p->aDown[0].sName         = "Terminal";
    3276:	6622      	str	r2, [r4, #96]	; 0x60
  p->aDown[0].pBuffer       = _acDownBuffer;
    3278:	4a0f      	ldr	r2, [pc, #60]	; (32b8 <_DoInit+0x64>)
    327a:	6662      	str	r2, [r4, #100]	; 0x64
  STRCPY((char*)&p->acID[7], "RTT");
    327c:	1de0      	adds	r0, r4, #7
  p->aDown[0].SizeOfBuffer  = BUFFER_SIZE_DOWN;
    327e:	2210      	movs	r2, #16
    3280:	66a2      	str	r2, [r4, #104]	; 0x68
  p->aDown[0].RdOff         = 0u;
    3282:	6723      	str	r3, [r4, #112]	; 0x70
  p->aDown[0].WrOff         = 0u;
    3284:	66e3      	str	r3, [r4, #108]	; 0x6c
  p->aDown[0].Flags         = SEGGER_RTT_MODE_DEFAULT;
    3286:	6763      	str	r3, [r4, #116]	; 0x74
  STRCPY((char*)&p->acID[7], "RTT");
    3288:	f001 fad1 	bl	482e <strcpy>
  RTT__DMB();                       // Force order of memory accessed inside core for cores that allow to change the order
    328c:	f3bf 8f5f 	dmb	sy
  STRCPY((char*)&p->acID[0], "SEGGER");
    3290:	490a      	ldr	r1, [pc, #40]	; (32bc <_DoInit+0x68>)
    3292:	4620      	mov	r0, r4
    3294:	f001 facb 	bl	482e <strcpy>
  RTT__DMB();                       // Force order of memory accessed inside core for cores that allow to change the order
    3298:	f3bf 8f5f 	dmb	sy
  p->acID[6] = ' ';
    329c:	2320      	movs	r3, #32
    329e:	71a3      	strb	r3, [r4, #6]
  RTT__DMB();                       // Force order of memory accessed inside core for cores that allow to change the order
    32a0:	f3bf 8f5f 	dmb	sy
}
    32a4:	bd10      	pop	{r4, pc}
    32a6:	bf00      	nop
    32a8:	200008c8 	.word	0x200008c8
    32ac:	000056d6 	.word	0x000056d6
    32b0:	000056df 	.word	0x000056df
    32b4:	20000b91 	.word	0x20000b91
    32b8:	20000b81 	.word	0x20000b81
    32bc:	000056e3 	.word	0x000056e3

000032c0 <z_sys_init_run_level>:
		/* End marker */
		__init_end,
	};
	const struct init_entry *entry;

	for (entry = levels[level]; entry < levels[level+1]; entry++) {
    32c0:	4b0e      	ldr	r3, [pc, #56]	; (32fc <z_sys_init_run_level+0x3c>)
{
    32c2:	b570      	push	{r4, r5, r6, lr}
	for (entry = levels[level]; entry < levels[level+1]; entry++) {
    32c4:	f853 4020 	ldr.w	r4, [r3, r0, lsl #2]
    32c8:	3001      	adds	r0, #1
    32ca:	f853 6020 	ldr.w	r6, [r3, r0, lsl #2]
    32ce:	42a6      	cmp	r6, r4
    32d0:	d800      	bhi.n	32d4 <z_sys_init_run_level+0x14>
				dev->state->init_res = rc;
			}
			dev->state->initialized = true;
		}
	}
}
    32d2:	bd70      	pop	{r4, r5, r6, pc}
		int rc = entry->init(dev);
    32d4:	e9d4 3500 	ldrd	r3, r5, [r4]
    32d8:	4628      	mov	r0, r5
    32da:	4798      	blx	r3
		if (dev != NULL) {
    32dc:	b165      	cbz	r5, 32f8 <z_sys_init_run_level+0x38>
				dev->state->init_res = rc;
    32de:	68eb      	ldr	r3, [r5, #12]
			if (rc != 0) {
    32e0:	b130      	cbz	r0, 32f0 <z_sys_init_run_level+0x30>
				if (rc < 0) {
    32e2:	2800      	cmp	r0, #0
    32e4:	bfb8      	it	lt
    32e6:	4240      	neglt	r0, r0
				dev->state->init_res = rc;
    32e8:	28ff      	cmp	r0, #255	; 0xff
    32ea:	bfa8      	it	ge
    32ec:	20ff      	movge	r0, #255	; 0xff
    32ee:	7018      	strb	r0, [r3, #0]
			dev->state->initialized = true;
    32f0:	785a      	ldrb	r2, [r3, #1]
    32f2:	f042 0201 	orr.w	r2, r2, #1
    32f6:	705a      	strb	r2, [r3, #1]
	for (entry = levels[level]; entry < levels[level+1]; entry++) {
    32f8:	3408      	adds	r4, #8
    32fa:	e7e8      	b.n	32ce <z_sys_init_run_level+0xe>
    32fc:	0000554c 	.word	0x0000554c

00003300 <bg_thread_main>:
 * This routine completes kernel initialization by invoking the remaining
 * init functions, then invokes application's main() routine.
 */
__boot_func
static void bg_thread_main(void *unused1, void *unused2, void *unused3)
{
    3300:	b508      	push	{r3, lr}
	 * may perform memory management tasks (except for z_phys_map() which
	 * is allowed at any time)
	 */
	z_mem_manage_init();
#endif /* CONFIG_MMU */
	z_sys_post_kernel = true;
    3302:	4b0a      	ldr	r3, [pc, #40]	; (332c <bg_thread_main+0x2c>)
    3304:	2201      	movs	r2, #1

	z_sys_init_run_level(_SYS_INIT_LEVEL_POST_KERNEL);
    3306:	2002      	movs	r0, #2
	z_sys_post_kernel = true;
    3308:	701a      	strb	r2, [r3, #0]
	z_sys_init_run_level(_SYS_INIT_LEVEL_POST_KERNEL);
    330a:	f7ff ffd9 	bl	32c0 <z_sys_init_run_level>
#if CONFIG_STACK_POINTER_RANDOM
	z_stack_adjust_initialized = 1;
#endif
	boot_banner();
    330e:	f000 ff57 	bl	41c0 <boot_banner>
	void z_cpp_init_static(void);
	z_cpp_init_static();
#endif

	/* Final init level before app starts */
	z_sys_init_run_level(_SYS_INIT_LEVEL_APPLICATION);
    3312:	2003      	movs	r0, #3
    3314:	f7ff ffd4 	bl	32c0 <z_sys_init_run_level>

	z_init_static_threads();
    3318:	f000 f93c 	bl	3594 <z_init_static_threads>
	z_mem_manage_boot_finish();
#endif /* CONFIG_MMU */

	extern void main(void);

	main();
    331c:	f7fd f85e 	bl	3dc <main>

	/* Mark nonessential since main() has no more work to do */
	z_main_thread.base.user_options &= ~K_ESSENTIAL;
    3320:	4a03      	ldr	r2, [pc, #12]	; (3330 <bg_thread_main+0x30>)
    3322:	7b13      	ldrb	r3, [r2, #12]
    3324:	f023 0301 	bic.w	r3, r3, #1
    3328:	7313      	strb	r3, [r2, #12]

#ifdef CONFIG_COVERAGE_DUMP
	/* Dump coverage data once the main() has exited. */
	gcov_coverage_dump();
#endif
} /* LCOV_EXCL_LINE ... because we just dumped final coverage data */
    332a:	bd08      	pop	{r3, pc}
    332c:	20000f91 	.word	0x20000f91
    3330:	20000248 	.word	0x20000248

00003334 <z_bss_zero>:
{
    3334:	b508      	push	{r3, lr}
	z_early_memset(__bss_start, 0, __bss_end - __bss_start);
    3336:	4803      	ldr	r0, [pc, #12]	; (3344 <z_bss_zero+0x10>)
    3338:	4a03      	ldr	r2, [pc, #12]	; (3348 <z_bss_zero+0x14>)
    333a:	2100      	movs	r1, #0
    333c:	1a12      	subs	r2, r2, r0
    333e:	f001 fdcc 	bl	4eda <z_early_memset>
}
    3342:	bd08      	pop	{r3, pc}
    3344:	200001a8 	.word	0x200001a8
    3348:	20000f94 	.word	0x20000f94

0000334c <z_init_cpu>:
	thread->base.is_idle = 1U;
#endif
}

void z_init_cpu(int id)
{
    334c:	b570      	push	{r4, r5, r6, lr}
	z_setup_new_thread(thread, stack,
    334e:	2300      	movs	r3, #0
{
    3350:	b086      	sub	sp, #24
	z_setup_new_thread(thread, stack,
    3352:	2201      	movs	r2, #1
    3354:	e9cd 2304 	strd	r2, r3, [sp, #16]
	struct k_thread *thread = &z_idle_threads[i];
    3358:	4e13      	ldr	r6, [pc, #76]	; (33a8 <z_init_cpu+0x5c>)
			  CONFIG_IDLE_STACK_SIZE, idle, &_kernel.cpus[i],
    335a:	4d14      	ldr	r5, [pc, #80]	; (33ac <z_init_cpu+0x60>)
	z_setup_new_thread(thread, stack,
    335c:	9301      	str	r3, [sp, #4]
    335e:	220f      	movs	r2, #15
    3360:	e9cd 3202 	strd	r3, r2, [sp, #8]
    3364:	4912      	ldr	r1, [pc, #72]	; (33b0 <z_init_cpu+0x64>)
			  CONFIG_IDLE_STACK_SIZE, idle, &_kernel.cpus[i],
    3366:	2318      	movs	r3, #24
    3368:	fb03 5500 	mla	r5, r3, r0, r5
	struct k_thread *thread = &z_idle_threads[i];
    336c:	eb06 16c0 	add.w	r6, r6, r0, lsl #7
{
    3370:	4604      	mov	r4, r0
	z_setup_new_thread(thread, stack,
    3372:	f44f 70b0 	mov.w	r0, #352	; 0x160
    3376:	fb00 1104 	mla	r1, r0, r4, r1
    337a:	4b0e      	ldr	r3, [pc, #56]	; (33b4 <z_init_cpu+0x68>)
    337c:	9500      	str	r5, [sp, #0]
    337e:	f44f 72a0 	mov.w	r2, #320	; 0x140
    3382:	4630      	mov	r0, r6
    3384:	f000 f8d4 	bl	3530 <z_setup_new_thread>
	SYS_PORT_TRACING_FUNC(k_thread, sched_resume, thread);
}

static inline void z_mark_thread_as_started(struct k_thread *thread)
{
	thread->base.thread_state &= ~_THREAD_PRESTART;
    3388:	7b73      	ldrb	r3, [r6, #13]
	init_idle_thread(id);
	_kernel.cpus[id].idle_thread = &z_idle_threads[id];
	_kernel.cpus[id].id = id;
	_kernel.cpus[id].irq_stack =
		(Z_KERNEL_STACK_BUFFER(z_interrupt_stacks[id]) +
    338a:	480b      	ldr	r0, [pc, #44]	; (33b8 <z_init_cpu+0x6c>)
	_kernel.cpus[id].id = id;
    338c:	752c      	strb	r4, [r5, #20]
    338e:	f023 0304 	bic.w	r3, r3, #4
    3392:	7373      	strb	r3, [r6, #13]
		(Z_KERNEL_STACK_BUFFER(z_interrupt_stacks[id]) +
    3394:	f44f 6302 	mov.w	r3, #2080	; 0x820
    3398:	fb03 0404 	mla	r4, r3, r4, r0
    339c:	441c      	add	r4, r3
	_kernel.cpus[id].idle_thread = &z_idle_threads[id];
    339e:	60ee      	str	r6, [r5, #12]
	_kernel.cpus[id].irq_stack =
    33a0:	606c      	str	r4, [r5, #4]
		 K_KERNEL_STACK_SIZEOF(z_interrupt_stacks[id]));
#ifdef CONFIG_SCHED_THREAD_USAGE_ALL
	_kernel.cpus[id].usage.track_usage =
		CONFIG_SCHED_THREAD_USAGE_AUTO_ENABLE;
#endif
}
    33a2:	b006      	add	sp, #24
    33a4:	bd70      	pop	{r4, r5, r6, pc}
    33a6:	bf00      	nop
    33a8:	200001c8 	.word	0x200001c8
    33ac:	20000970 	.word	0x20000970
    33b0:	200013c0 	.word	0x200013c0
    33b4:	0000364d 	.word	0x0000364d
    33b8:	20001520 	.word	0x20001520

000033bc <z_cstart>:
 *
 * @return Does not return
 */
__boot_func
FUNC_NORETURN void z_cstart(void)
{
    33bc:	b580      	push	{r7, lr}
 * pointer) register, and switched to automatically when taking an exception.
 *
 */
static ALWAYS_INLINE void z_arm_interrupt_stack_setup(void)
{
	uint32_t msp =
    33be:	4b2d      	ldr	r3, [pc, #180]	; (3474 <z_cstart+0xb8>)
    33c0:	b0a6      	sub	sp, #152	; 0x98
  __ASM volatile ("MSR msp, %0" : : "r" (topOfMainStack) : );
    33c2:	f383 8808 	msr	MSP, r3
	 * for Cortex-M3 and Cortex-M4 (ARMv7-M) MCUs. For the rest
	 * of ARM Cortex-M processors this setting is enforced by
	 * default and it is not configurable.
	 */
#if defined(CONFIG_CPU_CORTEX_M3) || defined(CONFIG_CPU_CORTEX_M4)
	SCB->CCR |= SCB_CCR_STKALIGN_Msk;
    33c6:	4d2c      	ldr	r5, [pc, #176]	; (3478 <z_cstart+0xbc>)
	k_thread_system_pool_assign(dummy_thread);
#else
	dummy_thread->resource_pool = NULL;
#endif

	_current_cpu->current = dummy_thread;
    33c8:	4e2c      	ldr	r6, [pc, #176]	; (347c <z_cstart+0xc0>)
    33ca:	696b      	ldr	r3, [r5, #20]
	stack_ptr = z_setup_new_thread(&z_main_thread, z_main_stack,
    33cc:	4f2c      	ldr	r7, [pc, #176]	; (3480 <z_cstart+0xc4>)
    33ce:	f443 7300 	orr.w	r3, r3, #512	; 0x200
    SCB->SHP[(((uint32_t)IRQn) & 0xFUL)-4UL] = (uint8_t)((priority << (8U - __NVIC_PRIO_BITS)) & (uint32_t)0xFFUL);
    33d2:	2400      	movs	r4, #0
    33d4:	616b      	str	r3, [r5, #20]
    33d6:	23e0      	movs	r3, #224	; 0xe0
    33d8:	f885 3022 	strb.w	r3, [r5, #34]	; 0x22
    33dc:	77ec      	strb	r4, [r5, #31]
    33de:	762c      	strb	r4, [r5, #24]
    33e0:	766c      	strb	r4, [r5, #25]
    33e2:	76ac      	strb	r4, [r5, #26]
    33e4:	f885 4020 	strb.w	r4, [r5, #32]
#if defined(CONFIG_ARM_SECURE_FIRMWARE)
	NVIC_SetPriority(SecureFault_IRQn, _EXC_FAULT_PRIO);
#endif /* CONFIG_ARM_SECURE_FIRMWARE */

	/* Enable Usage, Mem, & Bus Faults */
	SCB->SHCSR |= SCB_SHCSR_USGFAULTENA_Msk | SCB_SHCSR_MEMFAULTENA_Msk |
    33e8:	6a6b      	ldr	r3, [r5, #36]	; 0x24
    33ea:	f443 23e0 	orr.w	r3, r3, #458752	; 0x70000
    33ee:	626b      	str	r3, [r5, #36]	; 0x24
    33f0:	f885 4023 	strb.w	r4, [r5, #35]	; 0x23

static ALWAYS_INLINE void arch_kernel_init(void)
{
	z_arm_interrupt_stack_setup();
	z_arm_exc_setup();
	z_arm_fault_init();
    33f4:	f7fe f920 	bl	1638 <z_arm_fault_init>
	z_arm_cpu_idle_init();
    33f8:	f7fd fef2 	bl	11e0 <z_arm_cpu_idle_init>
static ALWAYS_INLINE void z_arm_clear_faults(void)
{
#if defined(CONFIG_ARMV6_M_ARMV8_M_BASELINE)
#elif defined(CONFIG_ARMV7_M_ARMV8_M_MAINLINE)
	/* Reset all faults */
	SCB->CFSR = SCB_CFSR_USGFAULTSR_Msk |
    33fc:	f04f 33ff 	mov.w	r3, #4294967295	; 0xffffffff
    3400:	62ab      	str	r3, [r5, #40]	; 0x28
		    SCB_CFSR_MEMFAULTSR_Msk |
		    SCB_CFSR_BUSFAULTSR_Msk;

	/* Clear all Hard Faults - HFSR is write-one-to-clear */
	SCB->HFSR = 0xffffffff;
    3402:	62eb      	str	r3, [r5, #44]	; 0x2c
	z_arm_clear_faults();
#if defined(CONFIG_ARM_MPU)
	z_arm_mpu_init();
    3404:	f7fe fa50 	bl	18a8 <z_arm_mpu_init>
	 * to set up access permissions for fixed memory sections, such
	 * as Application Memory or No-Cacheable SRAM area.
	 *
	 * This function is invoked once, upon system initialization.
	 */
	z_arm_configure_static_mpu_regions();
    3408:	f7fe f9b8 	bl	177c <z_arm_configure_static_mpu_regions>
	dummy_thread->base.user_options = K_ESSENTIAL;
    340c:	f240 1301 	movw	r3, #257	; 0x101
    3410:	f8ad 3024 	strh.w	r3, [sp, #36]	; 0x24
	_current_cpu->current = dummy_thread;
    3414:	ab06      	add	r3, sp, #24
    3416:	60b3      	str	r3, [r6, #8]
	dummy_thread->stack_info.size = 0U;
    3418:	e9cd 441f 	strd	r4, r4, [sp, #124]	; 0x7c
	dummy_thread->resource_pool = NULL;
    341c:	9422      	str	r4, [sp, #136]	; 0x88
	struct k_thread dummy_thread;

	z_dummy_thread_init(&dummy_thread);
#endif
	/* do any necessary initialization of static devices */
	z_device_state_init();
    341e:	f001 fd36 	bl	4e8e <z_device_state_init>

	/* perform basic hardware initialization */
	z_sys_init_run_level(_SYS_INIT_LEVEL_PRE_KERNEL_1);
    3422:	4620      	mov	r0, r4
    3424:	f7ff ff4c 	bl	32c0 <z_sys_init_run_level>
	z_sys_init_run_level(_SYS_INIT_LEVEL_PRE_KERNEL_2);
    3428:	2001      	movs	r0, #1
	_kernel.ready_q.cache = &z_main_thread;
    342a:	4d16      	ldr	r5, [pc, #88]	; (3484 <z_cstart+0xc8>)
	z_sys_init_run_level(_SYS_INIT_LEVEL_PRE_KERNEL_2);
    342c:	f7ff ff48 	bl	32c0 <z_sys_init_run_level>
	z_sched_init();
    3430:	f000 fc6e 	bl	3d10 <z_sched_init>
	stack_ptr = z_setup_new_thread(&z_main_thread, z_main_stack,
    3434:	4b14      	ldr	r3, [pc, #80]	; (3488 <z_cstart+0xcc>)
	_kernel.ready_q.cache = &z_main_thread;
    3436:	61f5      	str	r5, [r6, #28]
	stack_ptr = z_setup_new_thread(&z_main_thread, z_main_stack,
    3438:	9305      	str	r3, [sp, #20]
    343a:	2301      	movs	r3, #1
    343c:	4913      	ldr	r1, [pc, #76]	; (348c <z_cstart+0xd0>)
    343e:	9400      	str	r4, [sp, #0]
    3440:	e9cd 4303 	strd	r4, r3, [sp, #12]
    3444:	f44f 6280 	mov.w	r2, #1024	; 0x400
    3448:	463b      	mov	r3, r7
    344a:	e9cd 4401 	strd	r4, r4, [sp, #4]
    344e:	4628      	mov	r0, r5
    3450:	f000 f86e 	bl	3530 <z_setup_new_thread>
    3454:	7b6a      	ldrb	r2, [r5, #13]
    3456:	4606      	mov	r6, r0
    3458:	f022 0204 	bic.w	r2, r2, #4
	z_ready_thread(&z_main_thread);
    345c:	4628      	mov	r0, r5
    345e:	736a      	strb	r2, [r5, #13]
    3460:	f001 fdcd 	bl	4ffe <z_ready_thread>
	z_init_cpu(0);
    3464:	4620      	mov	r0, r4
    3466:	f7ff ff71 	bl	334c <z_init_cpu>
	arch_switch_to_main_thread(&z_main_thread, stack_ptr, bg_thread_main);
    346a:	463a      	mov	r2, r7
    346c:	4631      	mov	r1, r6
    346e:	4628      	mov	r0, r5
    3470:	f7fd ffb0 	bl	13d4 <arch_switch_to_main_thread>
	CODE_UNREACHABLE; /* LCOV_EXCL_LINE */
    3474:	20001d40 	.word	0x20001d40
    3478:	e000ed00 	.word	0xe000ed00
    347c:	20000970 	.word	0x20000970
    3480:	00003301 	.word	0x00003301
    3484:	20000248 	.word	0x20000248
    3488:	000056ea 	.word	0x000056ea
    348c:	20000fa0 	.word	0x20000fa0

00003490 <init_mem_slab_module>:
 * Perform any initialization that wasn't done at build time.
 *
 * @return 0 on success, fails otherwise.
 */
static int init_mem_slab_module(const struct device *dev)
{
    3490:	b570      	push	{r4, r5, r6, lr}
	int rc = 0;
	ARG_UNUSED(dev);

	STRUCT_SECTION_FOREACH(k_mem_slab, slab) {
    3492:	4b0e      	ldr	r3, [pc, #56]	; (34cc <init_mem_slab_module+0x3c>)
    3494:	4c0e      	ldr	r4, [pc, #56]	; (34d0 <init_mem_slab_module+0x40>)
    3496:	42a3      	cmp	r3, r4
    3498:	d301      	bcc.n	349e <init_mem_slab_module+0xe>
			goto out;
		}
		z_object_init(slab);
	}

out:
    349a:	2000      	movs	r0, #0
	return rc;
}
    349c:	bd70      	pop	{r4, r5, r6, pc}
	CHECKIF(((slab->block_size | (uintptr_t)slab->buffer) &
    349e:	e9d3 0103 	ldrd	r0, r1, [r3, #12]
    34a2:	ea41 0200 	orr.w	r2, r1, r0
    34a6:	f012 0203 	ands.w	r2, r2, #3
    34aa:	d10b      	bne.n	34c4 <init_mem_slab_module+0x34>
	for (j = 0U; j < slab->num_blocks; j++) {
    34ac:	689d      	ldr	r5, [r3, #8]
	slab->free_list = NULL;
    34ae:	615a      	str	r2, [r3, #20]
	for (j = 0U; j < slab->num_blocks; j++) {
    34b0:	42aa      	cmp	r2, r5
    34b2:	d101      	bne.n	34b8 <init_mem_slab_module+0x28>
	STRUCT_SECTION_FOREACH(k_mem_slab, slab) {
    34b4:	331c      	adds	r3, #28
    34b6:	e7ee      	b.n	3496 <init_mem_slab_module+0x6>
		*(char **)p = slab->free_list;
    34b8:	695e      	ldr	r6, [r3, #20]
    34ba:	600e      	str	r6, [r1, #0]
	for (j = 0U; j < slab->num_blocks; j++) {
    34bc:	3201      	adds	r2, #1
		slab->free_list = p;
    34be:	6159      	str	r1, [r3, #20]
		p += slab->block_size;
    34c0:	4401      	add	r1, r0
	for (j = 0U; j < slab->num_blocks; j++) {
    34c2:	e7f5      	b.n	34b0 <init_mem_slab_module+0x20>
	return rc;
    34c4:	f06f 0015 	mvn.w	r0, #21
    34c8:	e7e8      	b.n	349c <init_mem_slab_module+0xc>
    34ca:	bf00      	nop
    34cc:	20000154 	.word	0x20000154
    34d0:	20000154 	.word	0x20000154

000034d4 <k_mem_slab_alloc>:

	return rc;
}

int k_mem_slab_alloc(struct k_mem_slab *slab, void **mem, k_timeout_t timeout)
{
    34d4:	b537      	push	{r0, r1, r2, r4, r5, lr}
    34d6:	460c      	mov	r4, r1
	__asm__ volatile(
    34d8:	f04f 0520 	mov.w	r5, #32
    34dc:	f3ef 8111 	mrs	r1, BASEPRI
    34e0:	f385 8812 	msr	BASEPRI_MAX, r5
    34e4:	f3bf 8f6f 	isb	sy
	k_spinlock_key_t key = k_spin_lock(&slab->lock);
	int result;

	SYS_PORT_TRACING_OBJ_FUNC_ENTER(k_mem_slab, alloc, slab, timeout);

	if (slab->free_list != NULL) {
    34e8:	6945      	ldr	r5, [r0, #20]
    34ea:	b15d      	cbz	r5, 3504 <k_mem_slab_alloc+0x30>
		/* take a free block */
		*mem = slab->free_list;
    34ec:	6025      	str	r5, [r4, #0]
		slab->free_list = *(char **)(slab->free_list);
    34ee:	682b      	ldr	r3, [r5, #0]
    34f0:	6143      	str	r3, [r0, #20]
		slab->num_used++;
    34f2:	6983      	ldr	r3, [r0, #24]
    34f4:	3301      	adds	r3, #1
    34f6:	6183      	str	r3, [r0, #24]

#ifdef CONFIG_MEM_SLAB_TRACE_MAX_UTILIZATION
		slab->max_used = MAX(slab->num_used, slab->max_used);
#endif

		result = 0;
    34f8:	2000      	movs	r0, #0
	__asm__ volatile(
    34fa:	f381 8811 	msr	BASEPRI, r1
    34fe:	f3bf 8f6f 	isb	sy

	SYS_PORT_TRACING_OBJ_FUNC_EXIT(k_mem_slab, alloc, slab, timeout, result);

	k_spin_unlock(&slab->lock, key);

	return result;
    3502:	e011      	b.n	3528 <k_mem_slab_alloc+0x54>
	} else if (K_TIMEOUT_EQ(timeout, K_NO_WAIT) ||
    3504:	ea52 0c03 	orrs.w	ip, r2, r3
    3508:	d103      	bne.n	3512 <k_mem_slab_alloc+0x3e>
		*mem = NULL;
    350a:	6025      	str	r5, [r4, #0]
		result = -ENOMEM;
    350c:	f06f 000b 	mvn.w	r0, #11
    3510:	e7f3      	b.n	34fa <k_mem_slab_alloc+0x26>
		result = z_pend_curr(&slab->lock, key, &slab->wait_q, timeout);
    3512:	e9cd 2300 	strd	r2, r3, [sp]
    3516:	4602      	mov	r2, r0
    3518:	3008      	adds	r0, #8
    351a:	f000 fb4f 	bl	3bbc <z_pend_curr>
		if (result == 0) {
    351e:	b918      	cbnz	r0, 3528 <k_mem_slab_alloc+0x54>
			*mem = _current->base.swap_data;
    3520:	4b02      	ldr	r3, [pc, #8]	; (352c <k_mem_slab_alloc+0x58>)
    3522:	689b      	ldr	r3, [r3, #8]
    3524:	695b      	ldr	r3, [r3, #20]
    3526:	6023      	str	r3, [r4, #0]
}
    3528:	b003      	add	sp, #12
    352a:	bd30      	pop	{r4, r5, pc}
    352c:	20000970 	.word	0x20000970

00003530 <z_setup_new_thread>:
char *z_setup_new_thread(struct k_thread *new_thread,
			 k_thread_stack_t *stack, size_t stack_size,
			 k_thread_entry_t entry,
			 void *p1, void *p2, void *p3,
			 int prio, uint32_t options, const char *name)
{
    3530:	e92d 41ff 	stmdb	sp!, {r0, r1, r2, r3, r4, r5, r6, r7, r8, lr}
void z_init_thread_base(struct _thread_base *thread_base, int priority,
		       uint32_t initial_state, unsigned int options)
{
	/* k_q_node is initialized upon first insertion in a list */
	thread_base->pended_on = NULL;
	thread_base->user_options = (uint8_t)options;
    3534:	9e0e      	ldr	r6, [sp, #56]	; 0x38
    3536:	7306      	strb	r6, [r0, #12]
	thread_base->thread_state = (uint8_t)initial_state;
    3538:	2604      	movs	r6, #4
    353a:	7346      	strb	r6, [r0, #13]

	thread_base->prio = priority;
    353c:	9e0d      	ldr	r6, [sp, #52]	; 0x34
    353e:	7386      	strb	r6, [r0, #14]
	SYS_DLIST_FOR_EACH_CONTAINER(&((wq)->waitq), thread_ptr, \
				     base.qnode_dlist)

static inline void z_waitq_init(_wait_q_t *w)
{
	sys_dlist_init(&w->waitq);
    3540:	f100 0558 	add.w	r5, r0, #88	; 0x58
{
    3544:	460f      	mov	r7, r1
		stack_obj_size = Z_KERNEL_STACK_SIZE_ADJUST(stack_size);
    3546:	1dd6      	adds	r6, r2, #7
 */

static inline void sys_dlist_init(sys_dlist_t *list)
{
	list->head = (sys_dnode_t *)list;
	list->tail = (sys_dnode_t *)list;
    3548:	e9c0 5516 	strd	r5, r5, [r0, #88]	; 0x58
	arch_new_thread(new_thread, stack, stack_ptr, entry, p1, p2, p3);
    354c:	9a0c      	ldr	r2, [sp, #48]	; 0x30
	thread_base->pended_on = NULL;
    354e:	2500      	movs	r5, #0
		stack_obj_size = Z_KERNEL_STACK_SIZE_ADJUST(stack_size);
    3550:	f026 0607 	bic.w	r6, r6, #7

/** @} */

static inline char *Z_KERNEL_STACK_BUFFER(k_thread_stack_t *sym)
{
	return (char *)sym + K_KERNEL_STACK_RESERVED;
    3554:	3720      	adds	r7, #32
 */

static inline void sys_dnode_init(sys_dnode_t *node)
{
	node->next = NULL;
	node->prev = NULL;
    3556:	e9c0 5506 	strd	r5, r5, [r0, #24]
	new_thread->stack_info.size = stack_buf_size;
    355a:	e9c0 7619 	strd	r7, r6, [r0, #100]	; 0x64
	thread_base->pended_on = NULL;
    355e:	6085      	str	r5, [r0, #8]

	thread_base->sched_locked = 0U;
    3560:	73c5      	strb	r5, [r0, #15]
	new_thread->stack_info.delta = delta;
    3562:	66c5      	str	r5, [r0, #108]	; 0x6c
		stack_obj_size = Z_KERNEL_STACK_SIZE_ADJUST(stack_size);
    3564:	f106 0820 	add.w	r8, r6, #32
	arch_new_thread(new_thread, stack, stack_ptr, entry, p1, p2, p3);
    3568:	9202      	str	r2, [sp, #8]
    356a:	9a0b      	ldr	r2, [sp, #44]	; 0x2c
    356c:	9201      	str	r2, [sp, #4]
	stack_ptr = (char *)stack + stack_obj_size;
    356e:	4488      	add	r8, r1
	arch_new_thread(new_thread, stack, stack_ptr, entry, p1, p2, p3);
    3570:	9a0a      	ldr	r2, [sp, #40]	; 0x28
    3572:	9200      	str	r2, [sp, #0]
    3574:	4642      	mov	r2, r8
{
    3576:	4604      	mov	r4, r0
	arch_new_thread(new_thread, stack, stack_ptr, entry, p1, p2, p3);
    3578:	f7fd fefa 	bl	1370 <arch_new_thread>
	if (!_current) {
    357c:	4b04      	ldr	r3, [pc, #16]	; (3590 <z_setup_new_thread+0x60>)
	new_thread->init_data = NULL;
    357e:	6565      	str	r5, [r4, #84]	; 0x54
	if (!_current) {
    3580:	689b      	ldr	r3, [r3, #8]
    3582:	b103      	cbz	r3, 3586 <z_setup_new_thread+0x56>
	new_thread->resource_pool = _current->resource_pool;
    3584:	6f1b      	ldr	r3, [r3, #112]	; 0x70
	return stack_ptr;
    3586:	6723      	str	r3, [r4, #112]	; 0x70
}
    3588:	4640      	mov	r0, r8
    358a:	b004      	add	sp, #16
    358c:	e8bd 81f0 	ldmia.w	sp!, {r4, r5, r6, r7, r8, pc}
    3590:	20000970 	.word	0x20000970

00003594 <z_init_static_threads>:
{
    3594:	e92d 43f0 	stmdb	sp!, {r4, r5, r6, r7, r8, r9, lr}
    3598:	4c29      	ldr	r4, [pc, #164]	; (3640 <z_init_static_threads+0xac>)
	_FOREACH_STATIC_THREAD(thread_data) {
    359a:	4d2a      	ldr	r5, [pc, #168]	; (3644 <z_init_static_threads+0xb0>)
{
    359c:	b087      	sub	sp, #28
    359e:	4626      	mov	r6, r4
	_FOREACH_STATIC_THREAD(thread_data) {
    35a0:	42ae      	cmp	r6, r5
    35a2:	f104 0430 	add.w	r4, r4, #48	; 0x30
    35a6:	d30f      	bcc.n	35c8 <z_init_static_threads+0x34>
	k_sched_lock();
    35a8:	f000 f9c6 	bl	3938 <k_sched_lock>
	_FOREACH_STATIC_THREAD(thread_data) {
    35ac:	4c24      	ldr	r4, [pc, #144]	; (3640 <z_init_static_threads+0xac>)

extern void z_thread_timeout(struct _timeout *timeout);

static inline void z_add_thread_timeout(struct k_thread *thread, k_timeout_t ticks)
{
	z_add_timeout(&thread->base.timeout, z_thread_timeout, ticks);
    35ae:	f8df 9098 	ldr.w	r9, [pc, #152]	; 3648 <z_init_static_threads+0xb4>
			/* Faster algorithm but source is first multiplied by target frequency
			 * and it can overflow even though final result would not overflow.
			 * Kconfig option shall prevent use of this algorithm when there is a
			 * risk of overflow.
			 */
			return ((t * to_hz + off) / from_hz);
    35b2:	f44f 4600 	mov.w	r6, #32768	; 0x8000
    35b6:	f240 37e7 	movw	r7, #999	; 0x3e7
    35ba:	42ac      	cmp	r4, r5
    35bc:	d320      	bcc.n	3600 <z_init_static_threads+0x6c>
}
    35be:	b007      	add	sp, #28
    35c0:	e8bd 43f0 	ldmia.w	sp!, {r4, r5, r6, r7, r8, r9, lr}
	k_sched_unlock();
    35c4:	f000 bb88 	b.w	3cd8 <k_sched_unlock>
		z_setup_new_thread(
    35c8:	f854 3c04 	ldr.w	r3, [r4, #-4]
    35cc:	9305      	str	r3, [sp, #20]
    35ce:	f854 3c10 	ldr.w	r3, [r4, #-16]
    35d2:	9304      	str	r3, [sp, #16]
    35d4:	f854 3c14 	ldr.w	r3, [r4, #-20]
    35d8:	9303      	str	r3, [sp, #12]
    35da:	f854 3c18 	ldr.w	r3, [r4, #-24]
    35de:	9302      	str	r3, [sp, #8]
    35e0:	f854 3c1c 	ldr.w	r3, [r4, #-28]
    35e4:	9301      	str	r3, [sp, #4]
    35e6:	f854 3c20 	ldr.w	r3, [r4, #-32]
    35ea:	9300      	str	r3, [sp, #0]
    35ec:	e954 010c 	ldrd	r0, r1, [r4, #-48]	; 0x30
    35f0:	e954 230a 	ldrd	r2, r3, [r4, #-40]	; 0x28
    35f4:	f7ff ff9c 	bl	3530 <z_setup_new_thread>
		thread_data->init_thread->init_data = thread_data;
    35f8:	f854 3c30 	ldr.w	r3, [r4, #-48]
    35fc:	655e      	str	r6, [r3, #84]	; 0x54
	_FOREACH_STATIC_THREAD(thread_data) {
    35fe:	e7ce      	b.n	359e <z_init_static_threads+0xa>
		if (thread_data->init_delay != K_TICKS_FOREVER) {
    3600:	6a63      	ldr	r3, [r4, #36]	; 0x24
    3602:	1c5a      	adds	r2, r3, #1
    3604:	d00d      	beq.n	3622 <z_init_static_threads+0x8e>
					    K_MSEC(thread_data->init_delay));
    3606:	ea23 73e3 	bic.w	r3, r3, r3, asr #31
    360a:	2100      	movs	r1, #0
    360c:	4638      	mov	r0, r7
    360e:	fbc3 0106 	smlal	r0, r1, r3, r6
	if (K_TIMEOUT_EQ(delay, K_NO_WAIT)) {
    3612:	ea51 33c3 	orrs.w	r3, r1, r3, lsl #15
			schedule_new_thread(thread_data->init_thread,
    3616:	f8d4 8000 	ldr.w	r8, [r4]
	if (K_TIMEOUT_EQ(delay, K_NO_WAIT)) {
    361a:	d104      	bne.n	3626 <z_init_static_threads+0x92>
	z_sched_start(thread);
    361c:	4640      	mov	r0, r8
    361e:	f000 fa71 	bl	3b04 <z_sched_start>
	_FOREACH_STATIC_THREAD(thread_data) {
    3622:	3430      	adds	r4, #48	; 0x30
    3624:	e7c9      	b.n	35ba <z_init_static_threads+0x26>
    3626:	f44f 727a 	mov.w	r2, #1000	; 0x3e8
    362a:	2300      	movs	r3, #0
    362c:	f7fc fd68 	bl	100 <__aeabi_uldivmod>
    3630:	4602      	mov	r2, r0
    3632:	460b      	mov	r3, r1
    3634:	f108 0018 	add.w	r0, r8, #24
    3638:	4649      	mov	r1, r9
    363a:	f000 fcd3 	bl	3fe4 <z_add_timeout>
    363e:	e7f0      	b.n	3622 <z_init_static_threads+0x8e>
    3640:	20000154 	.word	0x20000154
    3644:	20000154 	.word	0x20000154
    3648:	0000501f 	.word	0x0000501f

0000364c <idle>:
#endif	/* CONFIG_PM */
	sys_clock_idle_exit();
}

void idle(void *unused1, void *unused2, void *unused3)
{
    364c:	b508      	push	{r3, lr}
		 * higher level construct.
		 */
		(void) arch_irq_lock();

#ifdef CONFIG_PM
		_kernel.idle = z_get_next_timeout_expiry();
    364e:	4c0b      	ldr	r4, [pc, #44]	; (367c <idle+0x30>)
	return !z_sys_post_kernel;
    3650:	4d0b      	ldr	r5, [pc, #44]	; (3680 <idle+0x34>)
	__asm__ volatile(
    3652:	f04f 0220 	mov.w	r2, #32
    3656:	f3ef 8311 	mrs	r3, BASEPRI
    365a:	f382 8812 	msr	BASEPRI_MAX, r2
    365e:	f3bf 8f6f 	isb	sy
    3662:	f001 fd56 	bl	5112 <z_get_next_timeout_expiry>
		 * processing in those cases i.e. skips k_cpu_idle().
		 * The kernel's idle processing re-enables interrupts
		 * which is essential for the kernel's scheduling
		 * logic.
		 */
		if (k_is_pre_kernel() || !pm_system_suspend(_kernel.idle)) {
    3666:	782b      	ldrb	r3, [r5, #0]
		_kernel.idle = z_get_next_timeout_expiry();
    3668:	61a0      	str	r0, [r4, #24]
		if (k_is_pre_kernel() || !pm_system_suspend(_kernel.idle)) {
    366a:	b913      	cbnz	r3, 3672 <idle+0x26>
	arch_cpu_idle();
    366c:	f7fd fdbe 	bl	11ec <arch_cpu_idle>
}
    3670:	e7ef      	b.n	3652 <idle+0x6>
    3672:	f7fd fc11 	bl	e98 <pm_system_suspend>
    3676:	2800      	cmp	r0, #0
    3678:	d1eb      	bne.n	3652 <idle+0x6>
    367a:	e7f7      	b.n	366c <idle+0x20>
    367c:	20000970 	.word	0x20000970
    3680:	20000f91 	.word	0x20000f91

00003684 <z_impl_k_mutex_lock>:
	}
	return false;
}

int z_impl_k_mutex_lock(struct k_mutex *mutex, k_timeout_t timeout)
{
    3684:	e92d 41f3 	stmdb	sp!, {r0, r1, r4, r5, r6, r7, r8, lr}
    3688:	4604      	mov	r4, r0
    368a:	4617      	mov	r7, r2
    368c:	461e      	mov	r6, r3
    368e:	f04f 0320 	mov.w	r3, #32
    3692:	f3ef 8811 	mrs	r8, BASEPRI
    3696:	f383 8812 	msr	BASEPRI_MAX, r3
    369a:	f3bf 8f6f 	isb	sy

	SYS_PORT_TRACING_OBJ_FUNC_ENTER(k_mutex, lock, mutex, timeout);

	key = k_spin_lock(&lock);

	if (likely((mutex->lock_count == 0U) || (mutex->owner == _current))) {
    369e:	68c3      	ldr	r3, [r0, #12]
    36a0:	4a32      	ldr	r2, [pc, #200]	; (376c <z_impl_k_mutex_lock+0xe8>)
    36a2:	b16b      	cbz	r3, 36c0 <z_impl_k_mutex_lock+0x3c>
    36a4:	6880      	ldr	r0, [r0, #8]
    36a6:	6891      	ldr	r1, [r2, #8]
    36a8:	4288      	cmp	r0, r1
    36aa:	d019      	beq.n	36e0 <z_impl_k_mutex_lock+0x5c>
		SYS_PORT_TRACING_OBJ_FUNC_EXIT(k_mutex, lock, mutex, timeout, 0);

		return 0;
	}

	if (unlikely(K_TIMEOUT_EQ(timeout, K_NO_WAIT))) {
    36ac:	ea57 0306 	orrs.w	r3, r7, r6
    36b0:	d118      	bne.n	36e4 <z_impl_k_mutex_lock+0x60>
	__asm__ volatile(
    36b2:	f388 8811 	msr	BASEPRI, r8
    36b6:	f3bf 8f6f 	isb	sy
		k_spin_unlock(&lock, key);

		SYS_PORT_TRACING_OBJ_FUNC_EXIT(k_mutex, lock, mutex, timeout, -EBUSY);

		return -EBUSY;
    36ba:	f06f 000f 	mvn.w	r0, #15
    36be:	e00c      	b.n	36da <z_impl_k_mutex_lock+0x56>
					_current->base.prio :
    36c0:	6891      	ldr	r1, [r2, #8]
    36c2:	f991 100e 	ldrsb.w	r1, [r1, #14]
		mutex->owner_orig_prio = (mutex->lock_count == 0U) ?
    36c6:	6121      	str	r1, [r4, #16]
		mutex->lock_count++;
    36c8:	3301      	adds	r3, #1
    36ca:	60e3      	str	r3, [r4, #12]
		mutex->owner = _current;
    36cc:	6893      	ldr	r3, [r2, #8]
    36ce:	60a3      	str	r3, [r4, #8]
    36d0:	f388 8811 	msr	BASEPRI, r8
    36d4:	f3bf 8f6f 	isb	sy
		return 0;
    36d8:	2000      	movs	r0, #0
	}

	SYS_PORT_TRACING_OBJ_FUNC_EXIT(k_mutex, lock, mutex, timeout, -EAGAIN);

	return -EAGAIN;
}
    36da:	b002      	add	sp, #8
    36dc:	e8bd 81f0 	ldmia.w	sp!, {r4, r5, r6, r7, r8, pc}
					_current->base.prio :
    36e0:	6921      	ldr	r1, [r4, #16]
    36e2:	e7f0      	b.n	36c6 <z_impl_k_mutex_lock+0x42>
	new_prio = new_prio_for_inheritance(_current->base.prio,
    36e4:	f991 100e 	ldrsb.w	r1, [r1, #14]
    36e8:	f990 300e 	ldrsb.w	r3, [r0, #14]
	thread->base.thread_state &= ~states;
}

static inline bool z_is_under_prio_ceiling(int prio)
{
	return prio >= CONFIG_PRIORITY_CEILING;
    36ec:	4299      	cmp	r1, r3
    36ee:	bfa8      	it	ge
    36f0:	4619      	movge	r1, r3
    36f2:	f06f 027e 	mvn.w	r2, #126	; 0x7e
    36f6:	4291      	cmp	r1, r2
    36f8:	bfb8      	it	lt
    36fa:	4611      	movlt	r1, r2
	if (z_is_prio_higher(new_prio, mutex->owner->base.prio)) {
    36fc:	428b      	cmp	r3, r1
    36fe:	dd2e      	ble.n	375e <z_impl_k_mutex_lock+0xda>
		resched = adjust_owner_prio(mutex, new_prio);
    3700:	f001 fc40 	bl	4f84 <adjust_owner_prio.isra.0>
    3704:	4605      	mov	r5, r0
	int got_mutex = z_pend_curr(&lock, key, &mutex->wait_q, timeout);
    3706:	e9cd 7600 	strd	r7, r6, [sp]
    370a:	4819      	ldr	r0, [pc, #100]	; (3770 <z_impl_k_mutex_lock+0xec>)
    370c:	4622      	mov	r2, r4
    370e:	4641      	mov	r1, r8
    3710:	f000 fa54 	bl	3bbc <z_pend_curr>
	if (got_mutex == 0) {
    3714:	2800      	cmp	r0, #0
    3716:	d0e0      	beq.n	36da <z_impl_k_mutex_lock+0x56>
	__asm__ volatile(
    3718:	f04f 0320 	mov.w	r3, #32
    371c:	f3ef 8611 	mrs	r6, BASEPRI
    3720:	f383 8812 	msr	BASEPRI_MAX, r3
    3724:	f3bf 8f6f 	isb	sy
 * @return true if empty, false otherwise
 */

static inline bool sys_dlist_is_empty(sys_dlist_t *list)
{
	return list->head == list;
    3728:	6823      	ldr	r3, [r4, #0]
    372a:	6921      	ldr	r1, [r4, #16]
 * @return a pointer to the head element, NULL if list is empty
 */

static inline sys_dnode_t *sys_dlist_peek_head(sys_dlist_t *list)
{
	return sys_dlist_is_empty(list) ? NULL : list->head;
    372c:	429c      	cmp	r4, r3
    372e:	d00a      	beq.n	3746 <z_impl_k_mutex_lock+0xc2>
		new_prio_for_inheritance(waiter->base.prio, mutex->owner_orig_prio) :
    3730:	b14b      	cbz	r3, 3746 <z_impl_k_mutex_lock+0xc2>
    3732:	f993 300e 	ldrsb.w	r3, [r3, #14]
    3736:	4299      	cmp	r1, r3
    3738:	bfa8      	it	ge
    373a:	4619      	movge	r1, r3
    373c:	f06f 037e 	mvn.w	r3, #126	; 0x7e
    3740:	4299      	cmp	r1, r3
    3742:	bfb8      	it	lt
    3744:	4619      	movlt	r1, r3
	resched = adjust_owner_prio(mutex, new_prio) || resched;
    3746:	68a0      	ldr	r0, [r4, #8]
    3748:	f001 fc1c 	bl	4f84 <adjust_owner_prio.isra.0>
    374c:	b900      	cbnz	r0, 3750 <z_impl_k_mutex_lock+0xcc>
	if (resched) {
    374e:	b145      	cbz	r5, 3762 <z_impl_k_mutex_lock+0xde>
		z_reschedule(&lock, key);
    3750:	4807      	ldr	r0, [pc, #28]	; (3770 <z_impl_k_mutex_lock+0xec>)
    3752:	4631      	mov	r1, r6
    3754:	f000 f8de 	bl	3914 <z_reschedule>
	return -EAGAIN;
    3758:	f06f 000a 	mvn.w	r0, #10
    375c:	e7bd      	b.n	36da <z_impl_k_mutex_lock+0x56>
	bool resched = false;
    375e:	2500      	movs	r5, #0
    3760:	e7d1      	b.n	3706 <z_impl_k_mutex_lock+0x82>
	__asm__ volatile(
    3762:	f386 8811 	msr	BASEPRI, r6
    3766:	f3bf 8f6f 	isb	sy
    376a:	e7f5      	b.n	3758 <z_impl_k_mutex_lock+0xd4>
    376c:	20000970 	.word	0x20000970
    3770:	20000f92 	.word	0x20000f92

00003774 <z_impl_k_mutex_unlock>:
}
#include <syscalls/k_mutex_lock_mrsh.c>
#endif

int z_impl_k_mutex_unlock(struct k_mutex *mutex)
{
    3774:	b538      	push	{r3, r4, r5, lr}

	__ASSERT(!arch_is_in_isr(), "mutexes cannot be used inside ISRs");

	SYS_PORT_TRACING_OBJ_FUNC_ENTER(k_mutex, unlock, mutex);

	CHECKIF(mutex->owner == NULL) {
    3776:	6883      	ldr	r3, [r0, #8]
{
    3778:	4604      	mov	r4, r0
	CHECKIF(mutex->owner == NULL) {
    377a:	2b00      	cmp	r3, #0
    377c:	d032      	beq.n	37e4 <z_impl_k_mutex_unlock+0x70>
		return -EINVAL;
	}
	/*
	 * The current thread does not own the mutex.
	 */
	CHECKIF(mutex->owner != _current) {
    377e:	4a1c      	ldr	r2, [pc, #112]	; (37f0 <z_impl_k_mutex_unlock+0x7c>)
    3780:	6892      	ldr	r2, [r2, #8]
    3782:	4293      	cmp	r3, r2
    3784:	d131      	bne.n	37ea <z_impl_k_mutex_unlock+0x76>
static inline void z_sched_lock(void)
{
	__ASSERT(!arch_is_in_isr(), "");
	__ASSERT(_current->base.sched_locked != 1U, "");

	--_current->base.sched_locked;
    3786:	7bda      	ldrb	r2, [r3, #15]
    3788:	3a01      	subs	r2, #1
    378a:	73da      	strb	r2, [r3, #15]

	/*
	 * If we are the owner and count is greater than 1, then decrement
	 * the count and return and keep current thread as the owner.
	 */
	if (mutex->lock_count > 1U) {
    378c:	68c3      	ldr	r3, [r0, #12]
    378e:	2b01      	cmp	r3, #1
    3790:	d905      	bls.n	379e <z_impl_k_mutex_unlock+0x2a>
		mutex->lock_count--;
    3792:	3b01      	subs	r3, #1
    3794:	60c3      	str	r3, [r0, #12]


k_mutex_unlock_return:
	SYS_PORT_TRACING_OBJ_FUNC_EXIT(k_mutex, unlock, mutex, 0);

	k_sched_unlock();
    3796:	f000 fa9f 	bl	3cd8 <k_sched_unlock>

	return 0;
    379a:	2000      	movs	r0, #0
}
    379c:	bd38      	pop	{r3, r4, r5, pc}
	__asm__ volatile(
    379e:	f04f 0320 	mov.w	r3, #32
    37a2:	f3ef 8511 	mrs	r5, BASEPRI
    37a6:	f383 8812 	msr	BASEPRI_MAX, r3
    37aa:	f3bf 8f6f 	isb	sy
	adjust_owner_prio(mutex, mutex->owner_orig_prio);
    37ae:	6901      	ldr	r1, [r0, #16]
    37b0:	6880      	ldr	r0, [r0, #8]
    37b2:	f001 fbe7 	bl	4f84 <adjust_owner_prio.isra.0>
	new_owner = z_unpend_first_thread(&mutex->wait_q);
    37b6:	4620      	mov	r0, r4
    37b8:	f001 fc7d 	bl	50b6 <z_unpend_first_thread>
	mutex->owner = new_owner;
    37bc:	60a0      	str	r0, [r4, #8]
	if (new_owner != NULL) {
    37be:	b158      	cbz	r0, 37d8 <z_impl_k_mutex_unlock+0x64>
		mutex->owner_orig_prio = new_owner->base.prio;
    37c0:	f990 200e 	ldrsb.w	r2, [r0, #14]
    37c4:	6122      	str	r2, [r4, #16]
}

static ALWAYS_INLINE void
arch_thread_return_value_set(struct k_thread *thread, unsigned int value)
{
	thread->arch.swap_return_value = value;
    37c6:	2200      	movs	r2, #0
    37c8:	6782      	str	r2, [r0, #120]	; 0x78
		z_ready_thread(new_owner);
    37ca:	f001 fc18 	bl	4ffe <z_ready_thread>
		z_reschedule(&lock, key);
    37ce:	4809      	ldr	r0, [pc, #36]	; (37f4 <z_impl_k_mutex_unlock+0x80>)
    37d0:	4629      	mov	r1, r5
    37d2:	f000 f89f 	bl	3914 <z_reschedule>
    37d6:	e7de      	b.n	3796 <z_impl_k_mutex_unlock+0x22>
		mutex->lock_count = 0U;
    37d8:	60e0      	str	r0, [r4, #12]
	__asm__ volatile(
    37da:	f385 8811 	msr	BASEPRI, r5
    37de:	f3bf 8f6f 	isb	sy
    37e2:	e7d8      	b.n	3796 <z_impl_k_mutex_unlock+0x22>
		return -EINVAL;
    37e4:	f06f 0015 	mvn.w	r0, #21
    37e8:	e7d8      	b.n	379c <z_impl_k_mutex_unlock+0x28>
		return -EPERM;
    37ea:	f04f 30ff 	mov.w	r0, #4294967295	; 0xffffffff
    37ee:	e7d5      	b.n	379c <z_impl_k_mutex_unlock+0x28>
    37f0:	20000970 	.word	0x20000970
    37f4:	20000f92 	.word	0x20000f92

000037f8 <z_impl_k_sem_give>:
	ARG_UNUSED(sem);
#endif
}

void z_impl_k_sem_give(struct k_sem *sem)
{
    37f8:	b538      	push	{r3, r4, r5, lr}
    37fa:	4604      	mov	r4, r0
	__asm__ volatile(
    37fc:	f04f 0320 	mov.w	r3, #32
    3800:	f3ef 8511 	mrs	r5, BASEPRI
    3804:	f383 8812 	msr	BASEPRI_MAX, r3
    3808:	f3bf 8f6f 	isb	sy
	k_spinlock_key_t key = k_spin_lock(&lock);
	struct k_thread *thread;

	SYS_PORT_TRACING_OBJ_FUNC_ENTER(k_sem, give, sem);

	thread = z_unpend_first_thread(&sem->wait_q);
    380c:	f001 fc53 	bl	50b6 <z_unpend_first_thread>

	if (thread != NULL) {
    3810:	b148      	cbz	r0, 3826 <z_impl_k_sem_give+0x2e>
    3812:	2200      	movs	r2, #0
    3814:	6782      	str	r2, [r0, #120]	; 0x78
		arch_thread_return_value_set(thread, 0);
		z_ready_thread(thread);
    3816:	f001 fbf2 	bl	4ffe <z_ready_thread>
	} else {
		sem->count += (sem->count != sem->limit) ? 1U : 0U;
		handle_poll_events(sem);
	}

	z_reschedule(&lock, key);
    381a:	4629      	mov	r1, r5
    381c:	4805      	ldr	r0, [pc, #20]	; (3834 <z_impl_k_sem_give+0x3c>)

	SYS_PORT_TRACING_OBJ_FUNC_EXIT(k_sem, give, sem);
}
    381e:	e8bd 4038 	ldmia.w	sp!, {r3, r4, r5, lr}
	z_reschedule(&lock, key);
    3822:	f000 b877 	b.w	3914 <z_reschedule>
		sem->count += (sem->count != sem->limit) ? 1U : 0U;
    3826:	e9d4 3202 	ldrd	r3, r2, [r4, #8]
    382a:	429a      	cmp	r2, r3
    382c:	bf18      	it	ne
    382e:	3301      	addne	r3, #1
    3830:	60a3      	str	r3, [r4, #8]
}
    3832:	e7f2      	b.n	381a <z_impl_k_sem_give+0x22>
    3834:	20000f92 	.word	0x20000f92

00003838 <z_impl_k_sem_take>:
}
#include <syscalls/k_sem_give_mrsh.c>
#endif

int z_impl_k_sem_take(struct k_sem *sem, k_timeout_t timeout)
{
    3838:	b513      	push	{r0, r1, r4, lr}
    383a:	f04f 0420 	mov.w	r4, #32
    383e:	f3ef 8111 	mrs	r1, BASEPRI
    3842:	f384 8812 	msr	BASEPRI_MAX, r4
    3846:	f3bf 8f6f 	isb	sy

	k_spinlock_key_t key = k_spin_lock(&lock);

	SYS_PORT_TRACING_OBJ_FUNC_ENTER(k_sem, take, sem, timeout);

	if (likely(sem->count > 0U)) {
    384a:	6884      	ldr	r4, [r0, #8]
    384c:	b144      	cbz	r4, 3860 <z_impl_k_sem_take+0x28>
		sem->count--;
    384e:	3c01      	subs	r4, #1
    3850:	6084      	str	r4, [r0, #8]
	__asm__ volatile(
    3852:	f381 8811 	msr	BASEPRI, r1
    3856:	f3bf 8f6f 	isb	sy
		k_spin_unlock(&lock, key);
		ret = 0;
    385a:	2000      	movs	r0, #0

out:
	SYS_PORT_TRACING_OBJ_FUNC_EXIT(k_sem, take, sem, timeout, ret);

	return ret;
}
    385c:	b002      	add	sp, #8
    385e:	bd10      	pop	{r4, pc}
	if (K_TIMEOUT_EQ(timeout, K_NO_WAIT)) {
    3860:	ea52 0403 	orrs.w	r4, r2, r3
    3864:	d106      	bne.n	3874 <z_impl_k_sem_take+0x3c>
    3866:	f381 8811 	msr	BASEPRI, r1
    386a:	f3bf 8f6f 	isb	sy
		ret = -EBUSY;
    386e:	f06f 000f 	mvn.w	r0, #15
    3872:	e7f3      	b.n	385c <z_impl_k_sem_take+0x24>
	ret = z_pend_curr(&lock, key, &sem->wait_q, timeout);
    3874:	e9cd 2300 	strd	r2, r3, [sp]
    3878:	4602      	mov	r2, r0
    387a:	4802      	ldr	r0, [pc, #8]	; (3884 <z_impl_k_sem_take+0x4c>)
    387c:	f000 f99e 	bl	3bbc <z_pend_curr>
	return ret;
    3880:	e7ec      	b.n	385c <z_impl_k_sem_take+0x24>
    3882:	bf00      	nop
    3884:	20000f92 	.word	0x20000f92

00003888 <z_reset_time_slice>:
 */
static struct k_thread *pending_current;
#endif

void z_reset_time_slice(struct k_thread *curr)
{
    3888:	b538      	push	{r3, r4, r5, lr}
	int ret = slice_ticks;
    388a:	4d07      	ldr	r5, [pc, #28]	; (38a8 <z_reset_time_slice+0x20>)
    388c:	682c      	ldr	r4, [r5, #0]
	/* Add the elapsed time since the last announced tick to the
	 * slice count, as we'll see those "expired" ticks arrive in a
	 * FUTURE z_time_slice() call.
	 */
	if (slice_time(curr) != 0) {
    388e:	b154      	cbz	r4, 38a6 <z_reset_time_slice+0x1e>
		_current_cpu->slice_ticks = slice_time(curr) + sys_clock_elapsed();
    3890:	f7fe ff4a 	bl	2728 <sys_clock_elapsed>
    3894:	4b05      	ldr	r3, [pc, #20]	; (38ac <z_reset_time_slice+0x24>)
    3896:	4404      	add	r4, r0
    3898:	611c      	str	r4, [r3, #16]
		z_set_timeout_expiry(slice_time(curr), false);
    389a:	6828      	ldr	r0, [r5, #0]
    389c:	2100      	movs	r1, #0
	}
}
    389e:	e8bd 4038 	ldmia.w	sp!, {r3, r4, r5, lr}
		z_set_timeout_expiry(slice_time(curr), false);
    38a2:	f001 bc46 	b.w	5132 <z_set_timeout_expiry>
}
    38a6:	bd38      	pop	{r3, r4, r5, pc}
    38a8:	200009a0 	.word	0x200009a0
    38ac:	20000970 	.word	0x20000970

000038b0 <k_sched_time_slice_set>:

void k_sched_time_slice_set(int32_t slice, int prio)
{
    38b0:	b5f8      	push	{r3, r4, r5, r6, r7, lr}
    38b2:	4604      	mov	r4, r0
    38b4:	460d      	mov	r5, r1
	__asm__ volatile(
    38b6:	f04f 0320 	mov.w	r3, #32
    38ba:	f3ef 8711 	mrs	r7, BASEPRI
    38be:	f383 8812 	msr	BASEPRI_MAX, r3
    38c2:	f3bf 8f6f 	isb	sy
	LOCKED(&sched_spinlock) {
		_current_cpu->slice_ticks = 0;
    38c6:	4e10      	ldr	r6, [pc, #64]	; (3908 <k_sched_time_slice_set+0x58>)
    38c8:	2100      	movs	r1, #0
			return (uint32_t)((t * to_hz + off) / from_hz);
    38ca:	f44f 4c00 	mov.w	ip, #32768	; 0x8000
    38ce:	f240 30e7 	movw	r0, #999	; 0x3e7
    38d2:	6131      	str	r1, [r6, #16]
    38d4:	2300      	movs	r3, #0
    38d6:	f44f 727a 	mov.w	r2, #1000	; 0x3e8
    38da:	fbe4 010c 	umlal	r0, r1, r4, ip
    38de:	f7fc fc0f 	bl	100 <__aeabi_uldivmod>
		slice_ticks = k_ms_to_ticks_ceil32(slice);
		if (IS_ENABLED(CONFIG_TICKLESS_KERNEL) && slice > 0) {
    38e2:	2c00      	cmp	r4, #0
    38e4:	4b09      	ldr	r3, [pc, #36]	; (390c <k_sched_time_slice_set+0x5c>)
    38e6:	dc0a      	bgt.n	38fe <k_sched_time_slice_set+0x4e>
			/* It's not possible to reliably set a 1-tick
			 * timeout if ticks aren't regular.
			 */
			slice_ticks = MAX(2, slice_ticks);
    38e8:	6018      	str	r0, [r3, #0]
		}
		slice_max_prio = prio;
    38ea:	4b09      	ldr	r3, [pc, #36]	; (3910 <k_sched_time_slice_set+0x60>)
		z_reset_time_slice(_current);
    38ec:	68b0      	ldr	r0, [r6, #8]
		slice_max_prio = prio;
    38ee:	601d      	str	r5, [r3, #0]
		z_reset_time_slice(_current);
    38f0:	f7ff ffca 	bl	3888 <z_reset_time_slice>
	__asm__ volatile(
    38f4:	f387 8811 	msr	BASEPRI, r7
    38f8:	f3bf 8f6f 	isb	sy
	}
}
    38fc:	bdf8      	pop	{r3, r4, r5, r6, r7, pc}
			slice_ticks = MAX(2, slice_ticks);
    38fe:	2802      	cmp	r0, #2
    3900:	bfb8      	it	lt
    3902:	2002      	movlt	r0, #2
    3904:	e7f0      	b.n	38e8 <k_sched_time_slice_set+0x38>
    3906:	bf00      	nop
    3908:	20000970 	.word	0x20000970
    390c:	200009a0 	.word	0x200009a0
    3910:	2000099c 	.word	0x2000099c

00003914 <z_reschedule>:
{
#ifdef CONFIG_SMP
	_current_cpu->swap_ok = 0;
#endif

	return arch_irq_unlocked(key) && !arch_is_in_isr();
    3914:	b949      	cbnz	r1, 392a <z_reschedule+0x16>
  __ASM volatile ("MRS %0, ipsr" : "=r" (result) );
    3916:	f3ef 8005 	mrs	r0, IPSR
#endif
}

void z_reschedule(struct k_spinlock *lock, k_spinlock_key_t key)
{
	if (resched(key.key) && need_swap()) {
    391a:	b930      	cbnz	r0, 392a <z_reschedule+0x16>
	new_thread = _kernel.ready_q.cache;
    391c:	4b05      	ldr	r3, [pc, #20]	; (3934 <z_reschedule+0x20>)
	if (resched(key.key) && need_swap()) {
    391e:	69da      	ldr	r2, [r3, #28]
    3920:	689b      	ldr	r3, [r3, #8]
    3922:	429a      	cmp	r2, r3
    3924:	d001      	beq.n	392a <z_reschedule+0x16>
	ret = arch_swap(key);
    3926:	f7fd bccf 	b.w	12c8 <arch_swap>
    392a:	f381 8811 	msr	BASEPRI, r1
    392e:	f3bf 8f6f 	isb	sy
		z_swap(lock, key);
	} else {
		k_spin_unlock(lock, key);
	}
}
    3932:	4770      	bx	lr
    3934:	20000970 	.word	0x20000970

00003938 <k_sched_lock>:
	__asm__ volatile(
    3938:	f04f 0320 	mov.w	r3, #32
    393c:	f3ef 8111 	mrs	r1, BASEPRI
    3940:	f383 8812 	msr	BASEPRI_MAX, r3
    3944:	f3bf 8f6f 	isb	sy
    3948:	4b04      	ldr	r3, [pc, #16]	; (395c <k_sched_lock+0x24>)
    394a:	689a      	ldr	r2, [r3, #8]
    394c:	7bd3      	ldrb	r3, [r2, #15]
    394e:	3b01      	subs	r3, #1
    3950:	73d3      	strb	r3, [r2, #15]
	__asm__ volatile(
    3952:	f381 8811 	msr	BASEPRI, r1
    3956:	f3bf 8f6f 	isb	sy
	LOCKED(&sched_spinlock) {
		SYS_PORT_TRACING_FUNC(k_thread, sched_lock);

		z_sched_lock();
	}
}
    395a:	4770      	bx	lr
    395c:	20000970 	.word	0x20000970

00003960 <update_cache>:
{
    3960:	b538      	push	{r3, r4, r5, lr}
    3962:	4602      	mov	r2, r0
	return _priq_run_best(curr_cpu_runq());
    3964:	480c      	ldr	r0, [pc, #48]	; (3998 <update_cache+0x38>)
    3966:	4d0d      	ldr	r5, [pc, #52]	; (399c <update_cache+0x3c>)
    3968:	f001 fb43 	bl	4ff2 <z_priq_dumb_best>
	return (thread != NULL) ? thread : _current_cpu->idle_thread;
    396c:	4604      	mov	r4, r0
    396e:	b900      	cbnz	r0, 3972 <update_cache+0x12>
    3970:	68ec      	ldr	r4, [r5, #12]
	if (z_is_thread_prevented_from_running(_current)) {
    3972:	68ab      	ldr	r3, [r5, #8]
	if (preempt_ok != 0) {
    3974:	b94a      	cbnz	r2, 398a <update_cache+0x2a>
	if (z_is_thread_prevented_from_running(_current)) {
    3976:	7b5a      	ldrb	r2, [r3, #13]
    3978:	06d2      	lsls	r2, r2, #27
    397a:	d106      	bne.n	398a <update_cache+0x2a>
	if (IS_ENABLED(CONFIG_SWAP_NONATOMIC)
    397c:	69a2      	ldr	r2, [r4, #24]
    397e:	b922      	cbnz	r2, 398a <update_cache+0x2a>
	if (is_preempt(_current) || is_metairq(thread)) {
    3980:	89da      	ldrh	r2, [r3, #14]
    3982:	2a7f      	cmp	r2, #127	; 0x7f
    3984:	d901      	bls.n	398a <update_cache+0x2a>
		_kernel.ready_q.cache = _current;
    3986:	61eb      	str	r3, [r5, #28]
}
    3988:	bd38      	pop	{r3, r4, r5, pc}
		if (thread != _current) {
    398a:	429c      	cmp	r4, r3
    398c:	d002      	beq.n	3994 <update_cache+0x34>
			z_reset_time_slice(thread);
    398e:	4620      	mov	r0, r4
    3990:	f7ff ff7a 	bl	3888 <z_reset_time_slice>
		_kernel.ready_q.cache = thread;
    3994:	61ec      	str	r4, [r5, #28]
}
    3996:	e7f7      	b.n	3988 <update_cache+0x28>
    3998:	20000990 	.word	0x20000990
    399c:	20000970 	.word	0x20000970

000039a0 <move_thread_to_end_of_prio_q>:
{
    39a0:	b570      	push	{r4, r5, r6, lr}
	if (z_is_thread_queued(thread)) {
    39a2:	f990 200d 	ldrsb.w	r2, [r0, #13]
	return (thread->base.thread_state & state) != 0U;
    39a6:	7b43      	ldrb	r3, [r0, #13]
    39a8:	2a00      	cmp	r2, #0
{
    39aa:	4601      	mov	r1, r0
	if (z_is_thread_queued(thread)) {
    39ac:	da04      	bge.n	39b8 <move_thread_to_end_of_prio_q+0x18>
	thread->base.thread_state &= ~_THREAD_QUEUED;
    39ae:	f003 037f 	and.w	r3, r3, #127	; 0x7f
    39b2:	7343      	strb	r3, [r0, #13]

void z_priq_dumb_remove(sys_dlist_t *pq, struct k_thread *thread)
{
	__ASSERT_NO_MSG(!z_is_idle_thread_object(thread));

	sys_dlist_remove(&thread->base.qnode_dlist);
    39b4:	f001 faf5 	bl	4fa2 <sys_dlist_remove>
	thread->base.thread_state |= _THREAD_QUEUED;
    39b8:	7b4b      	ldrb	r3, [r1, #13]
	return list->head == list;
    39ba:	4a15      	ldr	r2, [pc, #84]	; (3a10 <move_thread_to_end_of_prio_q+0x70>)
    39bc:	f063 037f 	orn	r3, r3, #127	; 0x7f
    39c0:	734b      	strb	r3, [r1, #13]
 */

static inline sys_dnode_t *sys_dlist_peek_next_no_check(sys_dlist_t *list,
							sys_dnode_t *node)
{
	return (node == list->tail) ? NULL : node->next;
    39c2:	e9d2 3408 	ldrd	r3, r4, [r2, #32]
	return sys_dlist_is_empty(list) ? NULL : list->head;
    39c6:	f102 0520 	add.w	r5, r2, #32
    39ca:	42ab      	cmp	r3, r5
    39cc:	d01b      	beq.n	3a06 <move_thread_to_end_of_prio_q+0x66>
	SYS_DLIST_FOR_EACH_CONTAINER(pq, t, base.qnode_dlist) {
    39ce:	b1d3      	cbz	r3, 3a06 <move_thread_to_end_of_prio_q+0x66>
	int32_t b1 = thread_1->base.prio;
    39d0:	f991 600e 	ldrsb.w	r6, [r1, #14]
	int32_t b2 = thread_2->base.prio;
    39d4:	f993 000e 	ldrsb.w	r0, [r3, #14]
	if (b1 != b2) {
    39d8:	4286      	cmp	r6, r0
    39da:	d00f      	beq.n	39fc <move_thread_to_end_of_prio_q+0x5c>
		return b2 - b1;
    39dc:	1b80      	subs	r0, r0, r6
		if (z_sched_prio_cmp(thread, t) > 0) {
    39de:	2800      	cmp	r0, #0
    39e0:	dd0c      	ble.n	39fc <move_thread_to_end_of_prio_q+0x5c>
 * @param successor the position before which "node" will be inserted
 * @param node the element to insert
 */
static inline void sys_dlist_insert(sys_dnode_t *successor, sys_dnode_t *node)
{
	sys_dnode_t *const prev = successor->prev;
    39e2:	6858      	ldr	r0, [r3, #4]

	node->prev = prev;
	node->next = successor;
    39e4:	e9c1 3000 	strd	r3, r0, [r1]
	prev->next = node;
    39e8:	6001      	str	r1, [r0, #0]
	successor->prev = node;
    39ea:	6059      	str	r1, [r3, #4]
	update_cache(thread == _current);
    39ec:	6890      	ldr	r0, [r2, #8]
    39ee:	1a43      	subs	r3, r0, r1
    39f0:	4258      	negs	r0, r3
}
    39f2:	e8bd 4070 	ldmia.w	sp!, {r4, r5, r6, lr}
	update_cache(thread == _current);
    39f6:	4158      	adcs	r0, r3
    39f8:	f7ff bfb2 	b.w	3960 <update_cache>
	return (node == list->tail) ? NULL : node->next;
    39fc:	42a3      	cmp	r3, r4
    39fe:	d002      	beq.n	3a06 <move_thread_to_end_of_prio_q+0x66>
    3a00:	681b      	ldr	r3, [r3, #0]
	SYS_DLIST_FOR_EACH_CONTAINER(pq, t, base.qnode_dlist) {
    3a02:	2b00      	cmp	r3, #0
    3a04:	d1e6      	bne.n	39d4 <move_thread_to_end_of_prio_q+0x34>
	node->prev = tail;
    3a06:	e9c1 5400 	strd	r5, r4, [r1]
	tail->next = node;
    3a0a:	6021      	str	r1, [r4, #0]
	list->tail = node;
    3a0c:	6251      	str	r1, [r2, #36]	; 0x24
}
    3a0e:	e7ed      	b.n	39ec <move_thread_to_end_of_prio_q+0x4c>
    3a10:	20000970 	.word	0x20000970

00003a14 <z_time_slice>:
{
    3a14:	b538      	push	{r3, r4, r5, lr}
	__asm__ volatile(
    3a16:	f04f 0320 	mov.w	r3, #32
    3a1a:	f3ef 8511 	mrs	r5, BASEPRI
    3a1e:	f383 8812 	msr	BASEPRI_MAX, r3
    3a22:	f3bf 8f6f 	isb	sy
	if (pending_current == _current) {
    3a26:	4b17      	ldr	r3, [pc, #92]	; (3a84 <z_time_slice+0x70>)
    3a28:	4a17      	ldr	r2, [pc, #92]	; (3a88 <z_time_slice+0x74>)
    3a2a:	689c      	ldr	r4, [r3, #8]
    3a2c:	6811      	ldr	r1, [r2, #0]
    3a2e:	428c      	cmp	r4, r1
    3a30:	d107      	bne.n	3a42 <z_time_slice+0x2e>
	z_reset_time_slice(curr);
    3a32:	4620      	mov	r0, r4
    3a34:	f7ff ff28 	bl	3888 <z_reset_time_slice>
	__asm__ volatile(
    3a38:	f385 8811 	msr	BASEPRI, r5
    3a3c:	f3bf 8f6f 	isb	sy
}
    3a40:	bd38      	pop	{r3, r4, r5, pc}
	pending_current = NULL;
    3a42:	2100      	movs	r1, #0
    3a44:	6011      	str	r1, [r2, #0]
	int ret = slice_ticks;
    3a46:	4a11      	ldr	r2, [pc, #68]	; (3a8c <z_time_slice+0x78>)
	if (slice_time(_current) && sliceable(_current)) {
    3a48:	6812      	ldr	r2, [r2, #0]
    3a4a:	b1c2      	cbz	r2, 3a7e <z_time_slice+0x6a>
		&& !z_is_idle_thread_object(thread);
    3a4c:	89e2      	ldrh	r2, [r4, #14]
    3a4e:	2a7f      	cmp	r2, #127	; 0x7f
    3a50:	d815      	bhi.n	3a7e <z_time_slice+0x6a>
		&& !z_is_thread_prevented_from_running(thread)
    3a52:	7b62      	ldrb	r2, [r4, #13]
    3a54:	06d2      	lsls	r2, r2, #27
    3a56:	d112      	bne.n	3a7e <z_time_slice+0x6a>
		&& !z_is_prio_higher(thread->base.prio, slice_max_prio)
    3a58:	4a0d      	ldr	r2, [pc, #52]	; (3a90 <z_time_slice+0x7c>)
    3a5a:	f994 100e 	ldrsb.w	r1, [r4, #14]
    3a5e:	6812      	ldr	r2, [r2, #0]
    3a60:	4291      	cmp	r1, r2
    3a62:	db0c      	blt.n	3a7e <z_time_slice+0x6a>
	if (slice_time(_current) && sliceable(_current)) {
    3a64:	4a0b      	ldr	r2, [pc, #44]	; (3a94 <z_time_slice+0x80>)
    3a66:	4294      	cmp	r4, r2
    3a68:	d009      	beq.n	3a7e <z_time_slice+0x6a>
		if (ticks >= _current_cpu->slice_ticks) {
    3a6a:	691a      	ldr	r2, [r3, #16]
    3a6c:	4282      	cmp	r2, r0
    3a6e:	dc03      	bgt.n	3a78 <z_time_slice+0x64>
		move_thread_to_end_of_prio_q(curr);
    3a70:	4620      	mov	r0, r4
    3a72:	f7ff ff95 	bl	39a0 <move_thread_to_end_of_prio_q>
    3a76:	e7dc      	b.n	3a32 <z_time_slice+0x1e>
			_current_cpu->slice_ticks -= ticks;
    3a78:	1a12      	subs	r2, r2, r0
		_current_cpu->slice_ticks = 0;
    3a7a:	611a      	str	r2, [r3, #16]
    3a7c:	e7dc      	b.n	3a38 <z_time_slice+0x24>
    3a7e:	2200      	movs	r2, #0
    3a80:	e7fb      	b.n	3a7a <z_time_slice+0x66>
    3a82:	bf00      	nop
    3a84:	20000970 	.word	0x20000970
    3a88:	20000998 	.word	0x20000998
    3a8c:	200009a0 	.word	0x200009a0
    3a90:	2000099c 	.word	0x2000099c
    3a94:	200001c8 	.word	0x200001c8

00003a98 <ready_thread>:
{
    3a98:	b470      	push	{r4, r5, r6}
	if (!z_is_thread_queued(thread) && z_is_thread_ready(thread)) {
    3a9a:	f990 200d 	ldrsb.w	r2, [r0, #13]
    3a9e:	7b43      	ldrb	r3, [r0, #13]
    3aa0:	2a00      	cmp	r2, #0
    3aa2:	db2a      	blt.n	3afa <ready_thread+0x62>
	return !((z_is_thread_prevented_from_running(thread)) != 0U ||
    3aa4:	06da      	lsls	r2, r3, #27
    3aa6:	d128      	bne.n	3afa <ready_thread+0x62>
    3aa8:	6982      	ldr	r2, [r0, #24]
    3aaa:	bb32      	cbnz	r2, 3afa <ready_thread+0x62>
	return list->head == list;
    3aac:	4a14      	ldr	r2, [pc, #80]	; (3b00 <ready_thread+0x68>)
	thread->base.thread_state |= _THREAD_QUEUED;
    3aae:	f063 037f 	orn	r3, r3, #127	; 0x7f
    3ab2:	7343      	strb	r3, [r0, #13]
	return (node == list->tail) ? NULL : node->next;
    3ab4:	e9d2 3408 	ldrd	r3, r4, [r2, #32]
	return sys_dlist_is_empty(list) ? NULL : list->head;
    3ab8:	f102 0520 	add.w	r5, r2, #32
    3abc:	42ab      	cmp	r3, r5
    3abe:	d017      	beq.n	3af0 <ready_thread+0x58>
	SYS_DLIST_FOR_EACH_CONTAINER(pq, t, base.qnode_dlist) {
    3ac0:	b1b3      	cbz	r3, 3af0 <ready_thread+0x58>
	int32_t b1 = thread_1->base.prio;
    3ac2:	f990 600e 	ldrsb.w	r6, [r0, #14]
	int32_t b2 = thread_2->base.prio;
    3ac6:	f993 100e 	ldrsb.w	r1, [r3, #14]
	if (b1 != b2) {
    3aca:	428e      	cmp	r6, r1
    3acc:	d00b      	beq.n	3ae6 <ready_thread+0x4e>
		return b2 - b1;
    3ace:	1b89      	subs	r1, r1, r6
		if (z_sched_prio_cmp(thread, t) > 0) {
    3ad0:	2900      	cmp	r1, #0
    3ad2:	dd08      	ble.n	3ae6 <ready_thread+0x4e>
	sys_dnode_t *const prev = successor->prev;
    3ad4:	685a      	ldr	r2, [r3, #4]
	node->next = successor;
    3ad6:	e9c0 3200 	strd	r3, r2, [r0]
	prev->next = node;
    3ada:	6010      	str	r0, [r2, #0]
	successor->prev = node;
    3adc:	6058      	str	r0, [r3, #4]
}
    3ade:	bc70      	pop	{r4, r5, r6}
		update_cache(0);
    3ae0:	2000      	movs	r0, #0
    3ae2:	f7ff bf3d 	b.w	3960 <update_cache>
	return (node == list->tail) ? NULL : node->next;
    3ae6:	42a3      	cmp	r3, r4
    3ae8:	d002      	beq.n	3af0 <ready_thread+0x58>
    3aea:	681b      	ldr	r3, [r3, #0]
	SYS_DLIST_FOR_EACH_CONTAINER(pq, t, base.qnode_dlist) {
    3aec:	2b00      	cmp	r3, #0
    3aee:	d1ea      	bne.n	3ac6 <ready_thread+0x2e>
	node->prev = tail;
    3af0:	e9c0 5400 	strd	r5, r4, [r0]
	tail->next = node;
    3af4:	6020      	str	r0, [r4, #0]
	list->tail = node;
    3af6:	6250      	str	r0, [r2, #36]	; 0x24
}
    3af8:	e7f1      	b.n	3ade <ready_thread+0x46>
}
    3afa:	bc70      	pop	{r4, r5, r6}
    3afc:	4770      	bx	lr
    3afe:	bf00      	nop
    3b00:	20000970 	.word	0x20000970

00003b04 <z_sched_start>:
{
    3b04:	b510      	push	{r4, lr}
	__asm__ volatile(
    3b06:	f04f 0220 	mov.w	r2, #32
    3b0a:	f3ef 8411 	mrs	r4, BASEPRI
    3b0e:	f382 8812 	msr	BASEPRI_MAX, r2
    3b12:	f3bf 8f6f 	isb	sy
	return (thread->base.thread_state & _THREAD_PRESTART) == 0U;
    3b16:	7b42      	ldrb	r2, [r0, #13]
	if (z_has_thread_started(thread)) {
    3b18:	0751      	lsls	r1, r2, #29
    3b1a:	d404      	bmi.n	3b26 <z_sched_start+0x22>
	__asm__ volatile(
    3b1c:	f384 8811 	msr	BASEPRI, r4
    3b20:	f3bf 8f6f 	isb	sy
}
    3b24:	bd10      	pop	{r4, pc}
	thread->base.thread_state &= ~_THREAD_PRESTART;
    3b26:	f022 0204 	bic.w	r2, r2, #4
    3b2a:	7342      	strb	r2, [r0, #13]
	ready_thread(thread);
    3b2c:	f7ff ffb4 	bl	3a98 <ready_thread>
	z_reschedule(&sched_spinlock, key);
    3b30:	4621      	mov	r1, r4
    3b32:	4802      	ldr	r0, [pc, #8]	; (3b3c <z_sched_start+0x38>)
}
    3b34:	e8bd 4010 	ldmia.w	sp!, {r4, lr}
	z_reschedule(&sched_spinlock, key);
    3b38:	f7ff beec 	b.w	3914 <z_reschedule>
    3b3c:	20000f92 	.word	0x20000f92

00003b40 <unready_thread>:
{
    3b40:	b508      	push	{r3, lr}
	if (z_is_thread_queued(thread)) {
    3b42:	f990 200d 	ldrsb.w	r2, [r0, #13]
	return (thread->base.thread_state & state) != 0U;
    3b46:	7b43      	ldrb	r3, [r0, #13]
    3b48:	2a00      	cmp	r2, #0
{
    3b4a:	4601      	mov	r1, r0
	if (z_is_thread_queued(thread)) {
    3b4c:	da04      	bge.n	3b58 <unready_thread+0x18>
	thread->base.thread_state &= ~_THREAD_QUEUED;
    3b4e:	f003 037f 	and.w	r3, r3, #127	; 0x7f
    3b52:	7343      	strb	r3, [r0, #13]
	sys_dlist_remove(&thread->base.qnode_dlist);
    3b54:	f001 fa25 	bl	4fa2 <sys_dlist_remove>
	update_cache(thread == _current);
    3b58:	4b04      	ldr	r3, [pc, #16]	; (3b6c <unready_thread+0x2c>)
    3b5a:	6898      	ldr	r0, [r3, #8]
    3b5c:	1a43      	subs	r3, r0, r1
    3b5e:	4258      	negs	r0, r3
    3b60:	4158      	adcs	r0, r3
}
    3b62:	e8bd 4008 	ldmia.w	sp!, {r3, lr}
	update_cache(thread == _current);
    3b66:	f7ff befb 	b.w	3960 <update_cache>
    3b6a:	bf00      	nop
    3b6c:	20000970 	.word	0x20000970

00003b70 <pend>:
{
    3b70:	e92d 41f0 	stmdb	sp!, {r4, r5, r6, r7, r8, lr}
    3b74:	4606      	mov	r6, r0
    3b76:	4615      	mov	r5, r2
    3b78:	461c      	mov	r4, r3
	__asm__ volatile(
    3b7a:	f04f 0320 	mov.w	r3, #32
    3b7e:	f3ef 8711 	mrs	r7, BASEPRI
    3b82:	f383 8812 	msr	BASEPRI_MAX, r3
    3b86:	f3bf 8f6f 	isb	sy
		add_to_waitq_locked(thread, wait_q);
    3b8a:	f001 fa6a 	bl	5062 <add_to_waitq_locked>
	__asm__ volatile(
    3b8e:	f387 8811 	msr	BASEPRI, r7
    3b92:	f3bf 8f6f 	isb	sy
	if (!K_TIMEOUT_EQ(timeout, K_FOREVER)) {
    3b96:	f1b4 3fff 	cmp.w	r4, #4294967295	; 0xffffffff
    3b9a:	bf08      	it	eq
    3b9c:	f1b5 3fff 	cmpeq.w	r5, #4294967295	; 0xffffffff
    3ba0:	d008      	beq.n	3bb4 <pend+0x44>
    3ba2:	462a      	mov	r2, r5
    3ba4:	4623      	mov	r3, r4
    3ba6:	f106 0018 	add.w	r0, r6, #24
    3baa:	4903      	ldr	r1, [pc, #12]	; (3bb8 <pend+0x48>)
}
    3bac:	e8bd 41f0 	ldmia.w	sp!, {r4, r5, r6, r7, r8, lr}
    3bb0:	f000 ba18 	b.w	3fe4 <z_add_timeout>
    3bb4:	e8bd 81f0 	ldmia.w	sp!, {r4, r5, r6, r7, r8, pc}
    3bb8:	0000501f 	.word	0x0000501f

00003bbc <z_pend_curr>:
{
    3bbc:	b510      	push	{r4, lr}
	pending_current = _current;
    3bbe:	4b07      	ldr	r3, [pc, #28]	; (3bdc <z_pend_curr+0x20>)
    3bc0:	6898      	ldr	r0, [r3, #8]
    3bc2:	4b07      	ldr	r3, [pc, #28]	; (3be0 <z_pend_curr+0x24>)
{
    3bc4:	460c      	mov	r4, r1
	pending_current = _current;
    3bc6:	6018      	str	r0, [r3, #0]
{
    3bc8:	4611      	mov	r1, r2
	pend(_current, wait_q, timeout);
    3bca:	e9dd 2302 	ldrd	r2, r3, [sp, #8]
    3bce:	f7ff ffcf 	bl	3b70 <pend>
    3bd2:	4620      	mov	r0, r4
}
    3bd4:	e8bd 4010 	ldmia.w	sp!, {r4, lr}
    3bd8:	f7fd bb76 	b.w	12c8 <arch_swap>
    3bdc:	20000970 	.word	0x20000970
    3be0:	20000998 	.word	0x20000998

00003be4 <z_set_prio>:
{
    3be4:	b5f8      	push	{r3, r4, r5, r6, r7, lr}
    3be6:	4604      	mov	r4, r0
	__asm__ volatile(
    3be8:	f04f 0320 	mov.w	r3, #32
    3bec:	f3ef 8611 	mrs	r6, BASEPRI
    3bf0:	f383 8812 	msr	BASEPRI_MAX, r3
    3bf4:	f3bf 8f6f 	isb	sy
	uint8_t state = thread->base.thread_state;
    3bf8:	7b43      	ldrb	r3, [r0, #13]
	return !((z_is_thread_prevented_from_running(thread)) != 0U ||
    3bfa:	06da      	lsls	r2, r3, #27
				thread->base.prio = prio;
    3bfc:	b249      	sxtb	r1, r1
    3bfe:	d133      	bne.n	3c68 <z_set_prio+0x84>
		if (need_sched) {
    3c00:	6982      	ldr	r2, [r0, #24]
    3c02:	bb8a      	cbnz	r2, 3c68 <z_set_prio+0x84>
	thread->base.thread_state &= ~_THREAD_QUEUED;
    3c04:	f003 037f 	and.w	r3, r3, #127	; 0x7f
    3c08:	7343      	strb	r3, [r0, #13]
	sys_dlist_remove(&thread->base.qnode_dlist);
    3c0a:	f001 f9ca 	bl	4fa2 <sys_dlist_remove>
	thread->base.thread_state |= _THREAD_QUEUED;
    3c0e:	7b43      	ldrb	r3, [r0, #13]
	return list->head == list;
    3c10:	4a17      	ldr	r2, [pc, #92]	; (3c70 <z_set_prio+0x8c>)
				thread->base.prio = prio;
    3c12:	7381      	strb	r1, [r0, #14]
	thread->base.thread_state |= _THREAD_QUEUED;
    3c14:	f063 037f 	orn	r3, r3, #127	; 0x7f
    3c18:	7343      	strb	r3, [r0, #13]
    3c1a:	4610      	mov	r0, r2
    3c1c:	f850 3f20 	ldr.w	r3, [r0, #32]!
	return sys_dlist_is_empty(list) ? NULL : list->head;
    3c20:	4283      	cmp	r3, r0
    3c22:	d01b      	beq.n	3c5c <z_set_prio+0x78>
	SYS_DLIST_FOR_EACH_CONTAINER(pq, t, base.qnode_dlist) {
    3c24:	b1d3      	cbz	r3, 3c5c <z_set_prio+0x78>
	return (node == list->tail) ? NULL : node->next;
    3c26:	6a57      	ldr	r7, [r2, #36]	; 0x24
	int32_t b2 = thread_2->base.prio;
    3c28:	f993 500e 	ldrsb.w	r5, [r3, #14]
	if (b1 != b2) {
    3c2c:	42a9      	cmp	r1, r5
    3c2e:	d010      	beq.n	3c52 <z_set_prio+0x6e>
		return b2 - b1;
    3c30:	1a6d      	subs	r5, r5, r1
		if (z_sched_prio_cmp(thread, t) > 0) {
    3c32:	2d00      	cmp	r5, #0
    3c34:	dd0d      	ble.n	3c52 <z_set_prio+0x6e>
	sys_dnode_t *const prev = successor->prev;
    3c36:	685a      	ldr	r2, [r3, #4]
	node->next = successor;
    3c38:	e9c4 3200 	strd	r3, r2, [r4]
	prev->next = node;
    3c3c:	6014      	str	r4, [r2, #0]
	successor->prev = node;
    3c3e:	605c      	str	r4, [r3, #4]
			update_cache(1);
    3c40:	2001      	movs	r0, #1
    3c42:	f7ff fe8d 	bl	3960 <update_cache>
    3c46:	2001      	movs	r0, #1
	__asm__ volatile(
    3c48:	f386 8811 	msr	BASEPRI, r6
    3c4c:	f3bf 8f6f 	isb	sy
}
    3c50:	bdf8      	pop	{r3, r4, r5, r6, r7, pc}
	return (node == list->tail) ? NULL : node->next;
    3c52:	42bb      	cmp	r3, r7
    3c54:	d002      	beq.n	3c5c <z_set_prio+0x78>
    3c56:	681b      	ldr	r3, [r3, #0]
	SYS_DLIST_FOR_EACH_CONTAINER(pq, t, base.qnode_dlist) {
    3c58:	2b00      	cmp	r3, #0
    3c5a:	d1e5      	bne.n	3c28 <z_set_prio+0x44>
	sys_dnode_t *const tail = list->tail;
    3c5c:	6a53      	ldr	r3, [r2, #36]	; 0x24
	node->prev = tail;
    3c5e:	e9c4 0300 	strd	r0, r3, [r4]
	tail->next = node;
    3c62:	601c      	str	r4, [r3, #0]
	list->tail = node;
    3c64:	6254      	str	r4, [r2, #36]	; 0x24
}
    3c66:	e7eb      	b.n	3c40 <z_set_prio+0x5c>
			thread->base.prio = prio;
    3c68:	73a1      	strb	r1, [r4, #14]
    3c6a:	2000      	movs	r0, #0
    3c6c:	e7ec      	b.n	3c48 <z_set_prio+0x64>
    3c6e:	bf00      	nop
    3c70:	20000970 	.word	0x20000970

00003c74 <z_impl_k_thread_suspend>:
{
    3c74:	b570      	push	{r4, r5, r6, lr}
    3c76:	4604      	mov	r4, r0
}

static inline int z_abort_thread_timeout(struct k_thread *thread)
{
	return z_abort_timeout(&thread->base.timeout);
    3c78:	3018      	adds	r0, #24
    3c7a:	f001 fa34 	bl	50e6 <z_abort_timeout>
	__asm__ volatile(
    3c7e:	f04f 0320 	mov.w	r3, #32
    3c82:	f3ef 8611 	mrs	r6, BASEPRI
    3c86:	f383 8812 	msr	BASEPRI_MAX, r3
    3c8a:	f3bf 8f6f 	isb	sy
		if (z_is_thread_queued(thread)) {
    3c8e:	f994 200d 	ldrsb.w	r2, [r4, #13]
	return (thread->base.thread_state & state) != 0U;
    3c92:	7b63      	ldrb	r3, [r4, #13]
    3c94:	2a00      	cmp	r2, #0
    3c96:	da05      	bge.n	3ca4 <z_impl_k_thread_suspend+0x30>
	thread->base.thread_state &= ~_THREAD_QUEUED;
    3c98:	f003 037f 	and.w	r3, r3, #127	; 0x7f
    3c9c:	7363      	strb	r3, [r4, #13]
	sys_dlist_remove(&thread->base.qnode_dlist);
    3c9e:	4620      	mov	r0, r4
    3ca0:	f001 f97f 	bl	4fa2 <sys_dlist_remove>
		update_cache(thread == _current);
    3ca4:	4d0b      	ldr	r5, [pc, #44]	; (3cd4 <z_impl_k_thread_suspend+0x60>)
	thread->base.thread_state |= _THREAD_SUSPENDED;
    3ca6:	7b63      	ldrb	r3, [r4, #13]
    3ca8:	68a8      	ldr	r0, [r5, #8]
    3caa:	f043 0310 	orr.w	r3, r3, #16
    3cae:	7363      	strb	r3, [r4, #13]
    3cb0:	1b03      	subs	r3, r0, r4
    3cb2:	4258      	negs	r0, r3
    3cb4:	4158      	adcs	r0, r3
    3cb6:	f7ff fe53 	bl	3960 <update_cache>
	__asm__ volatile(
    3cba:	f386 8811 	msr	BASEPRI, r6
    3cbe:	f3bf 8f6f 	isb	sy
	if (thread == _current) {
    3cc2:	68ab      	ldr	r3, [r5, #8]
    3cc4:	42a3      	cmp	r3, r4
    3cc6:	d103      	bne.n	3cd0 <z_impl_k_thread_suspend+0x5c>
}
    3cc8:	e8bd 4070 	ldmia.w	sp!, {r4, r5, r6, lr}
		z_reschedule_unlocked();
    3ccc:	f001 b987 	b.w	4fde <z_reschedule_unlocked>
}
    3cd0:	bd70      	pop	{r4, r5, r6, pc}
    3cd2:	bf00      	nop
    3cd4:	20000970 	.word	0x20000970

00003cd8 <k_sched_unlock>:
{
    3cd8:	b510      	push	{r4, lr}
	__asm__ volatile(
    3cda:	f04f 0320 	mov.w	r3, #32
    3cde:	f3ef 8411 	mrs	r4, BASEPRI
    3ce2:	f383 8812 	msr	BASEPRI_MAX, r3
    3ce6:	f3bf 8f6f 	isb	sy
		++_current->base.sched_locked;
    3cea:	4b08      	ldr	r3, [pc, #32]	; (3d0c <k_sched_unlock+0x34>)
    3cec:	689a      	ldr	r2, [r3, #8]
    3cee:	7bd3      	ldrb	r3, [r2, #15]
    3cf0:	3301      	adds	r3, #1
    3cf2:	73d3      	strb	r3, [r2, #15]
		update_cache(0);
    3cf4:	2000      	movs	r0, #0
    3cf6:	f7ff fe33 	bl	3960 <update_cache>
	__asm__ volatile(
    3cfa:	f384 8811 	msr	BASEPRI, r4
    3cfe:	f3bf 8f6f 	isb	sy
}
    3d02:	e8bd 4010 	ldmia.w	sp!, {r4, lr}
	z_reschedule_unlocked();
    3d06:	f001 b96a 	b.w	4fde <z_reschedule_unlocked>
    3d0a:	bf00      	nop
    3d0c:	20000970 	.word	0x20000970

00003d10 <z_sched_init>:
	list->head = (sys_dnode_t *)list;
    3d10:	4b04      	ldr	r3, [pc, #16]	; (3d24 <z_sched_init+0x14>)
#else
	init_ready_q(&_kernel.ready_q);
#endif

#ifdef CONFIG_TIMESLICING
	k_sched_time_slice_set(CONFIG_TIMESLICE_SIZE,
    3d12:	2100      	movs	r1, #0
    3d14:	f103 0220 	add.w	r2, r3, #32
	list->tail = (sys_dnode_t *)list;
    3d18:	e9c3 2208 	strd	r2, r2, [r3, #32]
    3d1c:	4608      	mov	r0, r1
    3d1e:	f7ff bdc7 	b.w	38b0 <k_sched_time_slice_set>
    3d22:	bf00      	nop
    3d24:	20000970 	.word	0x20000970

00003d28 <z_impl_k_yield>:
#include <syscalls/k_thread_deadline_set_mrsh.c>
#endif
#endif

void z_impl_k_yield(void)
{
    3d28:	b5f8      	push	{r3, r4, r5, r6, r7, lr}
	__asm__ volatile(
    3d2a:	f04f 0320 	mov.w	r3, #32
    3d2e:	f3ef 8511 	mrs	r5, BASEPRI
    3d32:	f383 8812 	msr	BASEPRI_MAX, r3
    3d36:	f3bf 8f6f 	isb	sy

	k_spinlock_key_t key = k_spin_lock(&sched_spinlock);

	if (!IS_ENABLED(CONFIG_SMP) ||
	    z_is_thread_queued(_current)) {
		dequeue_thread(_current);
    3d3a:	491a      	ldr	r1, [pc, #104]	; (3da4 <z_impl_k_yield+0x7c>)
    3d3c:	6888      	ldr	r0, [r1, #8]
	thread->base.thread_state &= ~_THREAD_QUEUED;
    3d3e:	7b43      	ldrb	r3, [r0, #13]
    3d40:	f003 037f 	and.w	r3, r3, #127	; 0x7f
    3d44:	7343      	strb	r3, [r0, #13]
	sys_dlist_remove(&thread->base.qnode_dlist);
    3d46:	f001 f92c 	bl	4fa2 <sys_dlist_remove>
	}
	queue_thread(_current);
    3d4a:	688b      	ldr	r3, [r1, #8]
	thread->base.thread_state |= _THREAD_QUEUED;
    3d4c:	7b5a      	ldrb	r2, [r3, #13]
	return list->head == list;
    3d4e:	4608      	mov	r0, r1
    3d50:	f062 027f 	orn	r2, r2, #127	; 0x7f
    3d54:	735a      	strb	r2, [r3, #13]
    3d56:	f850 2f20 	ldr.w	r2, [r0, #32]!
	return sys_dlist_is_empty(list) ? NULL : list->head;
    3d5a:	4282      	cmp	r2, r0
    3d5c:	d01c      	beq.n	3d98 <z_impl_k_yield+0x70>
	SYS_DLIST_FOR_EACH_CONTAINER(pq, t, base.qnode_dlist) {
    3d5e:	b1da      	cbz	r2, 3d98 <z_impl_k_yield+0x70>
	return (node == list->tail) ? NULL : node->next;
    3d60:	6a4f      	ldr	r7, [r1, #36]	; 0x24
	int32_t b1 = thread_1->base.prio;
    3d62:	f993 600e 	ldrsb.w	r6, [r3, #14]
	int32_t b2 = thread_2->base.prio;
    3d66:	f992 400e 	ldrsb.w	r4, [r2, #14]
	if (b1 != b2) {
    3d6a:	42a6      	cmp	r6, r4
    3d6c:	d00f      	beq.n	3d8e <z_impl_k_yield+0x66>
		return b2 - b1;
    3d6e:	1ba4      	subs	r4, r4, r6
		if (z_sched_prio_cmp(thread, t) > 0) {
    3d70:	2c00      	cmp	r4, #0
    3d72:	dd0c      	ble.n	3d8e <z_impl_k_yield+0x66>
	sys_dnode_t *const prev = successor->prev;
    3d74:	6851      	ldr	r1, [r2, #4]
	node->next = successor;
    3d76:	e9c3 2100 	strd	r2, r1, [r3]
	prev->next = node;
    3d7a:	600b      	str	r3, [r1, #0]
	successor->prev = node;
    3d7c:	6053      	str	r3, [r2, #4]
	update_cache(1);
    3d7e:	2001      	movs	r0, #1
    3d80:	f7ff fdee 	bl	3960 <update_cache>
    3d84:	4628      	mov	r0, r5
	z_swap(&sched_spinlock, key);
}
    3d86:	e8bd 40f8 	ldmia.w	sp!, {r3, r4, r5, r6, r7, lr}
    3d8a:	f7fd ba9d 	b.w	12c8 <arch_swap>
	return (node == list->tail) ? NULL : node->next;
    3d8e:	42ba      	cmp	r2, r7
    3d90:	d002      	beq.n	3d98 <z_impl_k_yield+0x70>
    3d92:	6812      	ldr	r2, [r2, #0]
	SYS_DLIST_FOR_EACH_CONTAINER(pq, t, base.qnode_dlist) {
    3d94:	2a00      	cmp	r2, #0
    3d96:	d1e6      	bne.n	3d66 <z_impl_k_yield+0x3e>
	sys_dnode_t *const tail = list->tail;
    3d98:	6a4a      	ldr	r2, [r1, #36]	; 0x24
	node->prev = tail;
    3d9a:	e9c3 0200 	strd	r0, r2, [r3]
	tail->next = node;
    3d9e:	6013      	str	r3, [r2, #0]
	list->tail = node;
    3da0:	624b      	str	r3, [r1, #36]	; 0x24
}
    3da2:	e7ec      	b.n	3d7e <z_impl_k_yield+0x56>
    3da4:	20000970 	.word	0x20000970

00003da8 <z_tick_sleep>:
	 */
	LOG_DBG("thread %p for %u ticks", _current, ticks);
#endif

	/* wait of 0 ms is treated as a 'yield' */
	if (ticks == 0) {
    3da8:	ea50 0301 	orrs.w	r3, r0, r1
{
    3dac:	e92d 41f0 	stmdb	sp!, {r4, r5, r6, r7, r8, lr}
    3db0:	4605      	mov	r5, r0
    3db2:	460e      	mov	r6, r1
	if (ticks == 0) {
    3db4:	d103      	bne.n	3dbe <z_tick_sleep+0x16>
	z_impl_k_yield();
    3db6:	f7ff ffb7 	bl	3d28 <z_impl_k_yield>
	if (ticks > 0) {
		return ticks;
	}
#endif

	return 0;
    3dba:	2000      	movs	r0, #0
    3dbc:	e033      	b.n	3e26 <z_tick_sleep+0x7e>
	if (Z_TICK_ABS(ticks) <= 0) {
    3dbe:	f06f 0401 	mvn.w	r4, #1
    3dc2:	1a24      	subs	r4, r4, r0
    3dc4:	f04f 33ff 	mov.w	r3, #4294967295	; 0xffffffff
    3dc8:	eb63 0301 	sbc.w	r3, r3, r1
    3dcc:	2c01      	cmp	r4, #1
    3dce:	f173 0300 	sbcs.w	r3, r3, #0
    3dd2:	da02      	bge.n	3dda <z_tick_sleep+0x32>
		expected_wakeup_ticks = ticks + sys_clock_tick_get_32();
    3dd4:	f001 f9c7 	bl	5166 <sys_clock_tick_get_32>
    3dd8:	1944      	adds	r4, r0, r5
    3dda:	f04f 0320 	mov.w	r3, #32
    3dde:	f3ef 8811 	mrs	r8, BASEPRI
    3de2:	f383 8812 	msr	BASEPRI_MAX, r3
    3de6:	f3bf 8f6f 	isb	sy
	pending_current = _current;
    3dea:	4f10      	ldr	r7, [pc, #64]	; (3e2c <z_tick_sleep+0x84>)
    3dec:	4b10      	ldr	r3, [pc, #64]	; (3e30 <z_tick_sleep+0x88>)
    3dee:	68b8      	ldr	r0, [r7, #8]
    3df0:	6018      	str	r0, [r3, #0]
	unready_thread(_current);
    3df2:	f7ff fea5 	bl	3b40 <unready_thread>
	z_add_thread_timeout(_current, timeout);
    3df6:	68b8      	ldr	r0, [r7, #8]
	z_add_timeout(&thread->base.timeout, z_thread_timeout, ticks);
    3df8:	490e      	ldr	r1, [pc, #56]	; (3e34 <z_tick_sleep+0x8c>)
    3dfa:	462a      	mov	r2, r5
    3dfc:	4633      	mov	r3, r6
    3dfe:	3018      	adds	r0, #24
    3e00:	f000 f8f0 	bl	3fe4 <z_add_timeout>
	z_mark_thread_as_suspended(_current);
    3e04:	68ba      	ldr	r2, [r7, #8]
    3e06:	7b53      	ldrb	r3, [r2, #13]
    3e08:	f043 0310 	orr.w	r3, r3, #16
    3e0c:	7353      	strb	r3, [r2, #13]
    3e0e:	4640      	mov	r0, r8
    3e10:	f7fd fa5a 	bl	12c8 <arch_swap>
	ticks = (k_ticks_t)expected_wakeup_ticks - sys_clock_tick_get_32();
    3e14:	f001 f9a7 	bl	5166 <sys_clock_tick_get_32>
    3e18:	1a20      	subs	r0, r4, r0
    3e1a:	eb63 0303 	sbc.w	r3, r3, r3
	if (ticks > 0) {
    3e1e:	2801      	cmp	r0, #1
    3e20:	f173 0300 	sbcs.w	r3, r3, #0
    3e24:	dbc9      	blt.n	3dba <z_tick_sleep+0x12>
}
    3e26:	e8bd 81f0 	ldmia.w	sp!, {r4, r5, r6, r7, r8, pc}
    3e2a:	bf00      	nop
    3e2c:	20000970 	.word	0x20000970
    3e30:	20000998 	.word	0x20000998
    3e34:	0000501f 	.word	0x0000501f

00003e38 <z_impl_k_sleep>:
	__ASSERT(!arch_is_in_isr(), "");

	SYS_PORT_TRACING_FUNC_ENTER(k_thread, sleep, timeout);

	/* in case of K_FOREVER, we suspend */
	if (K_TIMEOUT_EQ(timeout, K_FOREVER)) {
    3e38:	f1b1 3fff 	cmp.w	r1, #4294967295	; 0xffffffff
    3e3c:	bf08      	it	eq
    3e3e:	f1b0 3fff 	cmpeq.w	r0, #4294967295	; 0xffffffff
{
    3e42:	b508      	push	{r3, lr}
	if (K_TIMEOUT_EQ(timeout, K_FOREVER)) {
    3e44:	d106      	bne.n	3e54 <z_impl_k_sleep+0x1c>
		k_thread_suspend(_current);
    3e46:	4b08      	ldr	r3, [pc, #32]	; (3e68 <z_impl_k_sleep+0x30>)
    3e48:	6898      	ldr	r0, [r3, #8]
	z_impl_k_thread_suspend(thread);
    3e4a:	f7ff ff13 	bl	3c74 <z_impl_k_thread_suspend>

		SYS_PORT_TRACING_FUNC_EXIT(k_thread, sleep, timeout, (int32_t) K_TICKS_FOREVER);

		return (int32_t) K_TICKS_FOREVER;
    3e4e:	f04f 30ff 	mov.w	r0, #4294967295	; 0xffffffff
	int32_t ret = k_ticks_to_ms_floor64(ticks);

	SYS_PORT_TRACING_FUNC_EXIT(k_thread, sleep, timeout, ret);

	return ret;
}
    3e52:	bd08      	pop	{r3, pc}
	ticks = z_tick_sleep(ticks);
    3e54:	f7ff ffa8 	bl	3da8 <z_tick_sleep>
			return ((t * to_hz + off) / from_hz);
    3e58:	f44f 737a 	mov.w	r3, #1000	; 0x3e8
    3e5c:	fb80 0303 	smull	r0, r3, r0, r3
    3e60:	0bc0      	lsrs	r0, r0, #15
    3e62:	ea40 4043 	orr.w	r0, r0, r3, lsl #17
	return ret;
    3e66:	e7f4      	b.n	3e52 <z_impl_k_sleep+0x1a>
    3e68:	20000970 	.word	0x20000970

00003e6c <z_impl_z_current_get>:

#ifdef CONFIG_SMP
	arch_irq_unlock(k);
#endif
	return ret;
}
    3e6c:	4b01      	ldr	r3, [pc, #4]	; (3e74 <z_impl_z_current_get+0x8>)
    3e6e:	6898      	ldr	r0, [r3, #8]
    3e70:	4770      	bx	lr
    3e72:	bf00      	nop
    3e74:	20000970 	.word	0x20000970

00003e78 <z_thread_abort>:
#endif
	}
}

void z_thread_abort(struct k_thread *thread)
{
    3e78:	e92d 41f0 	stmdb	sp!, {r4, r5, r6, r7, r8, lr}
    3e7c:	4604      	mov	r4, r0
    3e7e:	f04f 0320 	mov.w	r3, #32
    3e82:	f3ef 8611 	mrs	r6, BASEPRI
    3e86:	f383 8812 	msr	BASEPRI_MAX, r3
    3e8a:	f3bf 8f6f 	isb	sy
	k_spinlock_key_t key = k_spin_lock(&sched_spinlock);

	if ((thread->base.thread_state & _THREAD_DEAD) != 0U) {
    3e8e:	7b43      	ldrb	r3, [r0, #13]
    3e90:	071a      	lsls	r2, r3, #28
    3e92:	d505      	bpl.n	3ea0 <z_thread_abort+0x28>
	__asm__ volatile(
    3e94:	f386 8811 	msr	BASEPRI, r6
    3e98:	f3bf 8f6f 	isb	sy
	if (thread == _current && !arch_is_in_isr()) {
		z_swap(&sched_spinlock, key);
		__ASSERT(false, "aborted _current back from dead");
	}
	k_spin_unlock(&sched_spinlock, key);
}
    3e9c:	e8bd 81f0 	ldmia.w	sp!, {r4, r5, r6, r7, r8, pc}
		thread->base.thread_state &= ~_THREAD_ABORTING;
    3ea0:	f023 0220 	bic.w	r2, r3, #32
    3ea4:	f042 0108 	orr.w	r1, r2, #8
		if (z_is_thread_queued(thread)) {
    3ea8:	09d2      	lsrs	r2, r2, #7
    3eaa:	d120      	bne.n	3eee <z_thread_abort+0x76>
		thread->base.thread_state &= ~_THREAD_ABORTING;
    3eac:	7341      	strb	r1, [r0, #13]
		if (thread->base.pended_on != NULL) {
    3eae:	68a3      	ldr	r3, [r4, #8]
    3eb0:	b113      	cbz	r3, 3eb8 <z_thread_abort+0x40>
			unpend_thread_no_timeout(thread);
    3eb2:	4620      	mov	r0, r4
    3eb4:	f001 f87d 	bl	4fb2 <unpend_thread_no_timeout>
	return z_abort_timeout(&thread->base.timeout);
    3eb8:	f104 0018 	add.w	r0, r4, #24
    3ebc:	f001 f913 	bl	50e6 <z_abort_timeout>
}

static inline struct k_thread *z_waitq_head(_wait_q_t *w)
{
	return (struct k_thread *)sys_dlist_peek_head(&w->waitq);
    3ec0:	f104 0758 	add.w	r7, r4, #88	; 0x58
    3ec4:	f04f 0800 	mov.w	r8, #0
	return list->head == list;
    3ec8:	6da5      	ldr	r5, [r4, #88]	; 0x58
	return sys_dlist_is_empty(list) ? NULL : list->head;
    3eca:	42bd      	cmp	r5, r7
    3ecc:	d000      	beq.n	3ed0 <z_thread_abort+0x58>
	while ((thread = z_waitq_head(wait_q)) != NULL) {
    3ece:	b9b5      	cbnz	r5, 3efe <z_thread_abort+0x86>
		update_cache(1);
    3ed0:	2001      	movs	r0, #1
    3ed2:	f7ff fd45 	bl	3960 <update_cache>
	if (thread == _current && !arch_is_in_isr()) {
    3ed6:	4b10      	ldr	r3, [pc, #64]	; (3f18 <z_thread_abort+0xa0>)
    3ed8:	689b      	ldr	r3, [r3, #8]
    3eda:	42a3      	cmp	r3, r4
    3edc:	d1da      	bne.n	3e94 <z_thread_abort+0x1c>
    3ede:	f3ef 8305 	mrs	r3, IPSR
    3ee2:	2b00      	cmp	r3, #0
    3ee4:	d1d6      	bne.n	3e94 <z_thread_abort+0x1c>
    3ee6:	4630      	mov	r0, r6
    3ee8:	f7fd f9ee 	bl	12c8 <arch_swap>
	return ret;
    3eec:	e7d2      	b.n	3e94 <z_thread_abort+0x1c>
	thread->base.thread_state &= ~_THREAD_QUEUED;
    3eee:	f003 035f 	and.w	r3, r3, #95	; 0x5f
    3ef2:	f043 0308 	orr.w	r3, r3, #8
    3ef6:	7343      	strb	r3, [r0, #13]
	sys_dlist_remove(&thread->base.qnode_dlist);
    3ef8:	f001 f853 	bl	4fa2 <sys_dlist_remove>
}
    3efc:	e7d7      	b.n	3eae <z_thread_abort+0x36>
		unpend_thread_no_timeout(thread);
    3efe:	4628      	mov	r0, r5
    3f00:	f001 f857 	bl	4fb2 <unpend_thread_no_timeout>
    3f04:	f105 0018 	add.w	r0, r5, #24
    3f08:	f001 f8ed 	bl	50e6 <z_abort_timeout>
    3f0c:	f8c5 8078 	str.w	r8, [r5, #120]	; 0x78
		ready_thread(thread);
    3f10:	4628      	mov	r0, r5
    3f12:	f7ff fdc1 	bl	3a98 <ready_thread>
    3f16:	e7d7      	b.n	3ec8 <z_thread_abort+0x50>
    3f18:	20000970 	.word	0x20000970

00003f1c <z_data_copy>:
 * @brief Copy the data section from ROM to RAM
 *
 * This routine copies the data section from ROM to RAM.
 */
void z_data_copy(void)
{
    3f1c:	b508      	push	{r3, lr}
	z_early_memcpy(&__data_region_start, &__data_region_load_start,
		       __data_region_end - __data_region_start);
    3f1e:	4806      	ldr	r0, [pc, #24]	; (3f38 <z_data_copy+0x1c>)
	z_early_memcpy(&__data_region_start, &__data_region_load_start,
    3f20:	4a06      	ldr	r2, [pc, #24]	; (3f3c <z_data_copy+0x20>)
    3f22:	4907      	ldr	r1, [pc, #28]	; (3f40 <z_data_copy+0x24>)
    3f24:	1a12      	subs	r2, r2, r0
    3f26:	f000 ffda 	bl	4ede <z_early_memcpy>
#else
	z_early_memcpy(&_app_smem_start, &_app_smem_rom_start,
		       _app_smem_end - _app_smem_start);
#endif /* CONFIG_STACK_CANARIES */
#endif /* CONFIG_USERSPACE */
}
    3f2a:	e8bd 4008 	ldmia.w	sp!, {r3, lr}
	z_early_memcpy(&__ramfunc_start, &__ramfunc_load_start,
    3f2e:	4a05      	ldr	r2, [pc, #20]	; (3f44 <z_data_copy+0x28>)
    3f30:	4905      	ldr	r1, [pc, #20]	; (3f48 <z_data_copy+0x2c>)
    3f32:	4806      	ldr	r0, [pc, #24]	; (3f4c <z_data_copy+0x30>)
    3f34:	f000 bfd3 	b.w	4ede <z_early_memcpy>
    3f38:	20000000 	.word	0x20000000
    3f3c:	200001a4 	.word	0x200001a4
    3f40:	00005724 	.word	0x00005724
    3f44:	00000000 	.word	0x00000000
    3f48:	00005724 	.word	0x00005724
    3f4c:	20000000 	.word	0x20000000

00003f50 <elapsed>:
	sys_dlist_remove(&t->node);
}

static int32_t elapsed(void)
{
	return announce_remaining == 0 ? sys_clock_elapsed() : 0U;
    3f50:	4b03      	ldr	r3, [pc, #12]	; (3f60 <elapsed+0x10>)
    3f52:	681b      	ldr	r3, [r3, #0]
    3f54:	b90b      	cbnz	r3, 3f5a <elapsed+0xa>
    3f56:	f7fe bbe7 	b.w	2728 <sys_clock_elapsed>
}
    3f5a:	2000      	movs	r0, #0
    3f5c:	4770      	bx	lr
    3f5e:	bf00      	nop
    3f60:	200009a4 	.word	0x200009a4

00003f64 <next_timeout>:
	return list->head == list;
    3f64:	4b10      	ldr	r3, [pc, #64]	; (3fa8 <next_timeout+0x44>)

static int32_t next_timeout(void)
{
    3f66:	b510      	push	{r4, lr}
    3f68:	681c      	ldr	r4, [r3, #0]
	return sys_dlist_is_empty(list) ? NULL : list->head;
    3f6a:	429c      	cmp	r4, r3
    3f6c:	bf08      	it	eq
    3f6e:	2400      	moveq	r4, #0
	struct _timeout *to = first();
	int32_t ticks_elapsed = elapsed();
    3f70:	f7ff ffee 	bl	3f50 <elapsed>
	int32_t ret;

	if ((to == NULL) ||
    3f74:	b1a4      	cbz	r4, 3fa0 <next_timeout+0x3c>
	    ((int64_t)(to->dticks - ticks_elapsed) > (int64_t)INT_MAX)) {
    3f76:	e9d4 3204 	ldrd	r3, r2, [r4, #16]
    3f7a:	1a1b      	subs	r3, r3, r0
    3f7c:	eb62 70e0 	sbc.w	r0, r2, r0, asr #31
	if ((to == NULL) ||
    3f80:	f1b3 4f00 	cmp.w	r3, #2147483648	; 0x80000000
    3f84:	f170 0200 	sbcs.w	r2, r0, #0
    3f88:	da0a      	bge.n	3fa0 <next_timeout+0x3c>
		ret = MAX_WAIT;
	} else {
		ret = MAX(0, to->dticks - ticks_elapsed);
    3f8a:	2800      	cmp	r0, #0
    3f8c:	bfac      	ite	ge
    3f8e:	4618      	movge	r0, r3
    3f90:	2000      	movlt	r0, #0
	}

#ifdef CONFIG_TIMESLICING
	if (_current_cpu->slice_ticks && _current_cpu->slice_ticks < ret) {
    3f92:	4b06      	ldr	r3, [pc, #24]	; (3fac <next_timeout+0x48>)
    3f94:	691b      	ldr	r3, [r3, #16]
    3f96:	b113      	cbz	r3, 3f9e <next_timeout+0x3a>
    3f98:	4298      	cmp	r0, r3
    3f9a:	bfa8      	it	ge
    3f9c:	4618      	movge	r0, r3
		ret = _current_cpu->slice_ticks;
	}
#endif
	return ret;
}
    3f9e:	bd10      	pop	{r4, pc}
		ret = MAX_WAIT;
    3fa0:	f06f 4000 	mvn.w	r0, #2147483648	; 0x80000000
    3fa4:	e7f5      	b.n	3f92 <next_timeout+0x2e>
    3fa6:	bf00      	nop
    3fa8:	200000d8 	.word	0x200000d8
    3fac:	20000970 	.word	0x20000970

00003fb0 <remove_timeout>:
{
    3fb0:	b530      	push	{r4, r5, lr}
	return (node == list->tail) ? NULL : node->next;
    3fb2:	6803      	ldr	r3, [r0, #0]
	return (node != NULL) ? sys_dlist_peek_next_no_check(list, node) : NULL;
    3fb4:	b168      	cbz	r0, 3fd2 <remove_timeout+0x22>
	return (node == list->tail) ? NULL : node->next;
    3fb6:	4a0a      	ldr	r2, [pc, #40]	; (3fe0 <remove_timeout+0x30>)
    3fb8:	6852      	ldr	r2, [r2, #4]
    3fba:	4290      	cmp	r0, r2
    3fbc:	d009      	beq.n	3fd2 <remove_timeout+0x22>
	if (next(t) != NULL) {
    3fbe:	b143      	cbz	r3, 3fd2 <remove_timeout+0x22>
		next(t)->dticks += t->dticks;
    3fc0:	e9d3 2104 	ldrd	r2, r1, [r3, #16]
    3fc4:	e9d0 4504 	ldrd	r4, r5, [r0, #16]
    3fc8:	1912      	adds	r2, r2, r4
    3fca:	eb41 0105 	adc.w	r1, r1, r5
    3fce:	e9c3 2104 	strd	r2, r1, [r3, #16]
 * @param node the node to remove
 */

static inline void sys_dlist_remove(sys_dnode_t *node)
{
	sys_dnode_t *const prev = node->prev;
    3fd2:	6842      	ldr	r2, [r0, #4]
	sys_dnode_t *const next = node->next;

	prev->next = next;
    3fd4:	6013      	str	r3, [r2, #0]
	next->prev = prev;
    3fd6:	605a      	str	r2, [r3, #4]
	node->next = NULL;
    3fd8:	2300      	movs	r3, #0
	node->prev = NULL;
    3fda:	e9c0 3300 	strd	r3, r3, [r0]
}
    3fde:	bd30      	pop	{r4, r5, pc}
    3fe0:	200000d8 	.word	0x200000d8

00003fe4 <z_add_timeout>:

void z_add_timeout(struct _timeout *to, _timeout_func_t fn,
		   k_timeout_t timeout)
{
	if (K_TIMEOUT_EQ(timeout, K_FOREVER)) {
    3fe4:	f1b3 3fff 	cmp.w	r3, #4294967295	; 0xffffffff
    3fe8:	bf08      	it	eq
    3fea:	f1b2 3fff 	cmpeq.w	r2, #4294967295	; 0xffffffff
{
    3fee:	b5f8      	push	{r3, r4, r5, r6, r7, lr}
    3ff0:	4604      	mov	r4, r0
    3ff2:	461f      	mov	r7, r3
    3ff4:	4615      	mov	r5, r2
	if (K_TIMEOUT_EQ(timeout, K_FOREVER)) {
    3ff6:	d067      	beq.n	40c8 <z_add_timeout+0xe4>
#ifdef CONFIG_KERNEL_COHERENCE
	__ASSERT_NO_MSG(arch_mem_coherent(to));
#endif

	__ASSERT(!sys_dnode_is_linked(&to->node), "");
	to->fn = fn;
    3ff8:	6081      	str	r1, [r0, #8]
	__asm__ volatile(
    3ffa:	f04f 0320 	mov.w	r3, #32
    3ffe:	f3ef 8611 	mrs	r6, BASEPRI
    4002:	f383 8812 	msr	BASEPRI_MAX, r3
    4006:	f3bf 8f6f 	isb	sy

	LOCKED(&timeout_lock) {
		struct _timeout *t;

		if (IS_ENABLED(CONFIG_TIMEOUT_64BIT) &&
		    Z_TICK_ABS(timeout.ticks) >= 0) {
    400a:	f06f 0201 	mvn.w	r2, #1
    400e:	1b53      	subs	r3, r2, r5
    4010:	f04f 3cff 	mov.w	ip, #4294967295	; 0xffffffff
    4014:	eb6c 0307 	sbc.w	r3, ip, r7
		if (IS_ENABLED(CONFIG_TIMEOUT_64BIT) &&
    4018:	2b00      	cmp	r3, #0
    401a:	db1b      	blt.n	4054 <z_add_timeout+0x70>
			k_ticks_t ticks = Z_TICK_ABS(timeout.ticks) - curr_tick;
    401c:	4b2b      	ldr	r3, [pc, #172]	; (40cc <z_add_timeout+0xe8>)
    401e:	e9d3 1300 	ldrd	r1, r3, [r3]
    4022:	1a52      	subs	r2, r2, r1
    4024:	eb6c 0303 	sbc.w	r3, ip, r3
    4028:	1b55      	subs	r5, r2, r5

			to->dticks = MAX(1, ticks);
    402a:	eb63 0307 	sbc.w	r3, r3, r7
    402e:	2d01      	cmp	r5, #1
    4030:	f173 0200 	sbcs.w	r2, r3, #0
    4034:	bfbc      	itt	lt
    4036:	2501      	movlt	r5, #1
    4038:	2300      	movlt	r3, #0
    403a:	e9c0 5304 	strd	r5, r3, [r0, #16]
	return list->head == list;
    403e:	4824      	ldr	r0, [pc, #144]	; (40d0 <z_add_timeout+0xec>)
	sys_dnode_t *const tail = list->tail;
    4040:	e9d0 3c00 	ldrd	r3, ip, [r0]
	return sys_dlist_is_empty(list) ? NULL : list->head;
    4044:	4283      	cmp	r3, r0
    4046:	d118      	bne.n	407a <z_add_timeout+0x96>
	node->prev = tail;
    4048:	e9c4 0c00 	strd	r0, ip, [r4]
	tail->next = node;
    404c:	f8cc 4000 	str.w	r4, [ip]
	list->tail = node;
    4050:	6044      	str	r4, [r0, #4]
}
    4052:	e026      	b.n	40a2 <z_add_timeout+0xbe>
		} else {
			to->dticks = timeout.ticks + 1 + elapsed();
    4054:	f7ff ff7c 	bl	3f50 <elapsed>
    4058:	3501      	adds	r5, #1
    405a:	f147 0700 	adc.w	r7, r7, #0
    405e:	182d      	adds	r5, r5, r0
    4060:	eb47 77e0 	adc.w	r7, r7, r0, asr #31
    4064:	e9c4 5704 	strd	r5, r7, [r4, #16]
    4068:	e7e9      	b.n	403e <z_add_timeout+0x5a>
			if (t->dticks > to->dticks) {
				t->dticks -= to->dticks;
				sys_dlist_insert(&t->node, &to->node);
				break;
			}
			to->dticks -= t->dticks;
    406a:	1a52      	subs	r2, r2, r1
    406c:	eb65 0507 	sbc.w	r5, r5, r7
	return (node == list->tail) ? NULL : node->next;
    4070:	459c      	cmp	ip, r3
    4072:	e9c4 2504 	strd	r2, r5, [r4, #16]
    4076:	d0e7      	beq.n	4048 <z_add_timeout+0x64>
    4078:	681b      	ldr	r3, [r3, #0]
		for (t = first(); t != NULL; t = next(t)) {
    407a:	2b00      	cmp	r3, #0
    407c:	d0e4      	beq.n	4048 <z_add_timeout+0x64>
			if (t->dticks > to->dticks) {
    407e:	e9d3 1704 	ldrd	r1, r7, [r3, #16]
    4082:	e9d4 2504 	ldrd	r2, r5, [r4, #16]
    4086:	428a      	cmp	r2, r1
    4088:	eb75 0e07 	sbcs.w	lr, r5, r7
    408c:	daed      	bge.n	406a <z_add_timeout+0x86>
				t->dticks -= to->dticks;
    408e:	1a8a      	subs	r2, r1, r2
    4090:	eb67 0505 	sbc.w	r5, r7, r5
    4094:	e9c3 2504 	strd	r2, r5, [r3, #16]
	sys_dnode_t *const prev = successor->prev;
    4098:	685a      	ldr	r2, [r3, #4]
	node->next = successor;
    409a:	e9c4 3200 	strd	r3, r2, [r4]
	prev->next = node;
    409e:	6014      	str	r4, [r2, #0]
	successor->prev = node;
    40a0:	605c      	str	r4, [r3, #4]
	return list->head == list;
    40a2:	6803      	ldr	r3, [r0, #0]
	return sys_dlist_is_empty(list) ? NULL : list->head;
    40a4:	4283      	cmp	r3, r0
    40a6:	d00b      	beq.n	40c0 <z_add_timeout+0xdc>

		if (t == NULL) {
			sys_dlist_append(&timeout_list, &to->node);
		}

		if (to == first()) {
    40a8:	429c      	cmp	r4, r3
    40aa:	d109      	bne.n	40c0 <z_add_timeout+0xdc>
			 * last announcement, and slice_ticks is based
			 * on that. It means that the time remaining for
			 * the next announcement can be less than
			 * slice_ticks.
			 */
			int32_t next_time = next_timeout();
    40ac:	f7ff ff5a 	bl	3f64 <next_timeout>

			if (next_time == 0 ||
    40b0:	b118      	cbz	r0, 40ba <z_add_timeout+0xd6>
			    _current_cpu->slice_ticks != next_time) {
    40b2:	4b08      	ldr	r3, [pc, #32]	; (40d4 <z_add_timeout+0xf0>)
			if (next_time == 0 ||
    40b4:	691b      	ldr	r3, [r3, #16]
    40b6:	4283      	cmp	r3, r0
    40b8:	d002      	beq.n	40c0 <z_add_timeout+0xdc>
				sys_clock_set_timeout(next_time, false);
    40ba:	2100      	movs	r1, #0
    40bc:	f7fe fb02 	bl	26c4 <sys_clock_set_timeout>
	__asm__ volatile(
    40c0:	f386 8811 	msr	BASEPRI, r6
    40c4:	f3bf 8f6f 	isb	sy
#else
			sys_clock_set_timeout(next_timeout(), false);
#endif	/* CONFIG_TIMESLICING */
		}
	}
}
    40c8:	bdf8      	pop	{r3, r4, r5, r6, r7, pc}
    40ca:	bf00      	nop
    40cc:	200002c8 	.word	0x200002c8
    40d0:	200000d8 	.word	0x200000d8
    40d4:	20000970 	.word	0x20000970

000040d8 <sys_clock_announce>:
		}
	}
}

void sys_clock_announce(int32_t ticks)
{
    40d8:	e92d 43f8 	stmdb	sp!, {r3, r4, r5, r6, r7, r8, r9, lr}
    40dc:	4605      	mov	r5, r0
#ifdef CONFIG_TIMESLICING
	z_time_slice(ticks);
    40de:	f7ff fc99 	bl	3a14 <z_time_slice>
	__asm__ volatile(
    40e2:	f04f 0320 	mov.w	r3, #32
    40e6:	f3ef 8411 	mrs	r4, BASEPRI
    40ea:	f383 8812 	msr	BASEPRI_MAX, r3
    40ee:	f3bf 8f6f 	isb	sy
		announce_remaining += ticks;
		k_spin_unlock(&timeout_lock, key);
		return;
	}

	announce_remaining = ticks;
    40f2:	4e24      	ldr	r6, [pc, #144]	; (4184 <sys_clock_announce+0xac>)
	return list->head == list;
    40f4:	f8df 8090 	ldr.w	r8, [pc, #144]	; 4188 <sys_clock_announce+0xb0>
    40f8:	6035      	str	r5, [r6, #0]

	while (first() != NULL && first()->dticks <= announce_remaining) {
		struct _timeout *t = first();
		int dt = t->dticks;

		curr_tick += dt;
    40fa:	4d24      	ldr	r5, [pc, #144]	; (418c <sys_clock_announce+0xb4>)
    40fc:	f8d8 0000 	ldr.w	r0, [r8]
	while (first() != NULL && first()->dticks <= announce_remaining) {
    4100:	6832      	ldr	r2, [r6, #0]
	return sys_dlist_is_empty(list) ? NULL : list->head;
    4102:	4540      	cmp	r0, r8
		curr_tick += dt;
    4104:	e9d5 1e00 	ldrd	r1, lr, [r5]
    4108:	ea4f 77e2 	mov.w	r7, r2, asr #31
    410c:	d00b      	beq.n	4126 <sys_clock_announce+0x4e>
	while (first() != NULL && first()->dticks <= announce_remaining) {
    410e:	b150      	cbz	r0, 4126 <sys_clock_announce+0x4e>
    4110:	e9d0 3c04 	ldrd	r3, ip, [r0, #16]
    4114:	429a      	cmp	r2, r3
    4116:	eb77 090c 	sbcs.w	r9, r7, ip
    411a:	da16      	bge.n	414a <sys_clock_announce+0x72>
		t->fn(t);
		key = k_spin_lock(&timeout_lock);
	}

	if (first() != NULL) {
		first()->dticks -= announce_remaining;
    411c:	1a9b      	subs	r3, r3, r2
    411e:	eb6c 0c07 	sbc.w	ip, ip, r7
    4122:	e9c0 3c04 	strd	r3, ip, [r0, #16]
	}

	curr_tick += announce_remaining;
    4126:	1852      	adds	r2, r2, r1
    4128:	eb4e 0707 	adc.w	r7, lr, r7
    412c:	e9c5 2700 	strd	r2, r7, [r5]
	announce_remaining = 0;
    4130:	2500      	movs	r5, #0
    4132:	6035      	str	r5, [r6, #0]

	sys_clock_set_timeout(next_timeout(), false);
    4134:	f7ff ff16 	bl	3f64 <next_timeout>
    4138:	4629      	mov	r1, r5
    413a:	f7fe fac3 	bl	26c4 <sys_clock_set_timeout>
	__asm__ volatile(
    413e:	f384 8811 	msr	BASEPRI, r4
    4142:	f3bf 8f6f 	isb	sy

	k_spin_unlock(&timeout_lock, key);
}
    4146:	e8bd 83f8 	ldmia.w	sp!, {r3, r4, r5, r6, r7, r8, r9, pc}
		curr_tick += dt;
    414a:	1859      	adds	r1, r3, r1
    414c:	eb4e 77e3 	adc.w	r7, lr, r3, asr #31
		announce_remaining -= dt;
    4150:	1ad3      	subs	r3, r2, r3
    4152:	6033      	str	r3, [r6, #0]
		t->dticks = 0;
    4154:	2200      	movs	r2, #0
    4156:	2300      	movs	r3, #0
    4158:	e9c0 2304 	strd	r2, r3, [r0, #16]
		curr_tick += dt;
    415c:	e9c5 1700 	strd	r1, r7, [r5]
		remove_timeout(t);
    4160:	f7ff ff26 	bl	3fb0 <remove_timeout>
    4164:	f384 8811 	msr	BASEPRI, r4
    4168:	f3bf 8f6f 	isb	sy
		t->fn(t);
    416c:	6883      	ldr	r3, [r0, #8]
    416e:	4798      	blx	r3
	__asm__ volatile(
    4170:	f04f 0320 	mov.w	r3, #32
    4174:	f3ef 8411 	mrs	r4, BASEPRI
    4178:	f383 8812 	msr	BASEPRI_MAX, r3
    417c:	f3bf 8f6f 	isb	sy
#endif

#ifdef CONFIG_SPIN_VALIDATE
	z_spin_lock_set_owner(l);
#endif
	return k;
    4180:	e7bc      	b.n	40fc <sys_clock_announce+0x24>
    4182:	bf00      	nop
    4184:	200009a4 	.word	0x200009a4
    4188:	200000d8 	.word	0x200000d8
    418c:	200002c8 	.word	0x200002c8

00004190 <sys_clock_tick_get>:

int64_t sys_clock_tick_get(void)
{
    4190:	b510      	push	{r4, lr}
    4192:	f04f 0320 	mov.w	r3, #32
    4196:	f3ef 8411 	mrs	r4, BASEPRI
    419a:	f383 8812 	msr	BASEPRI_MAX, r3
    419e:	f3bf 8f6f 	isb	sy
	uint64_t t = 0U;

	LOCKED(&timeout_lock) {
		t = curr_tick + sys_clock_elapsed();
    41a2:	f7fe fac1 	bl	2728 <sys_clock_elapsed>
    41a6:	4a05      	ldr	r2, [pc, #20]	; (41bc <sys_clock_tick_get+0x2c>)
    41a8:	e9d2 3100 	ldrd	r3, r1, [r2]
    41ac:	18c0      	adds	r0, r0, r3
    41ae:	f141 0100 	adc.w	r1, r1, #0
	__asm__ volatile(
    41b2:	f384 8811 	msr	BASEPRI, r4
    41b6:	f3bf 8f6f 	isb	sy
	}
	return t;
}
    41ba:	bd10      	pop	{r4, pc}
    41bc:	200002c8 	.word	0x200002c8

000041c0 <boot_banner>:
		k_busy_wait(CONFIG_BOOT_DELAY * USEC_PER_MSEC);
	}

#if defined(CONFIG_BOOT_BANNER)
#ifdef BUILD_VERSION
	printk("*** Booting Zephyr OS build %s %s ***\n",
    41c0:	4a02      	ldr	r2, [pc, #8]	; (41cc <boot_banner+0xc>)
    41c2:	4903      	ldr	r1, [pc, #12]	; (41d0 <boot_banner+0x10>)
    41c4:	4803      	ldr	r0, [pc, #12]	; (41d4 <boot_banner+0x14>)
    41c6:	f000 b9fe 	b.w	45c6 <printk>
    41ca:	bf00      	nop
    41cc:	00005722 	.word	0x00005722
    41d0:	000056ef 	.word	0x000056ef
    41d4:	000056fc 	.word	0x000056fc

000041d8 <nrf_cc3xx_platform_init_no_rng>:
    41d8:	b510      	push	{r4, lr}
    41da:	4c0a      	ldr	r4, [pc, #40]	; (4204 <nrf_cc3xx_platform_init_no_rng+0x2c>)
    41dc:	6823      	ldr	r3, [r4, #0]
    41de:	b11b      	cbz	r3, 41e8 <nrf_cc3xx_platform_init_no_rng+0x10>
    41e0:	2301      	movs	r3, #1
    41e2:	6023      	str	r3, [r4, #0]
    41e4:	2000      	movs	r0, #0
    41e6:	bd10      	pop	{r4, pc}
    41e8:	f000 f8ce 	bl	4388 <CC_LibInitNoRng>
    41ec:	2800      	cmp	r0, #0
    41ee:	d0f7      	beq.n	41e0 <nrf_cc3xx_platform_init_no_rng+0x8>
    41f0:	3801      	subs	r0, #1
    41f2:	2806      	cmp	r0, #6
    41f4:	d803      	bhi.n	41fe <nrf_cc3xx_platform_init_no_rng+0x26>
    41f6:	4b04      	ldr	r3, [pc, #16]	; (4208 <nrf_cc3xx_platform_init_no_rng+0x30>)
    41f8:	f853 0020 	ldr.w	r0, [r3, r0, lsl #2]
    41fc:	bd10      	pop	{r4, pc}
    41fe:	4803      	ldr	r0, [pc, #12]	; (420c <nrf_cc3xx_platform_init_no_rng+0x34>)
    4200:	bd10      	pop	{r4, pc}
    4202:	bf00      	nop
    4204:	200009a8 	.word	0x200009a8
    4208:	00005564 	.word	0x00005564
    420c:	ffff8ffe 	.word	0xffff8ffe

00004210 <nrf_cc3xx_platform_abort>:
    4210:	f3bf 8f4f 	dsb	sy
    4214:	4905      	ldr	r1, [pc, #20]	; (422c <nrf_cc3xx_platform_abort+0x1c>)
    4216:	4b06      	ldr	r3, [pc, #24]	; (4230 <nrf_cc3xx_platform_abort+0x20>)
    4218:	68ca      	ldr	r2, [r1, #12]
    421a:	f402 62e0 	and.w	r2, r2, #1792	; 0x700
    421e:	4313      	orrs	r3, r2
    4220:	60cb      	str	r3, [r1, #12]
    4222:	f3bf 8f4f 	dsb	sy
    4226:	bf00      	nop
    4228:	e7fd      	b.n	4226 <nrf_cc3xx_platform_abort+0x16>
    422a:	bf00      	nop
    422c:	e000ed00 	.word	0xe000ed00
    4230:	05fa0004 	.word	0x05fa0004

00004234 <CC_PalAbort>:
    4234:	b410      	push	{r4}
    4236:	4b09      	ldr	r3, [pc, #36]	; (425c <CC_PalAbort+0x28>)
    4238:	4909      	ldr	r1, [pc, #36]	; (4260 <CC_PalAbort+0x2c>)
    423a:	4c0a      	ldr	r4, [pc, #40]	; (4264 <CC_PalAbort+0x30>)
    423c:	f04f 32fe 	mov.w	r2, #4278124286	; 0xfefefefe
    4240:	f8c3 2400 	str.w	r2, [r3, #1024]	; 0x400
    4244:	6849      	ldr	r1, [r1, #4]
    4246:	f8c3 2404 	str.w	r2, [r3, #1028]	; 0x404
    424a:	f8c3 2408 	str.w	r2, [r3, #1032]	; 0x408
    424e:	f8c3 240c 	str.w	r2, [r3, #1036]	; 0x40c
    4252:	2300      	movs	r3, #0
    4254:	f8c4 3500 	str.w	r3, [r4, #1280]	; 0x500
    4258:	bc10      	pop	{r4}
    425a:	4708      	bx	r1
    425c:	5002b000 	.word	0x5002b000
    4260:	200000e0 	.word	0x200000e0
    4264:	5002a000 	.word	0x5002a000

00004268 <nrf_cc3xx_platform_set_abort>:
    4268:	e9d0 1200 	ldrd	r1, r2, [r0]
    426c:	4b01      	ldr	r3, [pc, #4]	; (4274 <nrf_cc3xx_platform_set_abort+0xc>)
    426e:	e9c3 1200 	strd	r1, r2, [r3]
    4272:	4770      	bx	lr
    4274:	200000e0 	.word	0x200000e0

00004278 <mutex_free>:
    4278:	b510      	push	{r4, lr}
    427a:	4604      	mov	r4, r0
    427c:	b130      	cbz	r0, 428c <mutex_free+0x14>
    427e:	6863      	ldr	r3, [r4, #4]
    4280:	06db      	lsls	r3, r3, #27
    4282:	d502      	bpl.n	428a <mutex_free+0x12>
    4284:	2300      	movs	r3, #0
    4286:	6023      	str	r3, [r4, #0]
    4288:	6063      	str	r3, [r4, #4]
    428a:	bd10      	pop	{r4, pc}
    428c:	4b02      	ldr	r3, [pc, #8]	; (4298 <mutex_free+0x20>)
    428e:	4803      	ldr	r0, [pc, #12]	; (429c <mutex_free+0x24>)
    4290:	685b      	ldr	r3, [r3, #4]
    4292:	4798      	blx	r3
    4294:	e7f3      	b.n	427e <mutex_free+0x6>
    4296:	bf00      	nop
    4298:	200000e0 	.word	0x200000e0
    429c:	00005580 	.word	0x00005580

000042a0 <mutex_lock>:
    42a0:	b1b0      	cbz	r0, 42d0 <mutex_lock+0x30>
    42a2:	6843      	ldr	r3, [r0, #4]
    42a4:	b193      	cbz	r3, 42cc <mutex_lock+0x2c>
    42a6:	06db      	lsls	r3, r3, #27
    42a8:	d50e      	bpl.n	42c8 <mutex_lock+0x28>
    42aa:	2301      	movs	r3, #1
    42ac:	e850 2f00 	ldrex	r2, [r0]
    42b0:	4619      	mov	r1, r3
    42b2:	e840 1c00 	strex	ip, r1, [r0]
    42b6:	f09c 0f00 	teq	ip, #0
    42ba:	d1f7      	bne.n	42ac <mutex_lock+0xc>
    42bc:	2a01      	cmp	r2, #1
    42be:	d0f5      	beq.n	42ac <mutex_lock+0xc>
    42c0:	f3bf 8f5f 	dmb	sy
    42c4:	2000      	movs	r0, #0
    42c6:	4770      	bx	lr
    42c8:	4803      	ldr	r0, [pc, #12]	; (42d8 <mutex_lock+0x38>)
    42ca:	4770      	bx	lr
    42cc:	4803      	ldr	r0, [pc, #12]	; (42dc <mutex_lock+0x3c>)
    42ce:	4770      	bx	lr
    42d0:	f46f 40e0 	mvn.w	r0, #28672	; 0x7000
    42d4:	4770      	bx	lr
    42d6:	bf00      	nop
    42d8:	ffff8fe9 	.word	0xffff8fe9
    42dc:	ffff8fea 	.word	0xffff8fea

000042e0 <mutex_unlock>:
    42e0:	b168      	cbz	r0, 42fe <mutex_unlock+0x1e>
    42e2:	6843      	ldr	r3, [r0, #4]
    42e4:	b13b      	cbz	r3, 42f6 <mutex_unlock+0x16>
    42e6:	06db      	lsls	r3, r3, #27
    42e8:	d507      	bpl.n	42fa <mutex_unlock+0x1a>
    42ea:	f3bf 8f5f 	dmb	sy
    42ee:	2300      	movs	r3, #0
    42f0:	6003      	str	r3, [r0, #0]
    42f2:	4618      	mov	r0, r3
    42f4:	4770      	bx	lr
    42f6:	4803      	ldr	r0, [pc, #12]	; (4304 <mutex_unlock+0x24>)
    42f8:	4770      	bx	lr
    42fa:	4803      	ldr	r0, [pc, #12]	; (4308 <mutex_unlock+0x28>)
    42fc:	4770      	bx	lr
    42fe:	f46f 40e0 	mvn.w	r0, #28672	; 0x7000
    4302:	4770      	bx	lr
    4304:	ffff8fea 	.word	0xffff8fea
    4308:	ffff8fe9 	.word	0xffff8fe9

0000430c <mutex_init>:
    430c:	b510      	push	{r4, lr}
    430e:	4604      	mov	r4, r0
    4310:	b120      	cbz	r0, 431c <mutex_init+0x10>
    4312:	2200      	movs	r2, #0
    4314:	2311      	movs	r3, #17
    4316:	6022      	str	r2, [r4, #0]
    4318:	6063      	str	r3, [r4, #4]
    431a:	bd10      	pop	{r4, pc}
    431c:	4801      	ldr	r0, [pc, #4]	; (4324 <mutex_init+0x18>)
    431e:	f7ff ff89 	bl	4234 <CC_PalAbort>
    4322:	e7f6      	b.n	4312 <mutex_init+0x6>
    4324:	000055a8 	.word	0x000055a8

00004328 <nrf_cc3xx_platform_set_mutexes>:
    4328:	b570      	push	{r4, r5, r6, lr}
    432a:	e9d0 2300 	ldrd	r2, r3, [r0]
    432e:	4c13      	ldr	r4, [pc, #76]	; (437c <nrf_cc3xx_platform_set_mutexes+0x54>)
    4330:	4d13      	ldr	r5, [pc, #76]	; (4380 <nrf_cc3xx_platform_set_mutexes+0x58>)
    4332:	6063      	str	r3, [r4, #4]
    4334:	e9d0 3002 	ldrd	r3, r0, [r0, #8]
    4338:	e9c4 3002 	strd	r3, r0, [r4, #8]
    433c:	6022      	str	r2, [r4, #0]
    433e:	4b11      	ldr	r3, [pc, #68]	; (4384 <nrf_cc3xx_platform_set_mutexes+0x5c>)
    4340:	6808      	ldr	r0, [r1, #0]
    4342:	6018      	str	r0, [r3, #0]
    4344:	6848      	ldr	r0, [r1, #4]
    4346:	6058      	str	r0, [r3, #4]
    4348:	6888      	ldr	r0, [r1, #8]
    434a:	6098      	str	r0, [r3, #8]
    434c:	e9d1 0103 	ldrd	r0, r1, [r1, #12]
    4350:	60d8      	str	r0, [r3, #12]
    4352:	6119      	str	r1, [r3, #16]
    4354:	f8d5 3118 	ldr.w	r3, [r5, #280]	; 0x118
    4358:	06db      	lsls	r3, r3, #27
    435a:	d50d      	bpl.n	4378 <nrf_cc3xx_platform_set_mutexes+0x50>
    435c:	2300      	movs	r3, #0
    435e:	e9c5 3345 	strd	r3, r3, [r5, #276]	; 0x114
    4362:	e9c5 336e 	strd	r3, r3, [r5, #440]	; 0x1b8
    4366:	f505 708a 	add.w	r0, r5, #276	; 0x114
    436a:	4790      	blx	r2
    436c:	6823      	ldr	r3, [r4, #0]
    436e:	f505 70dc 	add.w	r0, r5, #440	; 0x1b8
    4372:	e8bd 4070 	ldmia.w	sp!, {r4, r5, r6, lr}
    4376:	4718      	bx	r3
    4378:	bd70      	pop	{r4, r5, r6, pc}
    437a:	bf00      	nop
    437c:	200000f0 	.word	0x200000f0
    4380:	200009c0 	.word	0x200009c0
    4384:	20000100 	.word	0x20000100

00004388 <CC_LibInitNoRng>:
    4388:	b538      	push	{r3, r4, r5, lr}
    438a:	f000 f82f 	bl	43ec <CC_HalInit>
    438e:	b120      	cbz	r0, 439a <CC_LibInitNoRng+0x12>
    4390:	2403      	movs	r4, #3
    4392:	f000 f863 	bl	445c <CC_PalTerminate>
    4396:	4620      	mov	r0, r4
    4398:	bd38      	pop	{r3, r4, r5, pc}
    439a:	f000 f831 	bl	4400 <CC_PalInit>
    439e:	b998      	cbnz	r0, 43c8 <CC_LibInitNoRng+0x40>
    43a0:	f000 f8ac 	bl	44fc <CC_PalPowerSaveModeSelect>
    43a4:	b998      	cbnz	r0, 43ce <CC_LibInitNoRng+0x46>
    43a6:	4d0f      	ldr	r5, [pc, #60]	; (43e4 <CC_LibInitNoRng+0x5c>)
    43a8:	f8d5 3928 	ldr.w	r3, [r5, #2344]	; 0x928
    43ac:	0e1b      	lsrs	r3, r3, #24
    43ae:	2bf0      	cmp	r3, #240	; 0xf0
    43b0:	d108      	bne.n	43c4 <CC_LibInitNoRng+0x3c>
    43b2:	f8d5 2a24 	ldr.w	r2, [r5, #2596]	; 0xa24
    43b6:	4b0c      	ldr	r3, [pc, #48]	; (43e8 <CC_LibInitNoRng+0x60>)
    43b8:	429a      	cmp	r2, r3
    43ba:	d00a      	beq.n	43d2 <CC_LibInitNoRng+0x4a>
    43bc:	2407      	movs	r4, #7
    43be:	f000 f817 	bl	43f0 <CC_HalTerminate>
    43c2:	e7e6      	b.n	4392 <CC_LibInitNoRng+0xa>
    43c4:	2406      	movs	r4, #6
    43c6:	e7fa      	b.n	43be <CC_LibInitNoRng+0x36>
    43c8:	2404      	movs	r4, #4
    43ca:	4620      	mov	r0, r4
    43cc:	bd38      	pop	{r3, r4, r5, pc}
    43ce:	2400      	movs	r4, #0
    43d0:	e7f5      	b.n	43be <CC_LibInitNoRng+0x36>
    43d2:	2001      	movs	r0, #1
    43d4:	f000 f892 	bl	44fc <CC_PalPowerSaveModeSelect>
    43d8:	4604      	mov	r4, r0
    43da:	2800      	cmp	r0, #0
    43dc:	d1f7      	bne.n	43ce <CC_LibInitNoRng+0x46>
    43de:	f8c5 0a0c 	str.w	r0, [r5, #2572]	; 0xa0c
    43e2:	e7d8      	b.n	4396 <CC_LibInitNoRng+0xe>
    43e4:	5002b000 	.word	0x5002b000
    43e8:	20e00000 	.word	0x20e00000

000043ec <CC_HalInit>:
    43ec:	2000      	movs	r0, #0
    43ee:	4770      	bx	lr

000043f0 <CC_HalTerminate>:
    43f0:	2000      	movs	r0, #0
    43f2:	4770      	bx	lr

000043f4 <CC_HalMaskInterrupt>:
    43f4:	4b01      	ldr	r3, [pc, #4]	; (43fc <CC_HalMaskInterrupt+0x8>)
    43f6:	f8c3 0a04 	str.w	r0, [r3, #2564]	; 0xa04
    43fa:	4770      	bx	lr
    43fc:	5002b000 	.word	0x5002b000

00004400 <CC_PalInit>:
    4400:	b510      	push	{r4, lr}
    4402:	4811      	ldr	r0, [pc, #68]	; (4448 <CC_PalInit+0x48>)
    4404:	f000 f848 	bl	4498 <CC_PalMutexCreate>
    4408:	b100      	cbz	r0, 440c <CC_PalInit+0xc>
    440a:	bd10      	pop	{r4, pc}
    440c:	480f      	ldr	r0, [pc, #60]	; (444c <CC_PalInit+0x4c>)
    440e:	f000 f843 	bl	4498 <CC_PalMutexCreate>
    4412:	2800      	cmp	r0, #0
    4414:	d1f9      	bne.n	440a <CC_PalInit+0xa>
    4416:	4c0e      	ldr	r4, [pc, #56]	; (4450 <CC_PalInit+0x50>)
    4418:	4620      	mov	r0, r4
    441a:	f000 f83d 	bl	4498 <CC_PalMutexCreate>
    441e:	2800      	cmp	r0, #0
    4420:	d1f3      	bne.n	440a <CC_PalInit+0xa>
    4422:	4b0c      	ldr	r3, [pc, #48]	; (4454 <CC_PalInit+0x54>)
    4424:	480c      	ldr	r0, [pc, #48]	; (4458 <CC_PalInit+0x58>)
    4426:	601c      	str	r4, [r3, #0]
    4428:	f000 f836 	bl	4498 <CC_PalMutexCreate>
    442c:	4601      	mov	r1, r0
    442e:	2800      	cmp	r0, #0
    4430:	d1eb      	bne.n	440a <CC_PalInit+0xa>
    4432:	f000 f82d 	bl	4490 <CC_PalDmaInit>
    4436:	4604      	mov	r4, r0
    4438:	b108      	cbz	r0, 443e <CC_PalInit+0x3e>
    443a:	4620      	mov	r0, r4
    443c:	bd10      	pop	{r4, pc}
    443e:	f000 f83f 	bl	44c0 <CC_PalPowerSaveModeInit>
    4442:	4620      	mov	r0, r4
    4444:	e7fa      	b.n	443c <CC_PalInit+0x3c>
    4446:	bf00      	nop
    4448:	20000138 	.word	0x20000138
    444c:	2000012c 	.word	0x2000012c
    4450:	20000134 	.word	0x20000134
    4454:	2000013c 	.word	0x2000013c
    4458:	20000130 	.word	0x20000130

0000445c <CC_PalTerminate>:
    445c:	b508      	push	{r3, lr}
    445e:	4808      	ldr	r0, [pc, #32]	; (4480 <CC_PalTerminate+0x24>)
    4460:	f000 f824 	bl	44ac <CC_PalMutexDestroy>
    4464:	4807      	ldr	r0, [pc, #28]	; (4484 <CC_PalTerminate+0x28>)
    4466:	f000 f821 	bl	44ac <CC_PalMutexDestroy>
    446a:	4807      	ldr	r0, [pc, #28]	; (4488 <CC_PalTerminate+0x2c>)
    446c:	f000 f81e 	bl	44ac <CC_PalMutexDestroy>
    4470:	4806      	ldr	r0, [pc, #24]	; (448c <CC_PalTerminate+0x30>)
    4472:	f000 f81b 	bl	44ac <CC_PalMutexDestroy>
    4476:	e8bd 4008 	ldmia.w	sp!, {r3, lr}
    447a:	f000 b80b 	b.w	4494 <CC_PalDmaTerminate>
    447e:	bf00      	nop
    4480:	20000138 	.word	0x20000138
    4484:	2000012c 	.word	0x2000012c
    4488:	20000134 	.word	0x20000134
    448c:	20000130 	.word	0x20000130

00004490 <CC_PalDmaInit>:
    4490:	2000      	movs	r0, #0
    4492:	4770      	bx	lr

00004494 <CC_PalDmaTerminate>:
    4494:	4770      	bx	lr
    4496:	bf00      	nop

00004498 <CC_PalMutexCreate>:
    4498:	b508      	push	{r3, lr}
    449a:	4b03      	ldr	r3, [pc, #12]	; (44a8 <CC_PalMutexCreate+0x10>)
    449c:	6802      	ldr	r2, [r0, #0]
    449e:	681b      	ldr	r3, [r3, #0]
    44a0:	6810      	ldr	r0, [r2, #0]
    44a2:	4798      	blx	r3
    44a4:	2000      	movs	r0, #0
    44a6:	bd08      	pop	{r3, pc}
    44a8:	200000f0 	.word	0x200000f0

000044ac <CC_PalMutexDestroy>:
    44ac:	b508      	push	{r3, lr}
    44ae:	4b03      	ldr	r3, [pc, #12]	; (44bc <CC_PalMutexDestroy+0x10>)
    44b0:	6802      	ldr	r2, [r0, #0]
    44b2:	685b      	ldr	r3, [r3, #4]
    44b4:	6810      	ldr	r0, [r2, #0]
    44b6:	4798      	blx	r3
    44b8:	2000      	movs	r0, #0
    44ba:	bd08      	pop	{r3, pc}
    44bc:	200000f0 	.word	0x200000f0

000044c0 <CC_PalPowerSaveModeInit>:
    44c0:	b570      	push	{r4, r5, r6, lr}
    44c2:	4c09      	ldr	r4, [pc, #36]	; (44e8 <CC_PalPowerSaveModeInit+0x28>)
    44c4:	4d09      	ldr	r5, [pc, #36]	; (44ec <CC_PalPowerSaveModeInit+0x2c>)
    44c6:	6920      	ldr	r0, [r4, #16]
    44c8:	68ab      	ldr	r3, [r5, #8]
    44ca:	4798      	blx	r3
    44cc:	b118      	cbz	r0, 44d6 <CC_PalPowerSaveModeInit+0x16>
    44ce:	4b08      	ldr	r3, [pc, #32]	; (44f0 <CC_PalPowerSaveModeInit+0x30>)
    44d0:	4808      	ldr	r0, [pc, #32]	; (44f4 <CC_PalPowerSaveModeInit+0x34>)
    44d2:	685b      	ldr	r3, [r3, #4]
    44d4:	4798      	blx	r3
    44d6:	4a08      	ldr	r2, [pc, #32]	; (44f8 <CC_PalPowerSaveModeInit+0x38>)
    44d8:	68eb      	ldr	r3, [r5, #12]
    44da:	6920      	ldr	r0, [r4, #16]
    44dc:	2100      	movs	r1, #0
    44de:	6011      	str	r1, [r2, #0]
    44e0:	e8bd 4070 	ldmia.w	sp!, {r4, r5, r6, lr}
    44e4:	4718      	bx	r3
    44e6:	bf00      	nop
    44e8:	20000100 	.word	0x20000100
    44ec:	200000f0 	.word	0x200000f0
    44f0:	200000e0 	.word	0x200000e0
    44f4:	000055cc 	.word	0x000055cc
    44f8:	200009bc 	.word	0x200009bc

000044fc <CC_PalPowerSaveModeSelect>:
    44fc:	b570      	push	{r4, r5, r6, lr}
    44fe:	4d1b      	ldr	r5, [pc, #108]	; (456c <CC_PalPowerSaveModeSelect+0x70>)
    4500:	4e1b      	ldr	r6, [pc, #108]	; (4570 <CC_PalPowerSaveModeSelect+0x74>)
    4502:	4604      	mov	r4, r0
    4504:	68b2      	ldr	r2, [r6, #8]
    4506:	6928      	ldr	r0, [r5, #16]
    4508:	4790      	blx	r2
    450a:	b9f8      	cbnz	r0, 454c <CC_PalPowerSaveModeSelect+0x50>
    450c:	b15c      	cbz	r4, 4526 <CC_PalPowerSaveModeSelect+0x2a>
    450e:	4c19      	ldr	r4, [pc, #100]	; (4574 <CC_PalPowerSaveModeSelect+0x78>)
    4510:	6823      	ldr	r3, [r4, #0]
    4512:	b1b3      	cbz	r3, 4542 <CC_PalPowerSaveModeSelect+0x46>
    4514:	2b01      	cmp	r3, #1
    4516:	d01b      	beq.n	4550 <CC_PalPowerSaveModeSelect+0x54>
    4518:	3b01      	subs	r3, #1
    451a:	6023      	str	r3, [r4, #0]
    451c:	6928      	ldr	r0, [r5, #16]
    451e:	68f3      	ldr	r3, [r6, #12]
    4520:	4798      	blx	r3
    4522:	2000      	movs	r0, #0
    4524:	bd70      	pop	{r4, r5, r6, pc}
    4526:	4c13      	ldr	r4, [pc, #76]	; (4574 <CC_PalPowerSaveModeSelect+0x78>)
    4528:	6821      	ldr	r1, [r4, #0]
    452a:	b941      	cbnz	r1, 453e <CC_PalPowerSaveModeSelect+0x42>
    452c:	4b12      	ldr	r3, [pc, #72]	; (4578 <CC_PalPowerSaveModeSelect+0x7c>)
    452e:	2201      	movs	r2, #1
    4530:	f8c3 2500 	str.w	r2, [r3, #1280]	; 0x500
    4534:	4a11      	ldr	r2, [pc, #68]	; (457c <CC_PalPowerSaveModeSelect+0x80>)
    4536:	f8d2 3910 	ldr.w	r3, [r2, #2320]	; 0x910
    453a:	2b00      	cmp	r3, #0
    453c:	d1fb      	bne.n	4536 <CC_PalPowerSaveModeSelect+0x3a>
    453e:	3101      	adds	r1, #1
    4540:	6021      	str	r1, [r4, #0]
    4542:	68f3      	ldr	r3, [r6, #12]
    4544:	6928      	ldr	r0, [r5, #16]
    4546:	4798      	blx	r3
    4548:	2000      	movs	r0, #0
    454a:	bd70      	pop	{r4, r5, r6, pc}
    454c:	480c      	ldr	r0, [pc, #48]	; (4580 <CC_PalPowerSaveModeSelect+0x84>)
    454e:	bd70      	pop	{r4, r5, r6, pc}
    4550:	4a0a      	ldr	r2, [pc, #40]	; (457c <CC_PalPowerSaveModeSelect+0x80>)
    4552:	f8d2 3910 	ldr.w	r3, [r2, #2320]	; 0x910
    4556:	2b00      	cmp	r3, #0
    4558:	d1fb      	bne.n	4552 <CC_PalPowerSaveModeSelect+0x56>
    455a:	4a07      	ldr	r2, [pc, #28]	; (4578 <CC_PalPowerSaveModeSelect+0x7c>)
    455c:	f06f 407e 	mvn.w	r0, #4261412864	; 0xfe000000
    4560:	f8c2 3500 	str.w	r3, [r2, #1280]	; 0x500
    4564:	f7ff ff46 	bl	43f4 <CC_HalMaskInterrupt>
    4568:	6823      	ldr	r3, [r4, #0]
    456a:	e7d5      	b.n	4518 <CC_PalPowerSaveModeSelect+0x1c>
    456c:	20000100 	.word	0x20000100
    4570:	200000f0 	.word	0x200000f0
    4574:	200009bc 	.word	0x200009bc
    4578:	5002a000 	.word	0x5002a000
    457c:	5002b000 	.word	0x5002b000
    4580:	ffff8fe9 	.word	0xffff8fe9

00004584 <_OffsetAbsSyms>:

#include <gen_offset.h>

#include "offsets_aarch32.c"

GEN_ABS_SYM_END
    4584:	4770      	bx	lr

00004586 <sys_notify_validate>:

int sys_notify_validate(struct sys_notify *notify)
{
	int rv = 0;

	if (notify == NULL) {
    4586:	4603      	mov	r3, r0
    4588:	b158      	cbz	r0, 45a2 <sys_notify_validate+0x1c>
	uint32_t method = notify->flags >> SYS_NOTIFY_METHOD_POS;
    458a:	6842      	ldr	r2, [r0, #4]
	return method & SYS_NOTIFY_METHOD_MASK;
    458c:	f002 0203 	and.w	r2, r2, #3
		return -EINVAL;
	}

	/* Validate configuration based on mode */
	switch (sys_notify_get_method(notify)) {
    4590:	2a01      	cmp	r2, #1
    4592:	d003      	beq.n	459c <sys_notify_validate+0x16>
    4594:	2a03      	cmp	r2, #3
    4596:	d104      	bne.n	45a2 <sys_notify_validate+0x1c>
	case SYS_NOTIFY_METHOD_SPINWAIT:
		break;
	case SYS_NOTIFY_METHOD_CALLBACK:
		if (notify->method.callback == NULL) {
    4598:	6802      	ldr	r2, [r0, #0]
    459a:	b112      	cbz	r2, 45a2 <sys_notify_validate+0x1c>
		break;
	}

	/* Clear the result here instead of in all callers. */
	if (rv == 0) {
		notify->result = 0;
    459c:	2000      	movs	r0, #0
    459e:	6098      	str	r0, [r3, #8]
    45a0:	4770      	bx	lr
		return -EINVAL;
    45a2:	f06f 0015 	mvn.w	r0, #21
	}

	return rv;
}
    45a6:	4770      	bx	lr

000045a8 <sys_notify_finalize>:
	uint32_t method = notify->flags >> SYS_NOTIFY_METHOD_POS;
    45a8:	6842      	ldr	r2, [r0, #4]
	uint32_t method = sys_notify_get_method(notify);

	/* Store the result and capture secondary notification
	 * information.
	 */
	notify->result = res;
    45aa:	6081      	str	r1, [r0, #8]
	return method & SYS_NOTIFY_METHOD_MASK;
    45ac:	f002 0203 	and.w	r2, r2, #3
	switch (method) {
    45b0:	2a03      	cmp	r2, #3
    45b2:	f04f 0200 	mov.w	r2, #0
{
    45b6:	4603      	mov	r3, r0
	case SYS_NOTIFY_METHOD_SPINWAIT:
		break;
	case SYS_NOTIFY_METHOD_CALLBACK:
		rv = notify->method.callback;
    45b8:	bf0c      	ite	eq
    45ba:	6800      	ldreq	r0, [r0, #0]
	sys_notify_generic_callback rv = NULL;
    45bc:	4610      	movne	r0, r2
	/* Mark completion by clearing the flags field to the
	 * completed state, releasing any spin-waiters, then complete
	 * secondary notification.
	 */
	compiler_barrier();
	notify->flags = SYS_NOTIFY_METHOD_COMPLETED;
    45be:	605a      	str	r2, [r3, #4]
	if (IS_ENABLED(CONFIG_POLL) && (sig != NULL)) {
		k_poll_signal_raise(sig, res);
	}

	return rv;
}
    45c0:	4770      	bx	lr

000045c2 <arch_printk_char_out>:
}
    45c2:	2000      	movs	r0, #0
    45c4:	4770      	bx	lr

000045c6 <printk>:
 *
 * @param fmt formatted string to output
 */

void printk(const char *fmt, ...)
{
    45c6:	b40f      	push	{r0, r1, r2, r3}
    45c8:	b507      	push	{r0, r1, r2, lr}
    45ca:	a904      	add	r1, sp, #16
    45cc:	f851 0b04 	ldr.w	r0, [r1], #4
	va_list ap;

	va_start(ap, fmt);
    45d0:	9101      	str	r1, [sp, #4]

	vprintk(fmt, ap);
    45d2:	f7fb ff19 	bl	408 <vprintk>

	va_end(ap);
}
    45d6:	b003      	add	sp, #12
    45d8:	f85d eb04 	ldr.w	lr, [sp], #4
    45dc:	b004      	add	sp, #16
    45de:	4770      	bx	lr

000045e0 <process_recheck>:
	uint32_t state = mgr->flags & ONOFF_STATE_MASK;
    45e0:	8b03      	ldrh	r3, [r0, #24]
	if ((state == ONOFF_STATE_OFF)
    45e2:	f013 0307 	ands.w	r3, r3, #7
    45e6:	d105      	bne.n	45f4 <process_recheck+0x14>
	    && !sys_slist_is_empty(&mgr->clients)) {
    45e8:	6803      	ldr	r3, [r0, #0]
		evt = EVT_START;
    45ea:	2b00      	cmp	r3, #0
    45ec:	bf0c      	ite	eq
    45ee:	2000      	moveq	r0, #0
    45f0:	2003      	movne	r0, #3
    45f2:	4770      	bx	lr
	} else if ((state == ONOFF_STATE_ON)
    45f4:	2b02      	cmp	r3, #2
    45f6:	d105      	bne.n	4604 <process_recheck+0x24>
		   && (mgr->refs == 0U)) {
    45f8:	8b43      	ldrh	r3, [r0, #26]
		evt = EVT_STOP;
    45fa:	2b00      	cmp	r3, #0
    45fc:	bf14      	ite	ne
    45fe:	2000      	movne	r0, #0
    4600:	2004      	moveq	r0, #4
    4602:	4770      	bx	lr
	} else if ((state == ONOFF_STATE_ERROR)
    4604:	2b01      	cmp	r3, #1
    4606:	d105      	bne.n	4614 <process_recheck+0x34>
		   && !sys_slist_is_empty(&mgr->clients)) {
    4608:	6803      	ldr	r3, [r0, #0]
		evt = EVT_RESET;
    460a:	2b00      	cmp	r3, #0
    460c:	bf0c      	ite	eq
    460e:	2000      	moveq	r0, #0
    4610:	2005      	movne	r0, #5
    4612:	4770      	bx	lr
	int evt = EVT_NOP;
    4614:	2000      	movs	r0, #0
}
    4616:	4770      	bx	lr

00004618 <notify_one>:
{
    4618:	e92d 41f0 	stmdb	sp!, {r4, r5, r6, r7, r8, lr}
    461c:	460d      	mov	r5, r1
    461e:	4607      	mov	r7, r0
		(onoff_client_callback)sys_notify_finalize(&cli->notify, res);
    4620:	4619      	mov	r1, r3
    4622:	1d28      	adds	r0, r5, #4
{
    4624:	4690      	mov	r8, r2
    4626:	461e      	mov	r6, r3
		(onoff_client_callback)sys_notify_finalize(&cli->notify, res);
    4628:	f7ff ffbe 	bl	45a8 <sys_notify_finalize>
	if (cb) {
    462c:	4604      	mov	r4, r0
    462e:	b138      	cbz	r0, 4640 <notify_one+0x28>
		cb(mgr, cli, state, res);
    4630:	4633      	mov	r3, r6
    4632:	4642      	mov	r2, r8
    4634:	4629      	mov	r1, r5
    4636:	4638      	mov	r0, r7
    4638:	46a4      	mov	ip, r4
}
    463a:	e8bd 41f0 	ldmia.w	sp!, {r4, r5, r6, r7, r8, lr}
		cb(mgr, cli, state, res);
    463e:	4760      	bx	ip
}
    4640:	e8bd 81f0 	ldmia.w	sp!, {r4, r5, r6, r7, r8, pc}

00004644 <transition_complete>:
{
    4644:	b410      	push	{r4}
	__asm__ volatile(
    4646:	f04f 0420 	mov.w	r4, #32
    464a:	f3ef 8211 	mrs	r2, BASEPRI
    464e:	f384 8812 	msr	BASEPRI_MAX, r4
    4652:	f3bf 8f6f 	isb	sy
	mgr->last_res = res;
    4656:	6141      	str	r1, [r0, #20]
}
    4658:	bc10      	pop	{r4}
	process_event(mgr, EVT_COMPLETE, key);
    465a:	2101      	movs	r1, #1
    465c:	f7fb bee2 	b.w	424 <process_event>

00004660 <validate_args>:
{
    4660:	b510      	push	{r4, lr}
    4662:	460c      	mov	r4, r1
	if ((mgr == NULL) || (cli == NULL)) {
    4664:	b140      	cbz	r0, 4678 <validate_args+0x18>
    4666:	b139      	cbz	r1, 4678 <validate_args+0x18>
	int rv = sys_notify_validate(&cli->notify);
    4668:	1d08      	adds	r0, r1, #4
    466a:	f7ff ff8c 	bl	4586 <sys_notify_validate>
	if ((rv == 0)
    466e:	b928      	cbnz	r0, 467c <validate_args+0x1c>
	    && ((cli->notify.flags
    4670:	68a3      	ldr	r3, [r4, #8]
    4672:	f033 0303 	bics.w	r3, r3, #3
    4676:	d001      	beq.n	467c <validate_args+0x1c>
		rv = -EINVAL;
    4678:	f06f 0015 	mvn.w	r0, #21
}
    467c:	bd10      	pop	{r4, pc}

0000467e <onoff_manager_init>:
{
    467e:	b538      	push	{r3, r4, r5, lr}
    4680:	460c      	mov	r4, r1
	if ((mgr == NULL)
    4682:	4605      	mov	r5, r0
    4684:	b158      	cbz	r0, 469e <onoff_manager_init+0x20>
	    || (transitions == NULL)
    4686:	b151      	cbz	r1, 469e <onoff_manager_init+0x20>
	    || (transitions->start == NULL)
    4688:	680b      	ldr	r3, [r1, #0]
    468a:	b143      	cbz	r3, 469e <onoff_manager_init+0x20>
	    || (transitions->stop == NULL)) {
    468c:	684b      	ldr	r3, [r1, #4]
    468e:	b133      	cbz	r3, 469e <onoff_manager_init+0x20>
	*mgr = (struct onoff_manager)ONOFF_MANAGER_INITIALIZER(transitions);
    4690:	221c      	movs	r2, #28
    4692:	2100      	movs	r1, #0
    4694:	f000 f8f0 	bl	4878 <memset>
    4698:	612c      	str	r4, [r5, #16]
	return 0;
    469a:	2000      	movs	r0, #0
}
    469c:	bd38      	pop	{r3, r4, r5, pc}
		return -EINVAL;
    469e:	f06f 0015 	mvn.w	r0, #21
    46a2:	e7fb      	b.n	469c <onoff_manager_init+0x1e>

000046a4 <onoff_request>:

int onoff_request(struct onoff_manager *mgr,
		  struct onoff_client *cli)
{
    46a4:	b570      	push	{r4, r5, r6, lr}
    46a6:	4604      	mov	r4, r0
    46a8:	460e      	mov	r6, r1
	bool add_client = false;        /* add client to pending list */
	bool start = false;             /* trigger a start transition */
	bool notify = false;            /* do client notification */
	int rv = validate_args(mgr, cli);
    46aa:	f7ff ffd9 	bl	4660 <validate_args>

	if (rv < 0) {
    46ae:	1e05      	subs	r5, r0, #0
    46b0:	db31      	blt.n	4716 <onoff_request+0x72>
    46b2:	f04f 0320 	mov.w	r3, #32
    46b6:	f3ef 8111 	mrs	r1, BASEPRI
    46ba:	f383 8812 	msr	BASEPRI_MAX, r3
    46be:	f3bf 8f6f 	isb	sy

	k_spinlock_key_t key = k_spin_lock(&mgr->lock);
	uint32_t state = mgr->flags & ONOFF_STATE_MASK;

	/* Reject if this would overflow the reference count. */
	if (mgr->refs == SERVICE_REFS_MAX) {
    46c2:	8b63      	ldrh	r3, [r4, #26]
	uint32_t state = mgr->flags & ONOFF_STATE_MASK;
    46c4:	8b20      	ldrh	r0, [r4, #24]
	if (mgr->refs == SERVICE_REFS_MAX) {
    46c6:	f64f 75ff 	movw	r5, #65535	; 0xffff
    46ca:	42ab      	cmp	r3, r5
    46cc:	f000 0207 	and.w	r2, r0, #7
    46d0:	d02e      	beq.n	4730 <onoff_request+0x8c>
		rv = -EAGAIN;
		goto out;
	}

	rv = state;
	if (state == ONOFF_STATE_ON) {
    46d2:	2a02      	cmp	r2, #2
    46d4:	d10e      	bne.n	46f4 <onoff_request+0x50>
		/* Increment reference count, notify in exit */
		notify = true;
		mgr->refs += 1U;
    46d6:	3301      	adds	r3, #1
    46d8:	8363      	strh	r3, [r4, #26]
	rv = state;
    46da:	4615      	mov	r5, r2
		notify = true;
    46dc:	2301      	movs	r3, #1
	__asm__ volatile(
    46de:	f381 8811 	msr	BASEPRI, r1
    46e2:	f3bf 8f6f 	isb	sy
	if (start) {
		process_event(mgr, EVT_RECHECK, key);
	} else {
		k_spin_unlock(&mgr->lock, key);

		if (notify) {
    46e6:	b1b3      	cbz	r3, 4716 <onoff_request+0x72>
			notify_one(mgr, cli, state, 0);
    46e8:	2300      	movs	r3, #0
    46ea:	4631      	mov	r1, r6
    46ec:	4620      	mov	r0, r4
    46ee:	f7ff ff93 	bl	4618 <notify_one>
    46f2:	e010      	b.n	4716 <onoff_request+0x72>
	} else if ((state == ONOFF_STATE_OFF)
    46f4:	0783      	lsls	r3, r0, #30
    46f6:	d001      	beq.n	46fc <onoff_request+0x58>
		   || (state == ONOFF_STATE_TO_ON)) {
    46f8:	2a06      	cmp	r2, #6
    46fa:	d10e      	bne.n	471a <onoff_request+0x76>
	parent->next = child;
    46fc:	2300      	movs	r3, #0
    46fe:	6033      	str	r3, [r6, #0]
 *
 * @return A pointer on the last node of the list (or NULL if none)
 */
static inline sys_snode_t *sys_slist_peek_tail(sys_slist_t *list)
{
	return list->tail;
    4700:	6863      	ldr	r3, [r4, #4]
 * @param node A pointer on the node to append
 */
static inline void sys_slist_append(sys_slist_t *list,
				    sys_snode_t *node);

Z_GENLIST_APPEND(slist, snode)
    4702:	b993      	cbnz	r3, 472a <onoff_request+0x86>
	list->head = node;
    4704:	e9c4 6600 	strd	r6, r6, [r4]
	if (start) {
    4708:	4615      	mov	r5, r2
    470a:	b962      	cbnz	r2, 4726 <onoff_request+0x82>
		process_event(mgr, EVT_RECHECK, key);
    470c:	460a      	mov	r2, r1
    470e:	4620      	mov	r0, r4
    4710:	2102      	movs	r1, #2
    4712:	f7fb fe87 	bl	424 <process_event>
		}
	}

	return rv;
}
    4716:	4628      	mov	r0, r5
    4718:	bd70      	pop	{r4, r5, r6, pc}
		rv = -EIO;
    471a:	2a05      	cmp	r2, #5
    471c:	bf0c      	ite	eq
    471e:	f06f 0585 	mvneq.w	r5, #133	; 0x85
    4722:	f06f 0504 	mvnne.w	r5, #4
    4726:	2300      	movs	r3, #0
    4728:	e7d9      	b.n	46de <onoff_request+0x3a>
	parent->next = child;
    472a:	601e      	str	r6, [r3, #0]
	list->tail = node;
    472c:	6066      	str	r6, [r4, #4]
}
    472e:	e7eb      	b.n	4708 <onoff_request+0x64>
		rv = -EAGAIN;
    4730:	f06f 050a 	mvn.w	r5, #10
    4734:	e7f7      	b.n	4726 <onoff_request+0x82>

00004736 <z_thread_entry>:
 * This routine does not return, and is marked as such so the compiler won't
 * generate preamble code that is only used by functions that actually return.
 */
FUNC_NORETURN void z_thread_entry(k_thread_entry_t entry,
				 void *p1, void *p2, void *p3)
{
    4736:	4604      	mov	r4, r0
    4738:	b508      	push	{r3, lr}
    473a:	4608      	mov	r0, r1
    473c:	4611      	mov	r1, r2
#ifdef CONFIG_THREAD_LOCAL_STORAGE
	z_tls_current = z_current_get();
#endif
	entry(p1, p2, p3);
    473e:	461a      	mov	r2, r3
    4740:	47a0      	blx	r4
	return z_impl_z_current_get();
    4742:	f7ff fb93 	bl	3e6c <z_impl_z_current_get>
	z_impl_k_thread_abort(thread);
    4746:	f7fd f803 	bl	1750 <z_impl_k_thread_abort>

0000474a <encode_uint>:
{
    474a:	e92d 4ff8 	stmdb	sp!, {r3, r4, r5, r6, r7, r8, r9, sl, fp, lr}
    474e:	469a      	mov	sl, r3
	bool upcase = isupper((int)conv->specifier);
    4750:	78d3      	ldrb	r3, [r2, #3]
	switch (specifier) {
    4752:	2b6f      	cmp	r3, #111	; 0x6f
{
    4754:	4680      	mov	r8, r0
    4756:	460f      	mov	r7, r1
    4758:	4615      	mov	r5, r2
	return (int)(((unsigned)(a)-(unsigned)'A') < 26U);
    475a:	f1a3 0b41 	sub.w	fp, r3, #65	; 0x41
	switch (specifier) {
    475e:	d029      	beq.n	47b4 <encode_uint+0x6a>
    4760:	d824      	bhi.n	47ac <encode_uint+0x62>
		return 16;
    4762:	2b58      	cmp	r3, #88	; 0x58
    4764:	bf14      	ite	ne
    4766:	260a      	movne	r6, #10
    4768:	2610      	moveq	r6, #16
	char *bp = bps + (bpe - bps);
    476a:	f8dd 9028 	ldr.w	r9, [sp, #40]	; 0x28
		unsigned int lsv = (unsigned int)(value % radix);
    476e:	4632      	mov	r2, r6
    4770:	2300      	movs	r3, #0
    4772:	4640      	mov	r0, r8
    4774:	4639      	mov	r1, r7
    4776:	f7fb fcc3 	bl	100 <__aeabi_uldivmod>
		*--bp = (lsv <= 9) ? ('0' + lsv)
    477a:	2a09      	cmp	r2, #9
    477c:	b2d4      	uxtb	r4, r2
    477e:	d81e      	bhi.n	47be <encode_uint+0x74>
    4780:	3430      	adds	r4, #48	; 0x30
	} while ((value != 0) && (bps < bp));
    4782:	45b0      	cmp	r8, r6
		*--bp = (lsv <= 9) ? ('0' + lsv)
    4784:	b2e4      	uxtb	r4, r4
	} while ((value != 0) && (bps < bp));
    4786:	f177 0300 	sbcs.w	r3, r7, #0
		*--bp = (lsv <= 9) ? ('0' + lsv)
    478a:	f809 4d01 	strb.w	r4, [r9, #-1]!
	} while ((value != 0) && (bps < bp));
    478e:	d301      	bcc.n	4794 <encode_uint+0x4a>
    4790:	45d1      	cmp	r9, sl
    4792:	d811      	bhi.n	47b8 <encode_uint+0x6e>
	if (conv->flag_hash) {
    4794:	782b      	ldrb	r3, [r5, #0]
    4796:	069b      	lsls	r3, r3, #26
    4798:	d505      	bpl.n	47a6 <encode_uint+0x5c>
		if (radix == 8) {
    479a:	2e08      	cmp	r6, #8
    479c:	d115      	bne.n	47ca <encode_uint+0x80>
			conv->altform_0 = true;
    479e:	78ab      	ldrb	r3, [r5, #2]
    47a0:	f043 0308 	orr.w	r3, r3, #8
			conv->altform_0c = true;
    47a4:	70ab      	strb	r3, [r5, #2]
}
    47a6:	4648      	mov	r0, r9
    47a8:	e8bd 8ff8 	ldmia.w	sp!, {r3, r4, r5, r6, r7, r8, r9, sl, fp, pc}
	switch (specifier) {
    47ac:	f003 03f7 	and.w	r3, r3, #247	; 0xf7
		return 16;
    47b0:	2b70      	cmp	r3, #112	; 0x70
    47b2:	e7d7      	b.n	4764 <encode_uint+0x1a>
	switch (specifier) {
    47b4:	2608      	movs	r6, #8
    47b6:	e7d8      	b.n	476a <encode_uint+0x20>
		value /= radix;
    47b8:	4680      	mov	r8, r0
    47ba:	460f      	mov	r7, r1
    47bc:	e7d7      	b.n	476e <encode_uint+0x24>
		*--bp = (lsv <= 9) ? ('0' + lsv)
    47be:	f1bb 0f19 	cmp.w	fp, #25
    47c2:	bf94      	ite	ls
    47c4:	3437      	addls	r4, #55	; 0x37
    47c6:	3457      	addhi	r4, #87	; 0x57
    47c8:	e7db      	b.n	4782 <encode_uint+0x38>
		} else if (radix == 16) {
    47ca:	2e10      	cmp	r6, #16
    47cc:	d1eb      	bne.n	47a6 <encode_uint+0x5c>
			conv->altform_0c = true;
    47ce:	78ab      	ldrb	r3, [r5, #2]
    47d0:	f043 0310 	orr.w	r3, r3, #16
    47d4:	e7e6      	b.n	47a4 <encode_uint+0x5a>

000047d6 <outs>:
{
    47d6:	e92d 41f0 	stmdb	sp!, {r4, r5, r6, r7, r8, lr}
    47da:	4607      	mov	r7, r0
    47dc:	4688      	mov	r8, r1
    47de:	4615      	mov	r5, r2
    47e0:	461e      	mov	r6, r3
	while ((sp < ep) || ((ep == NULL) && *sp)) {
    47e2:	4614      	mov	r4, r2
    47e4:	42b4      	cmp	r4, r6
    47e6:	eba4 0005 	sub.w	r0, r4, r5
    47ea:	d302      	bcc.n	47f2 <outs+0x1c>
    47ec:	b93e      	cbnz	r6, 47fe <outs+0x28>
    47ee:	7823      	ldrb	r3, [r4, #0]
    47f0:	b12b      	cbz	r3, 47fe <outs+0x28>
		int rc = out((int)*sp++, ctx);
    47f2:	f814 0b01 	ldrb.w	r0, [r4], #1
    47f6:	4641      	mov	r1, r8
    47f8:	47b8      	blx	r7
		if (rc < 0) {
    47fa:	2800      	cmp	r0, #0
    47fc:	daf2      	bge.n	47e4 <outs+0xe>
}
    47fe:	e8bd 81f0 	ldmia.w	sp!, {r4, r5, r6, r7, r8, pc}

00004802 <_ConfigAbsSyms>:
GEN_ABSOLUTE_SYM_KCONFIG(CONFIG_OUTPUT_PRINT_MEMORY_USAGE, 1);
GEN_ABSOLUTE_SYM_KCONFIG(CONFIG_BUILD_OUTPUT_BIN, 1);
GEN_ABSOLUTE_SYM_KCONFIG(CONFIG_COMPAT_INCLUDES, 1);
GEN_ABSOLUTE_SYM_KCONFIG(CONFIG_LEGACY_INCLUDE_PATH, 1);

GEN_ABS_SYM_END
    4802:	4770      	bx	lr

00004804 <abort_function>:
{
    4804:	b508      	push	{r3, lr}
	sys_reboot(SYS_REBOOT_WARM);
    4806:	2000      	movs	r0, #0
    4808:	f7fc faae 	bl	d68 <sys_reboot>

0000480c <z_arm_fatal_error>:
{

	if (esf != NULL) {
		esf_dump(esf);
	}
	z_fatal_error(reason, esf);
    480c:	f000 bb4a 	b.w	4ea4 <z_fatal_error>

00004810 <z_do_kernel_oops>:
 *   fault handler will executed instead of the SVC.
 *
 * @param esf exception frame
 */
void z_do_kernel_oops(const z_arch_esf_t *esf)
{
    4810:	4601      	mov	r1, r0
	z_fatal_error(reason, esf);
    4812:	6800      	ldr	r0, [r0, #0]
    4814:	f000 bb46 	b.w	4ea4 <z_fatal_error>

00004818 <z_irq_spurious>:
 */
void z_irq_spurious(const void *unused)
{
	ARG_UNUSED(unused);

	z_arm_fatal_error(K_ERR_SPURIOUS_IRQ, NULL);
    4818:	2100      	movs	r1, #0
    481a:	2001      	movs	r0, #1
    481c:	f7ff bff6 	b.w	480c <z_arm_fatal_error>

00004820 <z_arm_nmi>:
 * Simply call what is installed in 'static void(*handler)(void)'.
 *
 */

void z_arm_nmi(void)
{
    4820:	b508      	push	{r3, lr}
	handler();
    4822:	f7fc fd31 	bl	1288 <z_SysNmiOnReset>
	z_arm_int_exit();
}
    4826:	e8bd 4008 	ldmia.w	sp!, {r3, lr}
	z_arm_int_exit();
    482a:	f7fc be09 	b.w	1440 <z_arm_exc_exit>

0000482e <strcpy>:

char *strcpy(char *ZRESTRICT d, const char *ZRESTRICT s)
{
	char *dest = d;

	while (*s != '\0') {
    482e:	3901      	subs	r1, #1
    4830:	4603      	mov	r3, r0
    4832:	f811 2f01 	ldrb.w	r2, [r1, #1]!
    4836:	b90a      	cbnz	r2, 483c <strcpy+0xe>
		*d = *s;
		d++;
		s++;
	}

	*d = '\0';
    4838:	701a      	strb	r2, [r3, #0]

	return dest;
}
    483a:	4770      	bx	lr
		*d = *s;
    483c:	f803 2b01 	strb.w	r2, [r3], #1
		s++;
    4840:	e7f7      	b.n	4832 <strcpy+0x4>

00004842 <strlen>:
 *
 * @return number of bytes in string <s>
 */

size_t strlen(const char *s)
{
    4842:	4603      	mov	r3, r0
	size_t n = 0;
    4844:	2000      	movs	r0, #0

	while (*s != '\0') {
    4846:	5c1a      	ldrb	r2, [r3, r0]
    4848:	b902      	cbnz	r2, 484c <strlen+0xa>
		s++;
		n++;
	}

	return n;
}
    484a:	4770      	bx	lr
		n++;
    484c:	3001      	adds	r0, #1
    484e:	e7fa      	b.n	4846 <strlen+0x4>

00004850 <strnlen>:
 *
 * @return number of bytes in fixed-size string <s>
 */

size_t strnlen(const char *s, size_t maxlen)
{
    4850:	4603      	mov	r3, r0
	size_t n = 0;
    4852:	2000      	movs	r0, #0

	while (*s != '\0' && n < maxlen) {
    4854:	5c1a      	ldrb	r2, [r3, r0]
    4856:	b10a      	cbz	r2, 485c <strnlen+0xc>
    4858:	4288      	cmp	r0, r1
    485a:	d100      	bne.n	485e <strnlen+0xe>
		s++;
		n++;
	}

	return n;
}
    485c:	4770      	bx	lr
		n++;
    485e:	3001      	adds	r0, #1
    4860:	e7f8      	b.n	4854 <strnlen+0x4>

00004862 <memcpy>:
 *
 * @return pointer to start of destination buffer
 */

void *memcpy(void *ZRESTRICT d, const void *ZRESTRICT s, size_t n)
{
    4862:	b510      	push	{r4, lr}
    4864:	1e43      	subs	r3, r0, #1
    4866:	440a      	add	r2, r1
	}
#endif

	/* do byte-sized copying until finished */

	while (n > 0) {
    4868:	4291      	cmp	r1, r2
    486a:	d100      	bne.n	486e <memcpy+0xc>
		*(d_byte++) = *(s_byte++);
		n--;
	}

	return d;
}
    486c:	bd10      	pop	{r4, pc}
		*(d_byte++) = *(s_byte++);
    486e:	f811 4b01 	ldrb.w	r4, [r1], #1
    4872:	f803 4f01 	strb.w	r4, [r3, #1]!
		n--;
    4876:	e7f7      	b.n	4868 <memcpy+0x6>

00004878 <memset>:
void *memset(void *buf, int c, size_t n)
{
	/* do byte-sized initialization until word-aligned or finished */

	unsigned char *d_byte = (unsigned char *)buf;
	unsigned char c_byte = (unsigned char)c;
    4878:	b2c9      	uxtb	r1, r1
	/* do byte-sized initialization until finished */

	d_byte = (unsigned char *)d_word;
#endif

	while (n > 0) {
    487a:	4402      	add	r2, r0
	unsigned char *d_byte = (unsigned char *)buf;
    487c:	4603      	mov	r3, r0
	while (n > 0) {
    487e:	4293      	cmp	r3, r2
    4880:	d100      	bne.n	4884 <memset+0xc>
		*(d_byte++) = c_byte;
		n--;
	}

	return buf;
}
    4882:	4770      	bx	lr
		*(d_byte++) = c_byte;
    4884:	f803 1b01 	strb.w	r1, [r3], #1
		n--;
    4888:	e7f9      	b.n	487e <memset+0x6>

0000488a <_stdout_hook_default>:
}
    488a:	f04f 30ff 	mov.w	r0, #4294967295	; 0xffffffff
    488e:	4770      	bx	lr

00004890 <pm_state_set>:
/* Invoke Low Power/System Off specific Tasks */
__weak void pm_state_set(enum pm_state state, uint8_t substate_id)
{
	ARG_UNUSED(substate_id);

	switch (state) {
    4890:	2806      	cmp	r0, #6
    4892:	d108      	bne.n	48a6 <pm_state_set+0x16>
    p_reg->SYSTEMOFF = POWER_SYSTEMOFF_SYSTEMOFF_Enter;
    4894:	f04f 4380 	mov.w	r3, #1073741824	; 0x40000000
    4898:	2201      	movs	r2, #1
    489a:	f8c3 2500 	str.w	r2, [r3, #1280]	; 0x500
  __ASM volatile ("dsb 0xF":::"memory");
    489e:	f3bf 8f4f 	dsb	sy
        __WFE();
    48a2:	bf20      	wfe
    while (true)
    48a4:	e7fd      	b.n	48a2 <pm_state_set+0x12>
		break;
	default:
		LOG_DBG("Unsupported power state %u", state);
		break;
	}
}
    48a6:	4770      	bx	lr

000048a8 <pm_state_exit_post_ops>:
    48a8:	2300      	movs	r3, #0
    48aa:	f383 8811 	msr	BASEPRI, r3
    48ae:	f3bf 8f6f 	isb	sy
	/*
	 * System is now in active mode. Reenable interrupts which were disabled
	 * when OS started idling code.
	 */
	irq_unlock(0);
}
    48b2:	4770      	bx	lr

000048b4 <get_status>:
	return GET_STATUS(get_sub_data(dev, type)->flags);
    48b4:	6903      	ldr	r3, [r0, #16]
    48b6:	b2c9      	uxtb	r1, r1
    48b8:	220c      	movs	r2, #12
    48ba:	fb01 3302 	mla	r3, r1, r2, r3
    48be:	6c18      	ldr	r0, [r3, #64]	; 0x40
}
    48c0:	f000 0007 	and.w	r0, r0, #7
    48c4:	4770      	bx	lr

000048c6 <set_on_state>:
	__asm__ volatile(
    48c6:	f04f 0320 	mov.w	r3, #32
    48ca:	f3ef 8211 	mrs	r2, BASEPRI
    48ce:	f383 8812 	msr	BASEPRI_MAX, r3
    48d2:	f3bf 8f6f 	isb	sy
	*flags = CLOCK_CONTROL_STATUS_ON | GET_CTX(*flags);
    48d6:	6803      	ldr	r3, [r0, #0]
    48d8:	f003 03c0 	and.w	r3, r3, #192	; 0xc0
    48dc:	f043 0302 	orr.w	r3, r3, #2
    48e0:	6003      	str	r3, [r0, #0]
	__asm__ volatile(
    48e2:	f382 8811 	msr	BASEPRI, r2
    48e6:	f3bf 8f6f 	isb	sy
}
    48ea:	4770      	bx	lr

000048ec <stop>:
{
    48ec:	4603      	mov	r3, r0
    48ee:	b570      	push	{r4, r5, r6, lr}
	struct nrf_clock_control_data *data = dev->data;
    48f0:	6900      	ldr	r0, [r0, #16]
	return &data->subsys[type];
    48f2:	b2c9      	uxtb	r1, r1
	__asm__ volatile(
    48f4:	f04f 0420 	mov.w	r4, #32
    48f8:	f3ef 8611 	mrs	r6, BASEPRI
    48fc:	f384 8812 	msr	BASEPRI_MAX, r4
    4900:	f3bf 8f6f 	isb	sy
	uint32_t current_ctx = GET_CTX(*flags);
    4904:	250c      	movs	r5, #12
    4906:	fb05 0401 	mla	r4, r5, r1, r0
    490a:	6c24      	ldr	r4, [r4, #64]	; 0x40
	if ((current_ctx != 0) && (current_ctx != ctx)) {
    490c:	f014 04c0 	ands.w	r4, r4, #192	; 0xc0
    4910:	d001      	beq.n	4916 <stop+0x2a>
    4912:	42a2      	cmp	r2, r4
    4914:	d110      	bne.n	4938 <stop+0x4c>
		*flags = CLOCK_CONTROL_STATUS_OFF;
    4916:	fb05 0001 	mla	r0, r5, r1, r0
    491a:	2201      	movs	r2, #1
    491c:	6402      	str	r2, [r0, #64]	; 0x40
	int err = 0;
    491e:	2000      	movs	r0, #0
	__asm__ volatile(
    4920:	f386 8811 	msr	BASEPRI, r6
    4924:	f3bf 8f6f 	isb	sy
	if (err < 0) {
    4928:	b928      	cbnz	r0, 4936 <stop+0x4a>
	get_sub_config(dev, type)->stop();
    492a:	685b      	ldr	r3, [r3, #4]
    492c:	eb03 01c1 	add.w	r1, r3, r1, lsl #3
    4930:	684b      	ldr	r3, [r1, #4]
    4932:	4798      	blx	r3
	return 0;
    4934:	2000      	movs	r0, #0
}
    4936:	bd70      	pop	{r4, r5, r6, pc}
		err = -EPERM;
    4938:	f04f 30ff 	mov.w	r0, #4294967295	; 0xffffffff
    493c:	e7f0      	b.n	4920 <stop+0x34>

0000493e <api_stop>:
	return stop(dev, subsys, CTX_API);
    493e:	2280      	movs	r2, #128	; 0x80
    4940:	f7ff bfd4 	b.w	48ec <stop>

00004944 <async_start>:
{
    4944:	b5f8      	push	{r3, r4, r5, r6, r7, lr}
    4946:	9f06      	ldr	r7, [sp, #24]
	struct nrf_clock_control_data *data = dev->data;
    4948:	6904      	ldr	r4, [r0, #16]
{
    494a:	4605      	mov	r5, r0
    494c:	b2c9      	uxtb	r1, r1
	__asm__ volatile(
    494e:	f04f 0020 	mov.w	r0, #32
    4952:	f3ef 8c11 	mrs	ip, BASEPRI
    4956:	f380 8812 	msr	BASEPRI_MAX, r0
    495a:	f3bf 8f6f 	isb	sy
	uint32_t current_ctx = GET_CTX(*flags);
    495e:	260c      	movs	r6, #12
    4960:	fb06 4601 	mla	r6, r6, r1, r4
    4964:	6c30      	ldr	r0, [r6, #64]	; 0x40
	if ((*flags & (STATUS_MASK)) == CLOCK_CONTROL_STATUS_OFF) {
    4966:	f000 0e07 	and.w	lr, r0, #7
    496a:	f1be 0f01 	cmp.w	lr, #1
    496e:	d111      	bne.n	4994 <async_start+0x50>
		*flags = CLOCK_CONTROL_STATUS_STARTING | ctx;
    4970:	6437      	str	r7, [r6, #64]	; 0x40
	int err = 0;
    4972:	2600      	movs	r6, #0
	__asm__ volatile(
    4974:	f38c 8811 	msr	BASEPRI, ip
    4978:	f3bf 8f6f 	isb	sy
	if (err < 0) {
    497c:	b946      	cbnz	r6, 4990 <async_start+0x4c>
	subdata->cb = cb;
    497e:	200c      	movs	r0, #12
    4980:	fb00 4401 	mla	r4, r0, r1, r4
	subdata->user_data = user_data;
    4984:	e9c4 230e 	strd	r2, r3, [r4, #56]	; 0x38
	 get_sub_config(dev, type)->start();
    4988:	686b      	ldr	r3, [r5, #4]
    498a:	f853 3031 	ldr.w	r3, [r3, r1, lsl #3]
    498e:	4798      	blx	r3
}
    4990:	4630      	mov	r0, r6
    4992:	bdf8      	pop	{r3, r4, r5, r6, r7, pc}
	uint32_t current_ctx = GET_CTX(*flags);
    4994:	f000 00c0 	and.w	r0, r0, #192	; 0xc0
		err = -EALREADY;
    4998:	4287      	cmp	r7, r0
    499a:	bf14      	ite	ne
    499c:	f04f 36ff 	movne.w	r6, #4294967295	; 0xffffffff
    49a0:	f06f 0677 	mvneq.w	r6, #119	; 0x77
    49a4:	e7e6      	b.n	4974 <async_start+0x30>

000049a6 <api_start>:
{
    49a6:	b513      	push	{r0, r1, r4, lr}
	return async_start(dev, subsys, cb, user_data, CTX_API);
    49a8:	2480      	movs	r4, #128	; 0x80
    49aa:	9400      	str	r4, [sp, #0]
    49ac:	f7ff ffca 	bl	4944 <async_start>
}
    49b0:	b002      	add	sp, #8
    49b2:	bd10      	pop	{r4, pc}

000049b4 <onoff_started_callback>:
	return &data->mgr[type];
    49b4:	6900      	ldr	r0, [r0, #16]
{
    49b6:	b410      	push	{r4}
	return &data->mgr[type];
    49b8:	b2cb      	uxtb	r3, r1
	notify(mgr, 0);
    49ba:	241c      	movs	r4, #28
    49bc:	fb03 0004 	mla	r0, r3, r4, r0
    49c0:	2100      	movs	r1, #0
}
    49c2:	bc10      	pop	{r4}
	notify(mgr, 0);
    49c4:	4710      	bx	r2

000049c6 <lfclk_start>:
    nrfx_clock_start(NRF_CLOCK_DOMAIN_LFCLK);
    49c6:	2000      	movs	r0, #0
    49c8:	f000 b9c5 	b.w	4d56 <nrfx_clock_start>

000049cc <lfclk_stop>:
    nrfx_clock_stop(NRF_CLOCK_DOMAIN_LFCLK);
    49cc:	2000      	movs	r0, #0
    49ce:	f000 b9ff 	b.w	4dd0 <nrfx_clock_stop>

000049d2 <blocking_start_callback>:
{
    49d2:	4610      	mov	r0, r2
		(void) arch_syscall_invoke1(parm0.x, K_SYSCALL_K_SEM_GIVE);
		return;
	}
#endif
	compiler_barrier();
	z_impl_k_sem_give(sem);
    49d4:	f7fe bf10 	b.w	37f8 <z_impl_k_sem_give>

000049d8 <gpio_nrfx_port_get_raw>:
	NRF_GPIO_Type *reg = get_port_cfg(port)->port;
    49d8:	6843      	ldr	r3, [r0, #4]
    49da:	685b      	ldr	r3, [r3, #4]
    return p_reg->IN;
    49dc:	f8d3 3510 	ldr.w	r3, [r3, #1296]	; 0x510
	*value = nrf_gpio_port_in_read(reg);
    49e0:	600b      	str	r3, [r1, #0]
}
    49e2:	2000      	movs	r0, #0
    49e4:	4770      	bx	lr

000049e6 <gpio_nrfx_port_set_masked_raw>:
	NRF_GPIO_Type *reg = get_port_cfg(port)->port;
    49e6:	6843      	ldr	r3, [r0, #4]
    49e8:	685b      	ldr	r3, [r3, #4]
    return p_reg->OUT;
    49ea:	f8d3 0504 	ldr.w	r0, [r3, #1284]	; 0x504
	nrf_gpio_port_out_write(reg, value_tmp | (mask & value));
    49ee:	4042      	eors	r2, r0
    49f0:	400a      	ands	r2, r1
    49f2:	4042      	eors	r2, r0
    p_reg->OUT = value;
    49f4:	f8c3 2504 	str.w	r2, [r3, #1284]	; 0x504
}
    49f8:	2000      	movs	r0, #0
    49fa:	4770      	bx	lr

000049fc <gpio_nrfx_port_set_bits_raw>:
	NRF_GPIO_Type *reg = get_port_cfg(port)->port;
    49fc:	6843      	ldr	r3, [r0, #4]
    49fe:	685b      	ldr	r3, [r3, #4]
}
    4a00:	2000      	movs	r0, #0
    p_reg->OUTSET = set_mask;
    4a02:	f8c3 1508 	str.w	r1, [r3, #1288]	; 0x508
    4a06:	4770      	bx	lr

00004a08 <gpio_nrfx_port_clear_bits_raw>:
	NRF_GPIO_Type *reg = get_port_cfg(port)->port;
    4a08:	6843      	ldr	r3, [r0, #4]
    4a0a:	685b      	ldr	r3, [r3, #4]
}
    4a0c:	2000      	movs	r0, #0
    p_reg->OUTCLR = clr_mask;
    4a0e:	f8c3 150c 	str.w	r1, [r3, #1292]	; 0x50c
    4a12:	4770      	bx	lr

00004a14 <gpio_nrfx_port_toggle_bits>:
	NRF_GPIO_Type *reg = get_port_cfg(port)->port;
    4a14:	6843      	ldr	r3, [r0, #4]
    4a16:	685a      	ldr	r2, [r3, #4]
    return p_reg->OUT;
    4a18:	f8d2 3504 	ldr.w	r3, [r2, #1284]	; 0x504
	nrf_gpio_port_out_write(reg, value ^ mask);
    4a1c:	404b      	eors	r3, r1
    p_reg->OUT = value;
    4a1e:	f8c2 3504 	str.w	r3, [r2, #1284]	; 0x504
}
    4a22:	2000      	movs	r0, #0
    4a24:	4770      	bx	lr

00004a26 <gpio_nrfx_manage_callback>:
	return port->data;
    4a26:	6903      	ldr	r3, [r0, #16]
	return list->head;
    4a28:	6858      	ldr	r0, [r3, #4]
{
    4a2a:	b530      	push	{r4, r5, lr}
	if (!sys_slist_is_empty(callbacks)) {
    4a2c:	b158      	cbz	r0, 4a46 <gpio_nrfx_manage_callback+0x20>
 */
static inline bool sys_slist_find_and_remove(sys_slist_t *list,
					     sys_snode_t *node);

/** @} */
Z_GENLIST_FIND_AND_REMOVE(slist, snode)
    4a2e:	2400      	movs	r4, #0
    4a30:	4281      	cmp	r1, r0
    4a32:	d112      	bne.n	4a5a <gpio_nrfx_manage_callback+0x34>
	return node->next;
    4a34:	6808      	ldr	r0, [r1, #0]
	return list->tail;
    4a36:	689d      	ldr	r5, [r3, #8]
Z_GENLIST_REMOVE(slist, snode)
    4a38:	b954      	cbnz	r4, 4a50 <gpio_nrfx_manage_callback+0x2a>
    4a3a:	428d      	cmp	r5, r1
	list->head = node;
    4a3c:	6058      	str	r0, [r3, #4]
Z_GENLIST_REMOVE(slist, snode)
    4a3e:	d100      	bne.n	4a42 <gpio_nrfx_manage_callback+0x1c>
	list->tail = node;
    4a40:	6098      	str	r0, [r3, #8]
	parent->next = child;
    4a42:	2000      	movs	r0, #0
    4a44:	6008      	str	r0, [r1, #0]
	if (set) {
    4a46:	b96a      	cbnz	r2, 4a64 <gpio_nrfx_manage_callback+0x3e>
	return 0;
    4a48:	2000      	movs	r0, #0
}
    4a4a:	bd30      	pop	{r4, r5, pc}
    4a4c:	4628      	mov	r0, r5
    4a4e:	e7ef      	b.n	4a30 <gpio_nrfx_manage_callback+0xa>
Z_GENLIST_REMOVE(slist, snode)
    4a50:	428d      	cmp	r5, r1
	parent->next = child;
    4a52:	6020      	str	r0, [r4, #0]
	list->tail = node;
    4a54:	bf08      	it	eq
    4a56:	609c      	streq	r4, [r3, #8]
}
    4a58:	e7f3      	b.n	4a42 <gpio_nrfx_manage_callback+0x1c>
	return node->next;
    4a5a:	6805      	ldr	r5, [r0, #0]
Z_GENLIST_FIND_AND_REMOVE(slist, snode)
    4a5c:	4604      	mov	r4, r0
    4a5e:	2d00      	cmp	r5, #0
    4a60:	d1f4      	bne.n	4a4c <gpio_nrfx_manage_callback+0x26>
			if (!set) {
    4a62:	b13a      	cbz	r2, 4a74 <gpio_nrfx_manage_callback+0x4e>
Z_GENLIST_PREPEND(slist, snode)
    4a64:	6898      	ldr	r0, [r3, #8]
	parent->next = child;
    4a66:	685a      	ldr	r2, [r3, #4]
    4a68:	600a      	str	r2, [r1, #0]
	list->head = node;
    4a6a:	6059      	str	r1, [r3, #4]
Z_GENLIST_PREPEND(slist, snode)
    4a6c:	2800      	cmp	r0, #0
    4a6e:	d1eb      	bne.n	4a48 <gpio_nrfx_manage_callback+0x22>
	list->tail = node;
    4a70:	6099      	str	r1, [r3, #8]
}
    4a72:	e7ea      	b.n	4a4a <gpio_nrfx_manage_callback+0x24>
				return -EINVAL;
    4a74:	f06f 0015 	mvn.w	r0, #21
	return gpio_manage_callback(&get_port_data(port)->callbacks,
    4a78:	e7e7      	b.n	4a4a <gpio_nrfx_manage_callback+0x24>

00004a7a <uarte_nrfx_config_get>:
	*cfg = data->uart_config;
    4a7a:	6902      	ldr	r2, [r0, #16]
{
    4a7c:	460b      	mov	r3, r1
	*cfg = data->uart_config;
    4a7e:	e9d2 0101 	ldrd	r0, r1, [r2, #4]
    4a82:	e883 0003 	stmia.w	r3, {r0, r1}
}
    4a86:	2000      	movs	r0, #0
    4a88:	4770      	bx	lr

00004a8a <uarte_nrfx_err_check>:
	return config->uarte_regs;
    4a8a:	6843      	ldr	r3, [r0, #4]
    4a8c:	681b      	ldr	r3, [r3, #0]
    uint32_t errsrc_mask = p_reg->ERRORSRC;
    4a8e:	f8d3 0480 	ldr.w	r0, [r3, #1152]	; 0x480
    p_reg->ERRORSRC = errsrc_mask;
    4a92:	f8c3 0480 	str.w	r0, [r3, #1152]	; 0x480
}
    4a96:	4770      	bx	lr

00004a98 <uarte_nrfx_poll_in>:
	return config->uarte_regs;
    4a98:	6843      	ldr	r3, [r0, #4]
	const struct uarte_nrfx_data *data = dev->data;
    4a9a:	6902      	ldr	r2, [r0, #16]
	return config->uarte_regs;
    4a9c:	681b      	ldr	r3, [r3, #0]
    return (bool)*(volatile uint32_t *)((uint8_t *)p_reg + (uint32_t)event);
    4a9e:	f8d3 0110 	ldr.w	r0, [r3, #272]	; 0x110
	if (!nrf_uarte_event_check(uarte, NRF_UARTE_EVENT_ENDRX)) {
    4aa2:	b148      	cbz	r0, 4ab8 <uarte_nrfx_poll_in+0x20>
	*c = data->rx_data;
    4aa4:	7c52      	ldrb	r2, [r2, #17]
    4aa6:	700a      	strb	r2, [r1, #0]
    *((volatile uint32_t *)((uint8_t *)p_reg + (uint32_t)event)) = 0x0UL;
    4aa8:	2000      	movs	r0, #0
    4aaa:	f8c3 0110 	str.w	r0, [r3, #272]	; 0x110
    4aae:	f8d3 2110 	ldr.w	r2, [r3, #272]	; 0x110
    *((volatile uint32_t *)((uint8_t *)p_reg + (uint32_t)task)) = 0x1UL;
    4ab2:	2201      	movs	r2, #1
    4ab4:	601a      	str	r2, [r3, #0]
	return 0;
    4ab6:	4770      	bx	lr
		return -1;
    4ab8:	f04f 30ff 	mov.w	r0, #4294967295	; 0xffffffff
}
    4abc:	4770      	bx	lr

00004abe <is_tx_ready.isra.0>:
	return config->uarte_regs;
    4abe:	6802      	ldr	r2, [r0, #0]
static bool is_tx_ready(const struct device *dev)
    4ac0:	4603      	mov	r3, r0
    return (bool)*(volatile uint32_t *)((uint8_t *)p_reg + (uint32_t)event);
    4ac2:	f8d2 0158 	ldr.w	r0, [r2, #344]	; 0x158
	return nrf_uarte_event_check(uarte, NRF_UARTE_EVENT_TXSTOPPED) ||
    4ac6:	b940      	cbnz	r0, 4ada <is_tx_ready.isra.0+0x1c>
	bool ppi_endtx = config->flags & UARTE_CFG_FLAG_PPI_ENDTX;
    4ac8:	685b      	ldr	r3, [r3, #4]
	return nrf_uarte_event_check(uarte, NRF_UARTE_EVENT_TXSTOPPED) ||
    4aca:	079b      	lsls	r3, r3, #30
    4acc:	d406      	bmi.n	4adc <is_tx_ready.isra.0+0x1e>
    4ace:	f8d2 0120 	ldr.w	r0, [r2, #288]	; 0x120
    4ad2:	3800      	subs	r0, #0
    4ad4:	bf18      	it	ne
    4ad6:	2001      	movne	r0, #1
    4ad8:	4770      	bx	lr
    4ada:	2001      	movs	r0, #1
}
    4adc:	4770      	bx	lr

00004ade <uarte_nrfx_isr_int>:
	const struct uarte_nrfx_config *config = dev->config;
    4ade:	6842      	ldr	r2, [r0, #4]
	return config->uarte_regs;
    4ae0:	6813      	ldr	r3, [r2, #0]
    return p_reg->INTENSET & mask;
    4ae2:	f8d3 1304 	ldr.w	r1, [r3, #772]	; 0x304
	if (nrf_uarte_int_enable_check(uarte, NRF_UARTE_INT_ENDTX_MASK) &&
    4ae6:	05c9      	lsls	r1, r1, #23
    4ae8:	d518      	bpl.n	4b1c <uarte_nrfx_isr_int+0x3e>
    return (bool)*(volatile uint32_t *)((uint8_t *)p_reg + (uint32_t)event);
    4aea:	f8d3 1120 	ldr.w	r1, [r3, #288]	; 0x120
    4aee:	b1a9      	cbz	r1, 4b1c <uarte_nrfx_isr_int+0x3e>
	__asm__ volatile(
    4af0:	f04f 0020 	mov.w	r0, #32
    4af4:	f3ef 8111 	mrs	r1, BASEPRI
    4af8:	f380 8812 	msr	BASEPRI_MAX, r0
    4afc:	f3bf 8f6f 	isb	sy
    4b00:	f8d3 0120 	ldr.w	r0, [r3, #288]	; 0x120
	if (nrf_uarte_event_check(uarte, NRF_UARTE_EVENT_ENDTX)) {
    4b04:	b130      	cbz	r0, 4b14 <uarte_nrfx_isr_int+0x36>
    *((volatile uint32_t *)((uint8_t *)p_reg + (uint32_t)event)) = 0x0UL;
    4b06:	2000      	movs	r0, #0
    4b08:	f8c3 0120 	str.w	r0, [r3, #288]	; 0x120
    4b0c:	f8d3 0120 	ldr.w	r0, [r3, #288]	; 0x120
    *((volatile uint32_t *)((uint8_t *)p_reg + (uint32_t)task)) = 0x1UL;
    4b10:	2001      	movs	r0, #1
    4b12:	60d8      	str	r0, [r3, #12]
	__asm__ volatile(
    4b14:	f381 8811 	msr	BASEPRI, r1
    4b18:	f3bf 8f6f 	isb	sy
	if (config->flags & UARTE_CFG_FLAG_LOW_POWER) {
    4b1c:	6852      	ldr	r2, [r2, #4]
    4b1e:	06d2      	lsls	r2, r2, #27
    4b20:	d515      	bpl.n	4b4e <uarte_nrfx_isr_int+0x70>
	__asm__ volatile(
    4b22:	f04f 0120 	mov.w	r1, #32
    4b26:	f3ef 8211 	mrs	r2, BASEPRI
    4b2a:	f381 8812 	msr	BASEPRI_MAX, r1
    4b2e:	f3bf 8f6f 	isb	sy
    return (bool)*(volatile uint32_t *)((uint8_t *)p_reg + (uint32_t)event);
    4b32:	f8d3 1158 	ldr.w	r1, [r3, #344]	; 0x158
		if (nrf_uarte_event_check(uarte, NRF_UARTE_EVENT_TXSTOPPED)) {
    4b36:	b111      	cbz	r1, 4b3e <uarte_nrfx_isr_int+0x60>
    p_reg->ENABLE = UARTE_ENABLE_ENABLE_Disabled;
    4b38:	2100      	movs	r1, #0
    4b3a:	f8c3 1500 	str.w	r1, [r3, #1280]	; 0x500
    p_reg->INTENCLR = mask;
    4b3e:	f44f 0180 	mov.w	r1, #4194304	; 0x400000
    4b42:	f8c3 1308 	str.w	r1, [r3, #776]	; 0x308
	__asm__ volatile(
    4b46:	f382 8811 	msr	BASEPRI, r2
    4b4a:	f3bf 8f6f 	isb	sy
}
    4b4e:	4770      	bx	lr

00004b50 <uarte_1_init>:
#ifdef CONFIG_UART_0_NRF_UARTE
UART_NRF_UARTE_DEVICE(0);
#endif

#ifdef CONFIG_UART_1_NRF_UARTE
UART_NRF_UARTE_DEVICE(1);
    4b50:	b510      	push	{r4, lr}
    4b52:	2200      	movs	r2, #0
    4b54:	4604      	mov	r4, r0
    4b56:	2101      	movs	r1, #1
    4b58:	2028      	movs	r0, #40	; 0x28
    4b5a:	f7fc fb7d 	bl	1258 <z_arm_irq_priority_set>
    4b5e:	2028      	movs	r0, #40	; 0x28
    4b60:	f7fc fb5c 	bl	121c <arch_irq_enable>
    4b64:	4620      	mov	r0, r4
    4b66:	e8bd 4010 	ldmia.w	sp!, {r4, lr}
    4b6a:	f7fd bac5 	b.w	20f8 <uarte_instance_init.constprop.0>

00004b6e <uarte_0_init>:
UART_NRF_UARTE_DEVICE(0);
    4b6e:	b510      	push	{r4, lr}
    4b70:	2200      	movs	r2, #0
    4b72:	4604      	mov	r4, r0
    4b74:	2101      	movs	r1, #1
    4b76:	2002      	movs	r0, #2
    4b78:	f7fc fb6e 	bl	1258 <z_arm_irq_priority_set>
    4b7c:	2002      	movs	r0, #2
    4b7e:	f7fc fb4d 	bl	121c <arch_irq_enable>
    4b82:	4620      	mov	r0, r4
    4b84:	e8bd 4010 	ldmia.w	sp!, {r4, lr}
    4b88:	f7fd bab6 	b.w	20f8 <uarte_instance_init.constprop.0>

00004b8c <sys_clock_idle_exit>:
{
}

void __weak sys_clock_idle_exit(void)
{
}
    4b8c:	4770      	bx	lr

00004b8e <pinctrl_lookup_state>:

#include <drivers/pinctrl.h>

int pinctrl_lookup_state(const struct pinctrl_dev_config *config, uint8_t id,
			 const struct pinctrl_state **state)
{
    4b8e:	b530      	push	{r4, r5, lr}
	*state = &config->states[0];
    4b90:	6843      	ldr	r3, [r0, #4]
    4b92:	6013      	str	r3, [r2, #0]
	while (*state <= &config->states[config->state_cnt - 1U]) {
    4b94:	7a03      	ldrb	r3, [r0, #8]
    4b96:	f103 5300 	add.w	r3, r3, #536870912	; 0x20000000
    4b9a:	3b01      	subs	r3, #1
    4b9c:	00db      	lsls	r3, r3, #3
    4b9e:	6845      	ldr	r5, [r0, #4]
    4ba0:	6814      	ldr	r4, [r2, #0]
    4ba2:	441d      	add	r5, r3
    4ba4:	42ac      	cmp	r4, r5
    4ba6:	d902      	bls.n	4bae <pinctrl_lookup_state+0x20>
		}

		(*state)++;
	}

	return -ENOENT;
    4ba8:	f06f 0001 	mvn.w	r0, #1
}
    4bac:	bd30      	pop	{r4, r5, pc}
		if (id == (*state)->id) {
    4bae:	7965      	ldrb	r5, [r4, #5]
    4bb0:	428d      	cmp	r5, r1
    4bb2:	d002      	beq.n	4bba <pinctrl_lookup_state+0x2c>
		(*state)++;
    4bb4:	3408      	adds	r4, #8
    4bb6:	6014      	str	r4, [r2, #0]
    4bb8:	e7f1      	b.n	4b9e <pinctrl_lookup_state+0x10>
			return 0;
    4bba:	2000      	movs	r0, #0
    4bbc:	e7f6      	b.n	4bac <pinctrl_lookup_state+0x1e>

00004bbe <nrf_gpio_pin_write>:
    if (value == 0)
    4bbe:	b909      	cbnz	r1, 4bc4 <nrf_gpio_pin_write+0x6>
        nrf_gpio_pin_clear(pin_number);
    4bc0:	f7fd bdbc 	b.w	273c <nrf_gpio_pin_clear>
        nrf_gpio_pin_set(pin_number);
    4bc4:	f7fd bdec 	b.w	27a0 <nrf_gpio_pin_set>

00004bc8 <pinctrl_configure_pins>:

int pinctrl_configure_pins(const pinctrl_soc_pin_t *pins, uint8_t pin_cnt,
			   uintptr_t reg)
{
    4bc8:	b570      	push	{r4, r5, r6, lr}
    4bca:	4615      	mov	r5, r2
    4bcc:	4604      	mov	r4, r0
    4bce:	eb00 0681 	add.w	r6, r0, r1, lsl #2
	for (uint8_t i = 0U; i < pin_cnt; i++) {
    4bd2:	42a6      	cmp	r6, r4
    4bd4:	d101      	bne.n	4bda <pinctrl_configure_pins+0x12>
		default:
			return -ENOTSUP;
		}
	}

	return 0;
    4bd6:	2000      	movs	r0, #0
}
    4bd8:	bd70      	pop	{r4, r5, r6, pc}
		switch (NRF_GET_FUN(pins[i])) {
    4bda:	6823      	ldr	r3, [r4, #0]
    4bdc:	0c1a      	lsrs	r2, r3, #16
    4bde:	2a22      	cmp	r2, #34	; 0x22
    4be0:	f200 808e 	bhi.w	4d00 <pinctrl_configure_pins+0x138>
    4be4:	e8df f002 	tbb	[pc, r2]
    4be8:	43241d12 	.word	0x43241d12
    4bec:	8c433929 	.word	0x8c433929
    4bf0:	488c8c8c 	.word	0x488c8c8c
    4bf4:	8c8c8c4d 	.word	0x8c8c8c4d
    4bf8:	8c8c8c8c 	.word	0x8c8c8c8c
    4bfc:	5e528c8c 	.word	0x5e528c8c
    4c00:	8c8c6863 	.word	0x8c8c6863
    4c04:	78736d8c 	.word	0x78736d8c
    4c08:	827d      	.short	0x827d
    4c0a:	87          	.byte	0x87
    4c0b:	00          	.byte	0x00
			NRF_PSEL_UART(reg, TXD) = NRF_GET_PIN(pins[i]);
    4c0c:	f003 033f 	and.w	r3, r3, #63	; 0x3f
    4c10:	f8c5 350c 	str.w	r3, [r5, #1292]	; 0x50c
			nrf_gpio_pin_write(NRF_GET_PIN(pins[i]), 1);
    4c14:	6820      	ldr	r0, [r4, #0]
    4c16:	f000 003f 	and.w	r0, r0, #63	; 0x3f
    4c1a:	f7fd fdc1 	bl	27a0 <nrf_gpio_pin_set>
			nrf_pin_configure(pins[i], NRF_GPIO_PIN_DIR_OUTPUT,
    4c1e:	2201      	movs	r2, #1
    4c20:	e015      	b.n	4c4e <pinctrl_configure_pins+0x86>
			NRF_PSEL_UART(reg, RXD) = NRF_GET_PIN(pins[i]);
    4c22:	f003 033f 	and.w	r3, r3, #63	; 0x3f
    4c26:	f8c5 3514 	str.w	r3, [r5, #1300]	; 0x514
			nrf_pin_configure(pins[i], NRF_GPIO_PIN_DIR_INPUT,
    4c2a:	2200      	movs	r2, #0
			nrf_pin_configure(pins[i], NRF_GPIO_PIN_DIR_INPUT,
    4c2c:	2100      	movs	r1, #0
    4c2e:	e00f      	b.n	4c50 <pinctrl_configure_pins+0x88>
			NRF_PSEL_UART(reg, RTS) = NRF_GET_PIN(pins[i]);
    4c30:	f003 033f 	and.w	r3, r3, #63	; 0x3f
    4c34:	f8c5 3508 	str.w	r3, [r5, #1288]	; 0x508
    4c38:	e7ec      	b.n	4c14 <pinctrl_configure_pins+0x4c>
			NRF_PSEL_SPIM(reg, SCK) = NRF_GET_PIN(pins[i]);
    4c3a:	f003 033f 	and.w	r3, r3, #63	; 0x3f
    4c3e:	f8c5 3508 	str.w	r3, [r5, #1288]	; 0x508
			nrf_gpio_pin_write(NRF_GET_PIN(pins[i]), 0);
    4c42:	6820      	ldr	r0, [r4, #0]
        nrf_gpio_pin_clear(pin_number);
    4c44:	f000 003f 	and.w	r0, r0, #63	; 0x3f
    4c48:	f7fd fd78 	bl	273c <nrf_gpio_pin_clear>
			nrf_pin_configure(pins[i], NRF_GPIO_PIN_DIR_OUTPUT,
    4c4c:	2200      	movs	r2, #0
    4c4e:	2101      	movs	r1, #1
			nrf_pin_configure(pins[i], NRF_GPIO_PIN_DIR_INPUT,
    4c50:	6820      	ldr	r0, [r4, #0]
    4c52:	f7fd fd83 	bl	275c <nrf_pin_configure>
	for (uint8_t i = 0U; i < pin_cnt; i++) {
    4c56:	3404      	adds	r4, #4
    4c58:	e7bb      	b.n	4bd2 <pinctrl_configure_pins+0xa>
			NRF_PSEL_SPIM(reg, MOSI) = NRF_GET_PIN(pins[i]);
    4c5a:	f003 033f 	and.w	r3, r3, #63	; 0x3f
    4c5e:	f8c5 350c 	str.w	r3, [r5, #1292]	; 0x50c
			nrf_gpio_pin_write(NRF_GET_PIN(pins[i]), 0);
    4c62:	6820      	ldr	r0, [r4, #0]
    4c64:	f000 003f 	and.w	r0, r0, #63	; 0x3f
    4c68:	f7fd fd68 	bl	273c <nrf_gpio_pin_clear>
			nrf_pin_configure(pins[i], NRF_GPIO_PIN_DIR_OUTPUT,
    4c6c:	e7d7      	b.n	4c1e <pinctrl_configure_pins+0x56>
			NRF_PSEL_SPIM(reg, MISO) = NRF_GET_PIN(pins[i]);
    4c6e:	f003 033f 	and.w	r3, r3, #63	; 0x3f
    4c72:	f8c5 3510 	str.w	r3, [r5, #1296]	; 0x510
			nrf_pin_configure(pins[i], NRF_GPIO_PIN_DIR_INPUT,
    4c76:	e7d8      	b.n	4c2a <pinctrl_configure_pins+0x62>
			NRF_PSEL_TWIM(reg, SCL) = NRF_GET_PIN(pins[i]);
    4c78:	f003 033f 	and.w	r3, r3, #63	; 0x3f
    4c7c:	f8c5 3508 	str.w	r3, [r5, #1288]	; 0x508
			nrf_pin_configure(pins[i], NRF_GPIO_PIN_DIR_INPUT,
    4c80:	e7d3      	b.n	4c2a <pinctrl_configure_pins+0x62>
			NRF_PSEL_TWIM(reg, SDA) = NRF_GET_PIN(pins[i]);
    4c82:	f003 033f 	and.w	r3, r3, #63	; 0x3f
    4c86:	f8c5 350c 	str.w	r3, [r5, #1292]	; 0x50c
    4c8a:	e7ce      	b.n	4c2a <pinctrl_configure_pins+0x62>
			NRF_PSEL_PWM(reg, OUT[0]) = NRF_GET_PIN(pins[i]);
    4c8c:	f003 033f 	and.w	r3, r3, #63	; 0x3f
    4c90:	f8c5 3560 	str.w	r3, [r5, #1376]	; 0x560
			nrf_gpio_pin_write(NRF_GET_PIN(pins[i]),
    4c94:	6820      	ldr	r0, [r4, #0]
    4c96:	f3c0 3140 	ubfx	r1, r0, #13, #1
    4c9a:	f000 003f 	and.w	r0, r0, #63	; 0x3f
    4c9e:	f7ff ff8e 	bl	4bbe <nrf_gpio_pin_write>
    4ca2:	e7bc      	b.n	4c1e <pinctrl_configure_pins+0x56>
			NRF_PSEL_PWM(reg, OUT[1]) = NRF_GET_PIN(pins[i]);
    4ca4:	f003 033f 	and.w	r3, r3, #63	; 0x3f
    4ca8:	f8c5 3564 	str.w	r3, [r5, #1380]	; 0x564
			nrf_gpio_pin_write(NRF_GET_PIN(pins[i]),
    4cac:	e7f2      	b.n	4c94 <pinctrl_configure_pins+0xcc>
			NRF_PSEL_PWM(reg, OUT[2]) = NRF_GET_PIN(pins[i]);
    4cae:	f003 033f 	and.w	r3, r3, #63	; 0x3f
    4cb2:	f8c5 3568 	str.w	r3, [r5, #1384]	; 0x568
			nrf_gpio_pin_write(NRF_GET_PIN(pins[i]),
    4cb6:	e7ed      	b.n	4c94 <pinctrl_configure_pins+0xcc>
			NRF_PSEL_PWM(reg, OUT[3]) = NRF_GET_PIN(pins[i]);
    4cb8:	f003 033f 	and.w	r3, r3, #63	; 0x3f
    4cbc:	f8c5 356c 	str.w	r3, [r5, #1388]	; 0x56c
    4cc0:	e7e8      	b.n	4c94 <pinctrl_configure_pins+0xcc>
			NRF_PSEL_QSPI(reg, SCK) = NRF_GET_PIN(pins[i]);
    4cc2:	f003 033f 	and.w	r3, r3, #63	; 0x3f
    4cc6:	f8c5 3524 	str.w	r3, [r5, #1316]	; 0x524
			nrf_pin_configure(pins[i], NRF_GPIO_PIN_DIR_INPUT,
    4cca:	2201      	movs	r2, #1
    4ccc:	e7ae      	b.n	4c2c <pinctrl_configure_pins+0x64>
			NRF_PSEL_QSPI(reg, CSN) = NRF_GET_PIN(pins[i]);
    4cce:	f003 033f 	and.w	r3, r3, #63	; 0x3f
    4cd2:	f8c5 3528 	str.w	r3, [r5, #1320]	; 0x528
			nrf_pin_configure(pins[i], NRF_GPIO_PIN_DIR_INPUT,
    4cd6:	e7f8      	b.n	4cca <pinctrl_configure_pins+0x102>
			NRF_PSEL_QSPI(reg, IO0) = NRF_GET_PIN(pins[i]);
    4cd8:	f003 033f 	and.w	r3, r3, #63	; 0x3f
    4cdc:	f8c5 3530 	str.w	r3, [r5, #1328]	; 0x530
			nrf_pin_configure(pins[i], NRF_GPIO_PIN_DIR_INPUT,
    4ce0:	e7f3      	b.n	4cca <pinctrl_configure_pins+0x102>
			NRF_PSEL_QSPI(reg, IO1) = NRF_GET_PIN(pins[i]);
    4ce2:	f003 033f 	and.w	r3, r3, #63	; 0x3f
    4ce6:	f8c5 3534 	str.w	r3, [r5, #1332]	; 0x534
			nrf_pin_configure(pins[i], NRF_GPIO_PIN_DIR_INPUT,
    4cea:	e7ee      	b.n	4cca <pinctrl_configure_pins+0x102>
			NRF_PSEL_QSPI(reg, IO2) = NRF_GET_PIN(pins[i]);
    4cec:	f003 033f 	and.w	r3, r3, #63	; 0x3f
    4cf0:	f8c5 3538 	str.w	r3, [r5, #1336]	; 0x538
			nrf_pin_configure(pins[i], NRF_GPIO_PIN_DIR_INPUT,
    4cf4:	e7e9      	b.n	4cca <pinctrl_configure_pins+0x102>
			NRF_PSEL_QSPI(reg, IO3) = NRF_GET_PIN(pins[i]);
    4cf6:	f003 033f 	and.w	r3, r3, #63	; 0x3f
    4cfa:	f8c5 353c 	str.w	r3, [r5, #1340]	; 0x53c
    4cfe:	e7e4      	b.n	4cca <pinctrl_configure_pins+0x102>
		switch (NRF_GET_FUN(pins[i])) {
    4d00:	f06f 0085 	mvn.w	r0, #133	; 0x85
    4d04:	e768      	b.n	4bd8 <pinctrl_configure_pins+0x10>

00004d06 <k_sys_fatal_error_handler>:

extern void sys_arch_reboot(int type);

void k_sys_fatal_error_handler(unsigned int reason,
			       const z_arch_esf_t *esf)
{
    4d06:	b508      	push	{r3, lr}
	z_spm_ns_fatal_error_handler();
#endif

	if (IS_ENABLED(CONFIG_RESET_ON_FATAL_ERROR)) {
		LOG_ERR("Resetting system");
		sys_arch_reboot(0);
    4d08:	2000      	movs	r0, #0
    4d0a:	f7fc fe33 	bl	1974 <sys_arch_reboot>

00004d0e <hw_cc3xx_init_internal>:

	/* Initialize the cc3xx HW with or without RNG support */
#if CONFIG_ENTROPY_CC3XX
	res = nrf_cc3xx_platform_init();
#else
	res = nrf_cc3xx_platform_init_no_rng();
    4d0e:	f7ff ba63 	b.w	41d8 <nrf_cc3xx_platform_init_no_rng>

00004d12 <hw_cc3xx_init>:

	return res;
}

static int hw_cc3xx_init(const struct device *dev)
{
    4d12:	b508      	push	{r3, lr}
	int res;

	/* Set the RTOS abort APIs */
	nrf_cc3xx_platform_abort_init();
    4d14:	f7fc f99a 	bl	104c <nrf_cc3xx_platform_abort_init>

	/* Set the RTOS mutex APIs */
	nrf_cc3xx_platform_mutex_init();
    4d18:	f7fc fa4c 	bl	11b4 <nrf_cc3xx_platform_mutex_init>

	/* Enable the hardware */
	res = hw_cc3xx_init_internal(dev);
	return res;
}
    4d1c:	e8bd 4008 	ldmia.w	sp!, {r3, lr}
	res = nrf_cc3xx_platform_init_no_rng();
    4d20:	f7ff ba5a 	b.w	41d8 <nrf_cc3xx_platform_init_no_rng>

00004d24 <nrf52_errata_136>:
            uint32_t var1 = *(uint32_t *)0x10000130ul;
    4d24:	f04f 5380 	mov.w	r3, #268435456	; 0x10000000
            if (var1 == 0x08)
    4d28:	f8d3 0130 	ldr.w	r0, [r3, #304]	; 0x130
}
    4d2c:	f1a0 0308 	sub.w	r3, r0, #8
    4d30:	4258      	negs	r0, r3
    4d32:	4158      	adcs	r0, r3
    4d34:	4770      	bx	lr

00004d36 <nrfx_isr>:
#include <nrfx.h>
#include <kernel.h>

void nrfx_isr(const void *irq_handler)
{
	((nrfx_irq_handler_t)irq_handler)();
    4d36:	4700      	bx	r0

00004d38 <nrfx_busy_wait>:
	z_impl_k_busy_wait(usec_to_wait);
    4d38:	f000 ba19 	b.w	516e <z_impl_k_busy_wait>

00004d3c <nrfx_clock_enable>:
{
    4d3c:	b508      	push	{r3, lr}
    priority = NRFX_CLOCK_DEFAULT_CONFIG_IRQ_PRIORITY;
#else
    #error "This code is not supposed to be compiled when neither POWER nor CLOCK is enabled."
#endif

    if (!NRFX_IRQ_IS_ENABLED(nrfx_get_irq_number(NRF_CLOCK)))
    4d3e:	2000      	movs	r0, #0
    4d40:	f7fc fa7c 	bl	123c <arch_irq_is_enabled>
    4d44:	b908      	cbnz	r0, 4d4a <nrfx_clock_enable+0xe>
    {
        NRFX_IRQ_PRIORITY_SET(nrfx_get_irq_number(NRF_CLOCK), priority);
        NRFX_IRQ_ENABLE(nrfx_get_irq_number(NRF_CLOCK));
    4d46:	f7fc fa69 	bl	121c <arch_irq_enable>
    p_reg->LFCLKSRC = (uint32_t)(source);
    4d4a:	f04f 4380 	mov.w	r3, #1073741824	; 0x40000000
    4d4e:	2200      	movs	r2, #0
    4d50:	f8c3 2518 	str.w	r2, [r3, #1304]	; 0x518
}
    4d54:	bd08      	pop	{r3, pc}

00004d56 <nrfx_clock_start>:
{
    4d56:	b508      	push	{r3, lr}
    switch (domain)
    4d58:	b110      	cbz	r0, 4d60 <nrfx_clock_start+0xa>
    4d5a:	2801      	cmp	r0, #1
    4d5c:	d02d      	beq.n	4dba <nrfx_clock_start+0x64>
}
    4d5e:	bd08      	pop	{r3, pc}
                    (nrf_clock_lfclk_t)((p_reg->LFCLKSTAT & CLOCK_LFCLKSTAT_SRC_Msk)
    4d60:	f04f 4280 	mov.w	r2, #1073741824	; 0x40000000
    4d64:	f8d2 1418 	ldr.w	r1, [r2, #1048]	; 0x418
            if ((p_reg->LFCLKSTAT & CLOCK_LFCLKSTAT_STATE_Msk)
    4d68:	f8d2 3418 	ldr.w	r3, [r2, #1048]	; 0x418
    4d6c:	f413 3380 	ands.w	r3, r3, #65536	; 0x10000
    4d70:	d10b      	bne.n	4d8a <nrfx_clock_start+0x34>
            return ((p_reg->LFCLKRUN & CLOCK_LFCLKRUN_STATUS_Msk)
    4d72:	f8d2 1414 	ldr.w	r1, [r2, #1044]	; 0x414
                else if (nrf_clock_start_task_check(NRF_CLOCK, NRF_CLOCK_DOMAIN_LFCLK))
    4d76:	07c9      	lsls	r1, r1, #31
    4d78:	d510      	bpl.n	4d9c <nrfx_clock_start+0x46>
    return (nrf_clock_lfclk_t)((p_reg->LFCLKSRCCOPY & CLOCK_LFCLKSRCCOPY_SRC_Msk)
    4d7a:	f8d2 341c 	ldr.w	r3, [r2, #1052]	; 0x41c
    if (!is_correct_clk)
    4d7e:	079b      	lsls	r3, r3, #30
    4d80:	d408      	bmi.n	4d94 <nrfx_clock_start+0x3e>
    p_reg->INTENSET = mask;
    4d82:	2302      	movs	r3, #2
    4d84:	f8c2 3304 	str.w	r3, [r2, #772]	; 0x304
                        break;
    4d88:	e7e9      	b.n	4d5e <nrfx_clock_start+0x8>
                                        >> CLOCK_LFCLKSTAT_SRC_Pos);
    4d8a:	f001 0303 	and.w	r3, r1, #3
    is_correct_clk = is_correct_clk || (*p_lfclksrc == NRF_CLOCK_LFCLK_RC);
    4d8e:	2b01      	cmp	r3, #1
    4d90:	d004      	beq.n	4d9c <nrfx_clock_start+0x46>
    if (!is_correct_clk)
    4d92:	b11b      	cbz	r3, 4d9c <nrfx_clock_start+0x46>
        clock_stop(NRF_CLOCK_DOMAIN_LFCLK);
    4d94:	2000      	movs	r0, #0
    4d96:	f7fd fe5f 	bl	2a58 <clock_stop>
        *p_lfclksrc = clock_initial_lfclksrc_get();
    4d9a:	2300      	movs	r3, #0
    p_reg->LFCLKSRC = (uint32_t)(source);
    4d9c:	f04f 4280 	mov.w	r2, #1073741824	; 0x40000000
    4da0:	f8c2 3518 	str.w	r3, [r2, #1304]	; 0x518
    *((volatile uint32_t *)((uint8_t *)p_reg + (uint32_t)event)) = 0x0UL;
    4da4:	2300      	movs	r3, #0
    4da6:	f8c2 3104 	str.w	r3, [r2, #260]	; 0x104
    4daa:	f8d2 3104 	ldr.w	r3, [r2, #260]	; 0x104
    p_reg->INTENSET = mask;
    4dae:	2302      	movs	r3, #2
    4db0:	f8c2 3304 	str.w	r3, [r2, #772]	; 0x304
    *((volatile uint32_t *)((uint8_t *)p_reg + (uint32_t)task)) = 0x1UL;
    4db4:	2301      	movs	r3, #1
    4db6:	6093      	str	r3, [r2, #8]
}
    4db8:	e7d1      	b.n	4d5e <nrfx_clock_start+0x8>
    *((volatile uint32_t *)((uint8_t *)p_reg + (uint32_t)event)) = 0x0UL;
    4dba:	f04f 4380 	mov.w	r3, #1073741824	; 0x40000000
    4dbe:	2200      	movs	r2, #0
    4dc0:	f8c3 2100 	str.w	r2, [r3, #256]	; 0x100
    4dc4:	f8d3 2100 	ldr.w	r2, [r3, #256]	; 0x100
    p_reg->INTENSET = mask;
    4dc8:	f8c3 0304 	str.w	r0, [r3, #772]	; 0x304
    *((volatile uint32_t *)((uint8_t *)p_reg + (uint32_t)task)) = 0x1UL;
    4dcc:	6018      	str	r0, [r3, #0]
}
    4dce:	e7c6      	b.n	4d5e <nrfx_clock_start+0x8>

00004dd0 <nrfx_clock_stop>:
    clock_stop(domain);
    4dd0:	f7fd be42 	b.w	2a58 <clock_stop>

00004dd4 <nrf_gpio_reconfigure>:
{
    4dd4:	b5f7      	push	{r0, r1, r2, r4, r5, r6, r7, lr}
    4dd6:	9001      	str	r0, [sp, #4]
    NRF_GPIO_Type * reg = nrf_gpio_pin_port_decode(&pin_number);
    4dd8:	a801      	add	r0, sp, #4
{
    4dda:	e9dd 4608 	ldrd	r4, r6, [sp, #32]
    4dde:	4617      	mov	r7, r2
    4de0:	461d      	mov	r5, r3
    NRF_GPIO_Type * reg = nrf_gpio_pin_port_decode(&pin_number);
    4de2:	f7fd fed1 	bl	2b88 <nrf_gpio_pin_port_decode>
    uint32_t cnf = reg->PIN_CNF[pin_number];
    4de6:	9b01      	ldr	r3, [sp, #4]
                         (p_input ? GPIO_PIN_CNF_INPUT_Msk : 0) |
    4de8:	2f00      	cmp	r7, #0
    4dea:	eb00 0083 	add.w	r0, r0, r3, lsl #2
    4dee:	bf14      	ite	ne
    4df0:	2302      	movne	r3, #2
    4df2:	2300      	moveq	r3, #0
    uint32_t to_update = (p_dir   ? GPIO_PIN_CNF_DIR_Msk   : 0) |
    4df4:	2900      	cmp	r1, #0
    4df6:	bf18      	it	ne
    4df8:	f043 0301 	orrne.w	r3, r3, #1
                         (p_pull  ? GPIO_PIN_CNF_PULL_Msk  : 0) |
    4dfc:	2d00      	cmp	r5, #0
    4dfe:	bf14      	ite	ne
    4e00:	f04f 0c0c 	movne.w	ip, #12
    4e04:	f04f 0c00 	moveq.w	ip, #0
                         (p_drive ? GPIO_PIN_CNF_DRIVE_Msk : 0) |
    4e08:	2c00      	cmp	r4, #0
                         (p_input ? GPIO_PIN_CNF_INPUT_Msk : 0) |
    4e0a:	ea43 030c 	orr.w	r3, r3, ip
                         (p_drive ? GPIO_PIN_CNF_DRIVE_Msk : 0) |
    4e0e:	bf14      	ite	ne
    4e10:	f44f 6ce0 	movne.w	ip, #1792	; 0x700
    4e14:	f04f 0c00 	moveq.w	ip, #0
                         (p_sense ? GPIO_PIN_CNF_SENSE_Msk : 0);
    4e18:	2e00      	cmp	r6, #0
                         (p_pull  ? GPIO_PIN_CNF_PULL_Msk  : 0) |
    4e1a:	ea43 030c 	orr.w	r3, r3, ip
    uint32_t cnf = reg->PIN_CNF[pin_number];
    4e1e:	f8d0 2700 	ldr.w	r2, [r0, #1792]	; 0x700
                         (p_sense ? GPIO_PIN_CNF_SENSE_Msk : 0);
    4e22:	bf14      	ite	ne
    4e24:	f44f 3c40 	movne.w	ip, #196608	; 0x30000
    4e28:	f04f 0c00 	moveq.w	ip, #0
    uint32_t to_update = (p_dir   ? GPIO_PIN_CNF_DIR_Msk   : 0) |
    4e2c:	ea43 030c 	orr.w	r3, r3, ip
    cnf &= ~to_update;
    4e30:	ea22 0303 	bic.w	r3, r2, r3
    cnf |= ((uint32_t)(p_dir   ? *p_dir   : 0) << GPIO_PIN_CNF_DIR_Pos)   |
    4e34:	b101      	cbz	r1, 4e38 <nrf_gpio_reconfigure+0x64>
    4e36:	7809      	ldrb	r1, [r1, #0]
           ((uint32_t)(p_input ? *p_input : 0) << GPIO_PIN_CNF_INPUT_Pos) |
    4e38:	b10f      	cbz	r7, 4e3e <nrf_gpio_reconfigure+0x6a>
    4e3a:	783f      	ldrb	r7, [r7, #0]
    4e3c:	007f      	lsls	r7, r7, #1
    4e3e:	4319      	orrs	r1, r3
           ((uint32_t)(p_pull  ? *p_pull  : 0) << GPIO_PIN_CNF_PULL_Pos)  |
    4e40:	b10d      	cbz	r5, 4e46 <nrf_gpio_reconfigure+0x72>
    4e42:	782d      	ldrb	r5, [r5, #0]
    4e44:	00ad      	lsls	r5, r5, #2
    4e46:	4339      	orrs	r1, r7
           ((uint32_t)(p_drive ? *p_drive : 0) << GPIO_PIN_CNF_DRIVE_Pos) |
    4e48:	b10c      	cbz	r4, 4e4e <nrf_gpio_reconfigure+0x7a>
    4e4a:	7822      	ldrb	r2, [r4, #0]
    4e4c:	0214      	lsls	r4, r2, #8
    4e4e:	430d      	orrs	r5, r1
           ((uint32_t)(p_sense ? *p_sense : 0)<< GPIO_PIN_CNF_SENSE_Pos);
    4e50:	b10e      	cbz	r6, 4e56 <nrf_gpio_reconfigure+0x82>
    4e52:	7836      	ldrb	r6, [r6, #0]
    4e54:	0436      	lsls	r6, r6, #16
    cnf |= ((uint32_t)(p_dir   ? *p_dir   : 0) << GPIO_PIN_CNF_DIR_Pos)   |
    4e56:	432c      	orrs	r4, r5
    4e58:	4334      	orrs	r4, r6
    reg->PIN_CNF[pin_number] = cnf;
    4e5a:	f8c0 4700 	str.w	r4, [r0, #1792]	; 0x700
}
    4e5e:	b003      	add	sp, #12
    4e60:	bdf0      	pop	{r4, r5, r6, r7, pc}

00004e62 <nrf_gpio_cfg_sense_set>:
{
    4e62:	b51f      	push	{r0, r1, r2, r3, r4, lr}
    nrf_gpio_reconfigure(pin_number, NULL, NULL, NULL, NULL, &sense_config);
    4e64:	f10d 030f 	add.w	r3, sp, #15
    4e68:	9301      	str	r3, [sp, #4]
    4e6a:	2300      	movs	r3, #0
{
    4e6c:	f88d 100f 	strb.w	r1, [sp, #15]
    nrf_gpio_reconfigure(pin_number, NULL, NULL, NULL, NULL, &sense_config);
    4e70:	9300      	str	r3, [sp, #0]
    4e72:	461a      	mov	r2, r3
    4e74:	4619      	mov	r1, r3
    4e76:	f7ff ffad 	bl	4dd4 <nrf_gpio_reconfigure>
}
    4e7a:	b005      	add	sp, #20
    4e7c:	f85d fb04 	ldr.w	pc, [sp], #4

00004e80 <SEGGER_RTT_Init>:
*    Initializes the RTT Control Block.
*    Should be used in RAM targets, at start of the application.
*
*/
void SEGGER_RTT_Init (void) {
  _DoInit();
    4e80:	f7fe b9e8 	b.w	3254 <_DoInit>

00004e84 <rtt_init>:
 */

K_MUTEX_DEFINE(rtt_term_mutex);

static int rtt_init(const struct device *unused)
{
    4e84:	b508      	push	{r3, lr}
	ARG_UNUSED(unused);

	SEGGER_RTT_Init();
    4e86:	f7ff fffb 	bl	4e80 <SEGGER_RTT_Init>

	return 0;
}
    4e8a:	2000      	movs	r0, #0
    4e8c:	bd08      	pop	{r3, pc}

00004e8e <z_device_state_init>:
}
    4e8e:	4770      	bx	lr

00004e90 <z_device_is_ready>:
{
	/*
	 * if an invalid device pointer is passed as argument, this call
	 * reports the `device` as not ready for usage.
	 */
	if (dev == NULL) {
    4e90:	b138      	cbz	r0, 4ea2 <z_device_is_ready+0x12>
		return false;
	}

	return dev->state->initialized && (dev->state->init_res == 0U);
    4e92:	68c3      	ldr	r3, [r0, #12]
    4e94:	8818      	ldrh	r0, [r3, #0]
    4e96:	f3c0 0008 	ubfx	r0, r0, #0, #9
    4e9a:	f5a0 7380 	sub.w	r3, r0, #256	; 0x100
    4e9e:	4258      	negs	r0, r3
    4ea0:	4158      	adcs	r0, r3
}
    4ea2:	4770      	bx	lr

00004ea4 <z_fatal_error>:
	return 0;
#endif
}

void z_fatal_error(unsigned int reason, const z_arch_esf_t *esf)
{
    4ea4:	b5f8      	push	{r3, r4, r5, r6, r7, lr}
    4ea6:	4605      	mov	r5, r0
    4ea8:	460e      	mov	r6, r1
	__asm__ volatile(
    4eaa:	f04f 0320 	mov.w	r3, #32
    4eae:	f3ef 8711 	mrs	r7, BASEPRI
    4eb2:	f383 8812 	msr	BASEPRI_MAX, r3
    4eb6:	f3bf 8f6f 	isb	sy
	return z_impl_z_current_get();
    4eba:	f7fe ffd7 	bl	3e6c <z_impl_z_current_get>
	LOG_ERR("Current thread: %p (%s)", thread,
		log_strdup(thread_name_get(thread)));

	coredump(reason, esf, thread);

	k_sys_fatal_error_handler(reason, esf);
    4ebe:	4631      	mov	r1, r6
    4ec0:	4604      	mov	r4, r0
    4ec2:	4628      	mov	r0, r5
    4ec4:	f7ff ff1f 	bl	4d06 <k_sys_fatal_error_handler>
	__asm__ volatile(
    4ec8:	f387 8811 	msr	BASEPRI, r7
    4ecc:	f3bf 8f6f 	isb	sy
	z_impl_k_thread_abort(thread);
    4ed0:	4620      	mov	r0, r4
	arch_irq_unlock(key);

	if (IS_ENABLED(CONFIG_MULTITHREADING)) {
		k_thread_abort(thread);
	}
}
    4ed2:	e8bd 40f8 	ldmia.w	sp!, {r3, r4, r5, r6, r7, lr}
    4ed6:	f7fc bc3b 	b.w	1750 <z_impl_k_thread_abort>

00004eda <z_early_memset>:
	(void) memset(dst, c, n);
    4eda:	f7ff bccd 	b.w	4878 <memset>

00004ede <z_early_memcpy>:
	(void) memcpy(dst, src, n);
    4ede:	f7ff bcc0 	b.w	4862 <memcpy>

00004ee2 <k_mem_slab_init>:
{
    4ee2:	b530      	push	{r4, r5, lr}
	slab->num_used = 0U;
    4ee4:	2400      	movs	r4, #0
    4ee6:	6184      	str	r4, [r0, #24]
	CHECKIF(((slab->block_size | (uintptr_t)slab->buffer) &
    4ee8:	ea41 0402 	orr.w	r4, r1, r2
    4eec:	f014 0403 	ands.w	r4, r4, #3
	slab->block_size = block_size;
    4ef0:	e9c0 3202 	strd	r3, r2, [r0, #8]
	slab->buffer = buffer;
    4ef4:	6101      	str	r1, [r0, #16]
	CHECKIF(((slab->block_size | (uintptr_t)slab->buffer) &
    4ef6:	d10c      	bne.n	4f12 <k_mem_slab_init+0x30>
	slab->free_list = NULL;
    4ef8:	6144      	str	r4, [r0, #20]
	for (j = 0U; j < slab->num_blocks; j++) {
    4efa:	42a3      	cmp	r3, r4
    4efc:	d103      	bne.n	4f06 <k_mem_slab_init+0x24>
	list->tail = (sys_dnode_t *)list;
    4efe:	e9c0 0000 	strd	r0, r0, [r0]
}
    4f02:	2000      	movs	r0, #0
}
    4f04:	bd30      	pop	{r4, r5, pc}
		*(char **)p = slab->free_list;
    4f06:	6945      	ldr	r5, [r0, #20]
    4f08:	600d      	str	r5, [r1, #0]
	for (j = 0U; j < slab->num_blocks; j++) {
    4f0a:	3401      	adds	r4, #1
		slab->free_list = p;
    4f0c:	6141      	str	r1, [r0, #20]
		p += slab->block_size;
    4f0e:	4411      	add	r1, r2
	for (j = 0U; j < slab->num_blocks; j++) {
    4f10:	e7f3      	b.n	4efa <k_mem_slab_init+0x18>
		return -EINVAL;
    4f12:	f06f 0015 	mvn.w	r0, #21
	return rc;
    4f16:	e7f5      	b.n	4f04 <k_mem_slab_init+0x22>

00004f18 <k_mem_slab_free>:

void k_mem_slab_free(struct k_mem_slab *slab, void **mem)
{
    4f18:	b5f8      	push	{r3, r4, r5, r6, r7, lr}
    4f1a:	4604      	mov	r4, r0
    4f1c:	460d      	mov	r5, r1
	__asm__ volatile(
    4f1e:	f04f 0320 	mov.w	r3, #32
    4f22:	f3ef 8611 	mrs	r6, BASEPRI
    4f26:	f383 8812 	msr	BASEPRI_MAX, r3
    4f2a:	f3bf 8f6f 	isb	sy
	k_spinlock_key_t key = k_spin_lock(&slab->lock);

	SYS_PORT_TRACING_OBJ_FUNC_ENTER(k_mem_slab, free, slab);
	if (slab->free_list == NULL && IS_ENABLED(CONFIG_MULTITHREADING)) {
    4f2e:	6947      	ldr	r7, [r0, #20]
    4f30:	b977      	cbnz	r7, 4f50 <k_mem_slab_free+0x38>
		struct k_thread *pending_thread = z_unpend_first_thread(&slab->wait_q);
    4f32:	f000 f8c0 	bl	50b6 <z_unpend_first_thread>

		if (pending_thread != NULL) {
    4f36:	b158      	cbz	r0, 4f50 <k_mem_slab_free+0x38>
			SYS_PORT_TRACING_OBJ_FUNC_EXIT(k_mem_slab, free, slab);

			z_thread_return_value_set_with_data(pending_thread, 0, *mem);
    4f38:	682a      	ldr	r2, [r5, #0]
z_thread_return_value_set_with_data(struct k_thread *thread,
				   unsigned int value,
				   void *data)
{
	arch_thread_return_value_set(thread, value);
	thread->base.swap_data = data;
    4f3a:	6142      	str	r2, [r0, #20]
    4f3c:	6787      	str	r7, [r0, #120]	; 0x78
			z_ready_thread(pending_thread);
    4f3e:	f000 f85e 	bl	4ffe <z_ready_thread>
			z_reschedule(&slab->lock, key);
    4f42:	4631      	mov	r1, r6
    4f44:	f104 0008 	add.w	r0, r4, #8
	slab->num_used--;

	SYS_PORT_TRACING_OBJ_FUNC_EXIT(k_mem_slab, free, slab);

	k_spin_unlock(&slab->lock, key);
}
    4f48:	e8bd 40f8 	ldmia.w	sp!, {r3, r4, r5, r6, r7, lr}
			z_reschedule(&slab->lock, key);
    4f4c:	f7fe bce2 	b.w	3914 <z_reschedule>
	**(char ***) mem = slab->free_list;
    4f50:	682b      	ldr	r3, [r5, #0]
    4f52:	6962      	ldr	r2, [r4, #20]
    4f54:	601a      	str	r2, [r3, #0]
	slab->free_list = *(char **) mem;
    4f56:	682b      	ldr	r3, [r5, #0]
    4f58:	6163      	str	r3, [r4, #20]
	slab->num_used--;
    4f5a:	69a3      	ldr	r3, [r4, #24]
    4f5c:	3b01      	subs	r3, #1
    4f5e:	61a3      	str	r3, [r4, #24]
	__asm__ volatile(
    4f60:	f386 8811 	msr	BASEPRI, r6
    4f64:	f3bf 8f6f 	isb	sy
}
    4f68:	bdf8      	pop	{r3, r4, r5, r6, r7, pc}

00004f6a <k_is_in_isr>:
  __ASM volatile ("MRS %0, ipsr" : "=r" (result) );
    4f6a:	f3ef 8005 	mrs	r0, IPSR
}
    4f6e:	3800      	subs	r0, #0
    4f70:	bf18      	it	ne
    4f72:	2001      	movne	r0, #1
    4f74:	4770      	bx	lr

00004f76 <z_pm_save_idle_exit>:
{
    4f76:	b508      	push	{r3, lr}
	pm_system_resume();
    4f78:	f7fb ff50 	bl	e1c <pm_system_resume>
}
    4f7c:	e8bd 4008 	ldmia.w	sp!, {r3, lr}
	sys_clock_idle_exit();
    4f80:	f7ff be04 	b.w	4b8c <sys_clock_idle_exit>

00004f84 <adjust_owner_prio.isra.0>:
	if (mutex->owner->base.prio != new_prio) {
    4f84:	f990 300e 	ldrsb.w	r3, [r0, #14]
    4f88:	428b      	cmp	r3, r1
    4f8a:	d001      	beq.n	4f90 <adjust_owner_prio.isra.0+0xc>
		return z_set_prio(mutex->owner, new_prio);
    4f8c:	f7fe be2a 	b.w	3be4 <z_set_prio>
}
    4f90:	2000      	movs	r0, #0
    4f92:	4770      	bx	lr

00004f94 <z_impl_k_mutex_init>:
{
    4f94:	4603      	mov	r3, r0
	mutex->owner = NULL;
    4f96:	2000      	movs	r0, #0
	mutex->lock_count = 0U;
    4f98:	e9c3 0002 	strd	r0, r0, [r3, #8]
    4f9c:	e9c3 3300 	strd	r3, r3, [r3]
}
    4fa0:	4770      	bx	lr

00004fa2 <sys_dlist_remove>:
	sys_dnode_t *const next = node->next;
    4fa2:	e9d0 3200 	ldrd	r3, r2, [r0]
	prev->next = next;
    4fa6:	6013      	str	r3, [r2, #0]
	next->prev = prev;
    4fa8:	605a      	str	r2, [r3, #4]
	node->next = NULL;
    4faa:	2300      	movs	r3, #0
	node->prev = NULL;
    4fac:	e9c0 3300 	strd	r3, r3, [r0]
	sys_dnode_init(node);
}
    4fb0:	4770      	bx	lr

00004fb2 <unpend_thread_no_timeout>:
{
    4fb2:	b508      	push	{r3, lr}
	sys_dlist_remove(&thread->base.qnode_dlist);
    4fb4:	f7ff fff5 	bl	4fa2 <sys_dlist_remove>
	thread->base.thread_state &= ~_THREAD_PENDING;
    4fb8:	7b43      	ldrb	r3, [r0, #13]
    4fba:	f023 0302 	bic.w	r3, r3, #2
    4fbe:	7343      	strb	r3, [r0, #13]
	thread->base.pended_on = NULL;
    4fc0:	2300      	movs	r3, #0
    4fc2:	6083      	str	r3, [r0, #8]
}
    4fc4:	bd08      	pop	{r3, pc}

00004fc6 <z_reschedule_irqlock>:
	return arch_irq_unlocked(key) && !arch_is_in_isr();
    4fc6:	4603      	mov	r3, r0
    4fc8:	b920      	cbnz	r0, 4fd4 <z_reschedule_irqlock+0xe>
    4fca:	f3ef 8205 	mrs	r2, IPSR
	if (resched(key)) {
    4fce:	b90a      	cbnz	r2, 4fd4 <z_reschedule_irqlock+0xe>
	ret = arch_swap(key);
    4fd0:	f7fc b97a 	b.w	12c8 <arch_swap>
    4fd4:	f383 8811 	msr	BASEPRI, r3
    4fd8:	f3bf 8f6f 	isb	sy
}
    4fdc:	4770      	bx	lr

00004fde <z_reschedule_unlocked>:
	__asm__ volatile(
    4fde:	f04f 0320 	mov.w	r3, #32
    4fe2:	f3ef 8011 	mrs	r0, BASEPRI
    4fe6:	f383 8812 	msr	BASEPRI_MAX, r3
    4fea:	f3bf 8f6f 	isb	sy
	(void) z_reschedule_irqlock(arch_irq_lock());
    4fee:	f7ff bfea 	b.w	4fc6 <z_reschedule_irqlock>

00004ff2 <z_priq_dumb_best>:
{
    4ff2:	4603      	mov	r3, r0
	return list->head == list;
    4ff4:	6800      	ldr	r0, [r0, #0]
}
    4ff6:	4283      	cmp	r3, r0
    4ff8:	bf08      	it	eq
    4ffa:	2000      	moveq	r0, #0
    4ffc:	4770      	bx	lr

00004ffe <z_ready_thread>:
{
    4ffe:	b510      	push	{r4, lr}
    5000:	f04f 0320 	mov.w	r3, #32
    5004:	f3ef 8411 	mrs	r4, BASEPRI
    5008:	f383 8812 	msr	BASEPRI_MAX, r3
    500c:	f3bf 8f6f 	isb	sy
			ready_thread(thread);
    5010:	f7fe fd42 	bl	3a98 <ready_thread>
	__asm__ volatile(
    5014:	f384 8811 	msr	BASEPRI, r4
    5018:	f3bf 8f6f 	isb	sy
}
    501c:	bd10      	pop	{r4, pc}

0000501e <z_thread_timeout>:
{
    501e:	b510      	push	{r4, lr}
    5020:	4601      	mov	r1, r0
	__asm__ volatile(
    5022:	f04f 0320 	mov.w	r3, #32
    5026:	f3ef 8411 	mrs	r4, BASEPRI
    502a:	f383 8812 	msr	BASEPRI_MAX, r3
    502e:	f3bf 8f6f 	isb	sy
		if (!killed) {
    5032:	f810 3c0b 	ldrb.w	r3, [r0, #-11]
    5036:	f013 0f28 	tst.w	r3, #40	; 0x28
    503a:	d10d      	bne.n	5058 <z_thread_timeout+0x3a>
			if (thread->base.pended_on != NULL) {
    503c:	f851 3c10 	ldr.w	r3, [r1, #-16]
	struct k_thread *thread = CONTAINER_OF(timeout,
    5040:	3818      	subs	r0, #24
			if (thread->base.pended_on != NULL) {
    5042:	b10b      	cbz	r3, 5048 <z_thread_timeout+0x2a>
				unpend_thread_no_timeout(thread);
    5044:	f7ff ffb5 	bl	4fb2 <unpend_thread_no_timeout>
	thread->base.thread_state &= ~_THREAD_SUSPENDED;
    5048:	f811 3c0b 	ldrb.w	r3, [r1, #-11]
    504c:	f023 0314 	bic.w	r3, r3, #20
    5050:	f801 3c0b 	strb.w	r3, [r1, #-11]
			ready_thread(thread);
    5054:	f7fe fd20 	bl	3a98 <ready_thread>
	__asm__ volatile(
    5058:	f384 8811 	msr	BASEPRI, r4
    505c:	f3bf 8f6f 	isb	sy
}
    5060:	bd10      	pop	{r4, pc}

00005062 <add_to_waitq_locked>:
{
    5062:	b538      	push	{r3, r4, r5, lr}
    5064:	4604      	mov	r4, r0
    5066:	460d      	mov	r5, r1
	unready_thread(thread);
    5068:	f7fe fd6a 	bl	3b40 <unready_thread>
	thread->base.thread_state |= _THREAD_PENDING;
    506c:	7b63      	ldrb	r3, [r4, #13]
    506e:	f043 0302 	orr.w	r3, r3, #2
    5072:	7363      	strb	r3, [r4, #13]
	if (wait_q != NULL) {
    5074:	b195      	cbz	r5, 509c <add_to_waitq_locked+0x3a>
    5076:	682b      	ldr	r3, [r5, #0]
		thread->base.pended_on = wait_q;
    5078:	60a5      	str	r5, [r4, #8]
	return sys_dlist_is_empty(list) ? NULL : list->head;
    507a:	429d      	cmp	r5, r3
    507c:	d015      	beq.n	50aa <add_to_waitq_locked+0x48>
	SYS_DLIST_FOR_EACH_CONTAINER(pq, t, base.qnode_dlist) {
    507e:	b1a3      	cbz	r3, 50aa <add_to_waitq_locked+0x48>
	int32_t b1 = thread_1->base.prio;
    5080:	f994 100e 	ldrsb.w	r1, [r4, #14]
	int32_t b2 = thread_2->base.prio;
    5084:	f993 200e 	ldrsb.w	r2, [r3, #14]
	if (b1 != b2) {
    5088:	4291      	cmp	r1, r2
    508a:	d008      	beq.n	509e <add_to_waitq_locked+0x3c>
		return b2 - b1;
    508c:	1a52      	subs	r2, r2, r1
		if (z_sched_prio_cmp(thread, t) > 0) {
    508e:	2a00      	cmp	r2, #0
    5090:	dd05      	ble.n	509e <add_to_waitq_locked+0x3c>
	sys_dnode_t *const prev = successor->prev;
    5092:	685a      	ldr	r2, [r3, #4]
	node->next = successor;
    5094:	e9c4 3200 	strd	r3, r2, [r4]
	prev->next = node;
    5098:	6014      	str	r4, [r2, #0]
	successor->prev = node;
    509a:	605c      	str	r4, [r3, #4]
}
    509c:	bd38      	pop	{r3, r4, r5, pc}
	return (node == list->tail) ? NULL : node->next;
    509e:	686a      	ldr	r2, [r5, #4]
    50a0:	4293      	cmp	r3, r2
    50a2:	d002      	beq.n	50aa <add_to_waitq_locked+0x48>
    50a4:	681b      	ldr	r3, [r3, #0]
	SYS_DLIST_FOR_EACH_CONTAINER(pq, t, base.qnode_dlist) {
    50a6:	2b00      	cmp	r3, #0
    50a8:	d1ec      	bne.n	5084 <add_to_waitq_locked+0x22>
	sys_dnode_t *const tail = list->tail;
    50aa:	686b      	ldr	r3, [r5, #4]
	node->prev = tail;
    50ac:	e9c4 5300 	strd	r5, r3, [r4]
	tail->next = node;
    50b0:	601c      	str	r4, [r3, #0]
	list->tail = node;
    50b2:	606c      	str	r4, [r5, #4]
}
    50b4:	e7f2      	b.n	509c <add_to_waitq_locked+0x3a>

000050b6 <z_unpend_first_thread>:
{
    50b6:	b538      	push	{r3, r4, r5, lr}
	__asm__ volatile(
    50b8:	f04f 0320 	mov.w	r3, #32
    50bc:	f3ef 8511 	mrs	r5, BASEPRI
    50c0:	f383 8812 	msr	BASEPRI_MAX, r3
    50c4:	f3bf 8f6f 	isb	sy
		thread = _priq_wait_best(&wait_q->waitq);
    50c8:	f7ff ff93 	bl	4ff2 <z_priq_dumb_best>
		if (thread != NULL) {
    50cc:	4604      	mov	r4, r0
    50ce:	b120      	cbz	r0, 50da <z_unpend_first_thread+0x24>
			unpend_thread_no_timeout(thread);
    50d0:	f7ff ff6f 	bl	4fb2 <unpend_thread_no_timeout>
    50d4:	3018      	adds	r0, #24
    50d6:	f000 f806 	bl	50e6 <z_abort_timeout>
	__asm__ volatile(
    50da:	f385 8811 	msr	BASEPRI, r5
    50de:	f3bf 8f6f 	isb	sy
}
    50e2:	4620      	mov	r0, r4
    50e4:	bd38      	pop	{r3, r4, r5, pc}

000050e6 <z_abort_timeout>:
{
    50e6:	b510      	push	{r4, lr}
	__asm__ volatile(
    50e8:	f04f 0220 	mov.w	r2, #32
    50ec:	f3ef 8411 	mrs	r4, BASEPRI
    50f0:	f382 8812 	msr	BASEPRI_MAX, r2
    50f4:	f3bf 8f6f 	isb	sy
		if (sys_dnode_is_linked(&to->node)) {
    50f8:	6803      	ldr	r3, [r0, #0]
    50fa:	b13b      	cbz	r3, 510c <z_abort_timeout+0x26>
			remove_timeout(to);
    50fc:	f7fe ff58 	bl	3fb0 <remove_timeout>
			ret = 0;
    5100:	2000      	movs	r0, #0
	__asm__ volatile(
    5102:	f384 8811 	msr	BASEPRI, r4
    5106:	f3bf 8f6f 	isb	sy
}
    510a:	bd10      	pop	{r4, pc}
	int ret = -EINVAL;
    510c:	f06f 0015 	mvn.w	r0, #21
    5110:	e7f7      	b.n	5102 <z_abort_timeout+0x1c>

00005112 <z_get_next_timeout_expiry>:
{
    5112:	b510      	push	{r4, lr}
	__asm__ volatile(
    5114:	f04f 0320 	mov.w	r3, #32
    5118:	f3ef 8411 	mrs	r4, BASEPRI
    511c:	f383 8812 	msr	BASEPRI_MAX, r3
    5120:	f3bf 8f6f 	isb	sy
		ret = next_timeout();
    5124:	f7fe ff1e 	bl	3f64 <next_timeout>
	__asm__ volatile(
    5128:	f384 8811 	msr	BASEPRI, r4
    512c:	f3bf 8f6f 	isb	sy
}
    5130:	bd10      	pop	{r4, pc}

00005132 <z_set_timeout_expiry>:
{
    5132:	b570      	push	{r4, r5, r6, lr}
    5134:	4604      	mov	r4, r0
    5136:	460d      	mov	r5, r1
	__asm__ volatile(
    5138:	f04f 0320 	mov.w	r3, #32
    513c:	f3ef 8611 	mrs	r6, BASEPRI
    5140:	f383 8812 	msr	BASEPRI_MAX, r3
    5144:	f3bf 8f6f 	isb	sy
		int next_to = next_timeout();
    5148:	f7fe ff0c 	bl	3f64 <next_timeout>
		if (!imminent && (sooner || IS_ENABLED(CONFIG_SMP))) {
    514c:	2801      	cmp	r0, #1
    514e:	dd05      	ble.n	515c <z_set_timeout_expiry+0x2a>
    5150:	42a0      	cmp	r0, r4
    5152:	db03      	blt.n	515c <z_set_timeout_expiry+0x2a>
			sys_clock_set_timeout(MIN(ticks, next_to), is_idle);
    5154:	4629      	mov	r1, r5
    5156:	4620      	mov	r0, r4
    5158:	f7fd fab4 	bl	26c4 <sys_clock_set_timeout>
	__asm__ volatile(
    515c:	f386 8811 	msr	BASEPRI, r6
    5160:	f3bf 8f6f 	isb	sy
}
    5164:	bd70      	pop	{r4, r5, r6, pc}

00005166 <sys_clock_tick_get_32>:

uint32_t sys_clock_tick_get_32(void)
{
    5166:	b508      	push	{r3, lr}
#ifdef CONFIG_TICKLESS_KERNEL
	return (uint32_t)sys_clock_tick_get();
    5168:	f7ff f812 	bl	4190 <sys_clock_tick_get>
#else
	return (uint32_t)curr_tick;
#endif
}
    516c:	bd08      	pop	{r3, pc}

0000516e <z_impl_k_busy_wait>:
#endif

void z_impl_k_busy_wait(uint32_t usec_to_wait)
{
	SYS_PORT_TRACING_FUNC_ENTER(k_thread, busy_wait, usec_to_wait);
	if (usec_to_wait == 0U) {
    516e:	b108      	cbz	r0, 5174 <z_impl_k_busy_wait+0x6>
		if ((current_cycles - start_cycles) >= cycles_to_wait) {
			break;
		}
	}
#else
	arch_busy_wait(usec_to_wait);
    5170:	f7fc bc16 	b.w	19a0 <arch_busy_wait>
#endif /* CONFIG_ARCH_HAS_CUSTOM_BUSY_WAIT */
	SYS_PORT_TRACING_FUNC_EXIT(k_thread, busy_wait, usec_to_wait);
}
    5174:	4770      	bx	lr
	...

00005178 <z_arm_platform_init>:
	 */
#if defined(CONFIG_ARMV6_M_ARMV8_M_BASELINE)
	ldr r0, =SystemInit
	bx r0
#elif defined(CONFIG_ARMV7_M_ARMV8_M_MAINLINE)
	b SystemInit
    5178:	f7fd bb3c 	b.w	27f4 <SystemInit>
